TN:
SF:/home/diego/Desktop/taller2-appserver/ContenidoParaLasPruebas/gtest_main.cc
FN:4,main
FN:7,_Z41__static_initialization_and_destruction_0ii
FN:7,_GLOBAL__sub_I_main
FNDA:10,main
FNDA:10,_GLOBAL__sub_I_main
FNDA:10,_Z41__static_initialization_and_destruction_0ii
FNF:3
FNH:3
DA:4,10
DA:5,10
DA:6,10
DA:7,30
LF:4
LH:4
end_of_record
SF:/usr/include/c++/4.8/iostream
DA:74,10
LF:1
LH:1
end_of_record
SF:/usr/local/include/gtest/gtest.h
FN:2232,_Z13RUN_ALL_TESTSv
FNDA:10,_Z13RUN_ALL_TESTSv
FNF:1
FNH:1
DA:2232,10
DA:2233,10
LF:2
LH:2
end_of_record
TN:
SF:/home/diego/Desktop/taller2-appserver/Appserver/src/servicios/JsonValor.h
FN:10,_ZN9JsonValorC2ERKS_
FNDA:60,_ZN9JsonValorC2ERKS_
FNF:1
FNH:1
DA:10,60
LF:1
LH:1
end_of_record
SF:/home/diego/Desktop/taller2-appserver/ContenidoParaLasPruebas/TestCases/JsonValoresTests.cpp
FN:8,_ZN16JsonValoresTestsD0Ev
FN:8,_ZN16JsonValoresTestsD2Ev
FN:8,_ZN16JsonValoresTestsC2Ev
FN:12,_ZN16JsonValoresTests24agregarNumeroAlJsonArrayEiR9JsonArray
FN:18,_ZN16JsonValoresTests25agregarPalabraAlJsonArrayESsR9JsonArray
FN:24,_ZN16JsonValoresTests26compararStringConJsonValorESs9JsonValor
FN:35,_Z41__static_initialization_and_destruction_0ii
FN:35,_ZN48JsonValoresTests_testJsonArrayComienzaVacio_TestC2Ev
FN:35,_ZN48JsonValoresTests_testJsonArrayComienzaVacio_TestD0Ev
FN:35,_ZN48JsonValoresTests_testJsonArrayComienzaVacio_TestD2Ev
FN:35,_ZN48JsonValoresTests_testJsonArrayComienzaVacio_Test8TestBodyEv
FN:42,_ZN51JsonValoresTests_testAgregarUnNumerolJsonArray_TestD0Ev
FN:42,_ZN51JsonValoresTests_testAgregarUnNumerolJsonArray_TestD2Ev
FN:42,_ZN51JsonValoresTests_testAgregarUnNumerolJsonArray_Test8TestBodyEv
FN:42,_ZN51JsonValoresTests_testAgregarUnNumerolJsonArray_TestC2Ev
FN:53,_ZN92JsonValoresTests_testAgregarVariosNumerosAlJsonArrayElUltimoEnAgregarseEsElDeMayorOrden_TestD2Ev
FN:53,_ZN92JsonValoresTests_testAgregarVariosNumerosAlJsonArrayElUltimoEnAgregarseEsElDeMayorOrden_TestD0Ev
FN:53,_ZN92JsonValoresTests_testAgregarVariosNumerosAlJsonArrayElUltimoEnAgregarseEsElDeMayorOrden_TestC2Ev
FN:53,_ZN92JsonValoresTests_testAgregarVariosNumerosAlJsonArrayElUltimoEnAgregarseEsElDeMayorOrden_Test8TestBodyEv
FN:75,_ZN54JsonValoresTests_testAgregarUnaPalabraAlJsonArray_TestD2Ev
FN:75,_ZN54JsonValoresTests_testAgregarUnaPalabraAlJsonArray_Test8TestBodyEv
FN:75,_ZN54JsonValoresTests_testAgregarUnaPalabraAlJsonArray_TestD0Ev
FN:75,_ZN54JsonValoresTests_testAgregarUnaPalabraAlJsonArray_TestC2Ev
FN:82,_ZN58JsonValoresTests_testAgregarVariasPalabrasAlJsonArray_TestC2Ev
FN:82,_ZN58JsonValoresTests_testAgregarVariasPalabrasAlJsonArray_TestD2Ev
FN:82,_ZN58JsonValoresTests_testAgregarVariasPalabrasAlJsonArray_Test8TestBodyEv
FN:82,_ZN58JsonValoresTests_testAgregarVariasPalabrasAlJsonArray_TestD0Ev
FN:97,_ZN55JsonValoresTests_testAgregarUnJsonArrayAlJsonArray_Test8TestBodyEv
FN:97,_ZN55JsonValoresTests_testAgregarUnJsonArrayAlJsonArray_TestC2Ev
FN:97,_ZN55JsonValoresTests_testAgregarUnJsonArrayAlJsonArray_TestD2Ev
FN:97,_ZN55JsonValoresTests_testAgregarUnJsonArrayAlJsonArray_TestD0Ev
FN:110,_GLOBAL__sub_I__ZN48JsonValoresTests_testJsonArrayComienzaVacio_Test10test_info_E
FNDA:0,_ZN16JsonValoresTestsD0Ev
FNDA:60,_ZN16JsonValoresTestsD2Ev
FNDA:60,_ZN16JsonValoresTestsC2Ev
FNDA:60,_ZN16JsonValoresTests24agregarNumeroAlJsonArrayEiR9JsonArray
FNDA:120,_ZN16JsonValoresTests25agregarPalabraAlJsonArrayESsR9JsonArray
FNDA:160,_ZN16JsonValoresTests26compararStringConJsonValorESs9JsonValor
FNDA:10,_ZN48JsonValoresTests_testJsonArrayComienzaVacio_TestD0Ev
FNDA:10,_ZN48JsonValoresTests_testJsonArrayComienzaVacio_TestD2Ev
FNDA:10,_ZN48JsonValoresTests_testJsonArrayComienzaVacio_Test8TestBodyEv
FNDA:10,_ZN48JsonValoresTests_testJsonArrayComienzaVacio_TestC2Ev
FNDA:10,_ZN51JsonValoresTests_testAgregarUnNumerolJsonArray_TestD0Ev
FNDA:10,_ZN51JsonValoresTests_testAgregarUnNumerolJsonArray_TestD2Ev
FNDA:10,_ZN51JsonValoresTests_testAgregarUnNumerolJsonArray_Test8TestBodyEv
FNDA:10,_ZN51JsonValoresTests_testAgregarUnNumerolJsonArray_TestC2Ev
FNDA:10,_ZN92JsonValoresTests_testAgregarVariosNumerosAlJsonArrayElUltimoEnAgregarseEsElDeMayorOrden_TestD0Ev
FNDA:10,_ZN92JsonValoresTests_testAgregarVariosNumerosAlJsonArrayElUltimoEnAgregarseEsElDeMayorOrden_TestD2Ev
FNDA:10,_ZN92JsonValoresTests_testAgregarVariosNumerosAlJsonArrayElUltimoEnAgregarseEsElDeMayorOrden_Test8TestBodyEv
FNDA:10,_ZN92JsonValoresTests_testAgregarVariosNumerosAlJsonArrayElUltimoEnAgregarseEsElDeMayorOrden_TestC2Ev
FNDA:10,_ZN54JsonValoresTests_testAgregarUnaPalabraAlJsonArray_TestD0Ev
FNDA:10,_ZN54JsonValoresTests_testAgregarUnaPalabraAlJsonArray_TestD2Ev
FNDA:10,_ZN54JsonValoresTests_testAgregarUnaPalabraAlJsonArray_Test8TestBodyEv
FNDA:10,_ZN54JsonValoresTests_testAgregarUnaPalabraAlJsonArray_TestC2Ev
FNDA:10,_ZN58JsonValoresTests_testAgregarVariasPalabrasAlJsonArray_TestD0Ev
FNDA:10,_ZN58JsonValoresTests_testAgregarVariasPalabrasAlJsonArray_TestD2Ev
FNDA:10,_ZN58JsonValoresTests_testAgregarVariasPalabrasAlJsonArray_Test8TestBodyEv
FNDA:10,_ZN58JsonValoresTests_testAgregarVariasPalabrasAlJsonArray_TestC2Ev
FNDA:10,_ZN55JsonValoresTests_testAgregarUnJsonArrayAlJsonArray_TestD0Ev
FNDA:10,_ZN55JsonValoresTests_testAgregarUnJsonArrayAlJsonArray_TestD2Ev
FNDA:10,_ZN55JsonValoresTests_testAgregarUnJsonArrayAlJsonArray_Test8TestBodyEv
FNDA:10,_ZN55JsonValoresTests_testAgregarUnJsonArrayAlJsonArray_TestC2Ev
FNDA:10,_GLOBAL__sub_I__ZN48JsonValoresTests_testJsonArrayComienzaVacio_Test10test_info_E
FNDA:10,_Z41__static_initialization_and_destruction_0ii
FNF:32
FNH:31
DA:8,120
DA:12,60
DA:15,60
DA:16,60
DA:18,120
DA:21,120
DA:22,120
DA:24,160
DA:25,160
DA:35,50
DA:36,10
DA:37,10
DA:42,50
DA:43,10
DA:44,10
DA:45,10
DA:53,50
DA:54,10
DA:55,10
DA:56,10
DA:57,10
DA:58,10
DA:59,10
DA:61,10
DA:63,10
DA:64,10
DA:65,10
DA:66,10
DA:67,10
DA:75,50
DA:76,10
DA:77,10
DA:78,10
DA:82,50
DA:83,10
DA:84,10
DA:85,10
DA:86,10
DA:87,10
DA:88,10
DA:89,10
DA:90,10
DA:91,10
DA:92,10
DA:93,10
DA:94,10
DA:97,50
DA:98,20
DA:99,10
DA:100,10
DA:102,10
DA:103,10
DA:104,10
DA:106,10
DA:108,10
DA:109,20
DA:110,30
LF:57
LH:57
end_of_record
SF:/usr/include/c++/4.8/bits/basic_string.h
FN:272,_ZNSs12_Alloc_hiderD2Ev
FNDA:0,_ZNSs12_Alloc_hiderD2Ev
FNF:1
FNH:0
DA:272,0
LF:1
LH:0
end_of_record
SF:/usr/include/c++/4.8/bits/char_traits.h
FN:254,_ZNSt11char_traitsIcE7compareEPKcS2_m
FNDA:0,_ZNSt11char_traitsIcE7compareEPKcS2_m
FNF:1
FNH:0
DA:254,0
DA:255,0
LF:2
LH:0
end_of_record
SF:/usr/include/c++/4.8/bits/stl_algobase.h
FN:193,_ZSt3minImERKT_S2_S2_
FNDA:0,_ZSt3minImERKT_S2_S2_
FNF:1
FNH:0
DA:193,0
DA:198,0
DA:199,0
DA:200,0
LF:4
LH:0
end_of_record
SF:/usr/include/c++/4.8/ext/atomicity.h
FN:48,_ZN9__gnu_cxxL18__exchange_and_addEPVii
FN:65,_ZN9__gnu_cxxL25__exchange_and_add_singleEPii
FN:78,_ZN9__gnu_cxxL27__exchange_and_add_dispatchEPii
FNDA:0,_ZN9__gnu_cxxL18__exchange_and_addEPVii
FNDA:0,_ZN9__gnu_cxxL25__exchange_and_add_singleEPii
FNDA:0,_ZN9__gnu_cxxL27__exchange_and_add_dispatchEPii
FNF:3
FNH:0
DA:48,0
DA:49,0
DA:65,0
DA:67,0
DA:68,0
DA:69,0
DA:78,0
DA:81,0
DA:82,0
DA:84,0
LF:10
LH:0
end_of_record
SF:/usr/include/c++/4.8/ext/new_allocator.h
FN:79,_ZN9__gnu_cxx13new_allocatorIcEC2Ev
FN:81,_ZN9__gnu_cxx13new_allocatorIcEC2ERKS1_
FN:86,_ZN9__gnu_cxx13new_allocatorIcED2Ev
FNDA:0,_ZN9__gnu_cxx13new_allocatorIcEC2Ev
FNDA:0,_ZN9__gnu_cxx13new_allocatorIcEC2ERKS1_
FNDA:0,_ZN9__gnu_cxx13new_allocatorIcED2Ev
FNF:3
FNH:0
DA:79,0
DA:81,0
DA:86,0
LF:3
LH:0
end_of_record
SF:/usr/include/c++/4.8/iostream
DA:74,10
LF:1
LH:1
end_of_record
SF:/usr/include/x86_64-linux-gnu/c++/4.8/bits/gthr-default.h
FN:247,_ZL18__gthread_active_pv
FNDA:0,_ZL18__gthread_active_pv
FNF:1
FNH:0
DA:247,0
DA:251,0
LF:2
LH:0
end_of_record
SF:/usr/local/include/gtest/gtest-message.h
FN:85,_ZN7testing7MessageD2Ev
FNDA:0,_ZN7testing7MessageD2Ev
FNF:1
FNH:0
DA:85,0
LF:1
LH:0
end_of_record
SF:/usr/local/include/gtest/gtest.h
FN:256,_ZN7testing15AssertionResultD2Ev
FN:272,_ZN7testing15AssertionResultC2IbEERKT_PNS_8internal8EnableIfIXntsrNS5_21ImplicitlyConvertibleIS2_S0_EE5valueEE4typeE
FN:288,_ZNK7testing15AssertionResultcvbEv
FN:389,_ZN7testing4Test13SetUpTestCaseEv
FN:397,_ZN7testing4Test16TearDownTestCaseEv
FN:474,_ZN7testing4Test5SetupEv
FNDA:0,_ZN7testing15AssertionResultD2Ev
FNDA:0,_ZN7testing15AssertionResultC2IbEERKT_PNS_8internal8EnableIfIXntsrNS5_21ImplicitlyConvertibleIS2_S0_EE5valueEE4typeE
FNDA:0,_ZNK7testing15AssertionResultcvbEv
FNDA:0,_ZN7testing4Test13SetUpTestCaseEv
FNDA:0,_ZN7testing4Test16TearDownTestCaseEv
FNDA:0,_ZN7testing4Test5SetupEv
FNF:6
FNH:0
DA:256,0
DA:272,0
DA:277,0
DA:288,0
DA:389,0
DA:397,0
DA:474,0
LF:7
LH:0
end_of_record
SF:/usr/local/include/gtest/internal/gtest-internal.h
FN:447,_ZN7testing8internal9GetTypeIdI16JsonValoresTestsEEPKvv
FN:466,_ZN7testing8internal15TestFactoryBaseD0Ev
FN:466,_ZN7testing8internal15TestFactoryBaseD2Ev
FN:473,_ZN7testing8internal15TestFactoryBaseC2Ev
FN:482,_ZN7testing8internal15TestFactoryImplI51JsonValoresTests_testAgregarUnNumerolJsonArray_TestEC2Ev
FN:482,_ZN7testing8internal15TestFactoryImplI48JsonValoresTests_testJsonArrayComienzaVacio_TestED0Ev
FN:482,_ZN7testing8internal15TestFactoryImplI92JsonValoresTests_testAgregarVariosNumerosAlJsonArrayElUltimoEnAgregarseEsElDeMayorOrden_TestED2Ev
FN:482,_ZN7testing8internal15TestFactoryImplI92JsonValoresTests_testAgregarVariosNumerosAlJsonArrayElUltimoEnAgregarseEsElDeMayorOrden_TestED0Ev
FN:482,_ZN7testing8internal15TestFactoryImplI58JsonValoresTests_testAgregarVariasPalabrasAlJsonArray_TestED0Ev
FN:482,_ZN7testing8internal15TestFactoryImplI48JsonValoresTests_testJsonArrayComienzaVacio_TestED2Ev
FN:482,_ZN7testing8internal15TestFactoryImplI92JsonValoresTests_testAgregarVariosNumerosAlJsonArrayElUltimoEnAgregarseEsElDeMayorOrden_TestEC2Ev
FN:482,_ZN7testing8internal15TestFactoryImplI55JsonValoresTests_testAgregarUnJsonArrayAlJsonArray_TestED0Ev
FN:482,_ZN7testing8internal15TestFactoryImplI58JsonValoresTests_testAgregarVariasPalabrasAlJsonArray_TestEC2Ev
FN:482,_ZN7testing8internal15TestFactoryImplI55JsonValoresTests_testAgregarUnJsonArrayAlJsonArray_TestED2Ev
FN:482,_ZN7testing8internal15TestFactoryImplI51JsonValoresTests_testAgregarUnNumerolJsonArray_TestED0Ev
FN:482,_ZN7testing8internal15TestFactoryImplI48JsonValoresTests_testJsonArrayComienzaVacio_TestEC2Ev
FN:482,_ZN7testing8internal15TestFactoryImplI55JsonValoresTests_testAgregarUnJsonArrayAlJsonArray_TestEC2Ev
FN:482,_ZN7testing8internal15TestFactoryImplI51JsonValoresTests_testAgregarUnNumerolJsonArray_TestED2Ev
FN:482,_ZN7testing8internal15TestFactoryImplI58JsonValoresTests_testAgregarVariasPalabrasAlJsonArray_TestED2Ev
FN:482,_ZN7testing8internal15TestFactoryImplI54JsonValoresTests_testAgregarUnaPalabraAlJsonArray_TestEC2Ev
FN:482,_ZN7testing8internal15TestFactoryImplI54JsonValoresTests_testAgregarUnaPalabraAlJsonArray_TestED0Ev
FN:482,_ZN7testing8internal15TestFactoryImplI54JsonValoresTests_testAgregarUnaPalabraAlJsonArray_TestED2Ev
FN:484,_ZN7testing8internal15TestFactoryImplI55JsonValoresTests_testAgregarUnJsonArrayAlJsonArray_TestE10CreateTestEv
FN:484,_ZN7testing8internal15TestFactoryImplI51JsonValoresTests_testAgregarUnNumerolJsonArray_TestE10CreateTestEv
FN:484,_ZN7testing8internal15TestFactoryImplI58JsonValoresTests_testAgregarVariasPalabrasAlJsonArray_TestE10CreateTestEv
FN:484,_ZN7testing8internal15TestFactoryImplI48JsonValoresTests_testJsonArrayComienzaVacio_TestE10CreateTestEv
FN:484,_ZN7testing8internal15TestFactoryImplI92JsonValoresTests_testAgregarVariosNumerosAlJsonArrayElUltimoEnAgregarseEsElDeMayorOrden_TestE10CreateTestEv
FN:484,_ZN7testing8internal15TestFactoryImplI54JsonValoresTests_testAgregarUnaPalabraAlJsonArray_TestE10CreateTestEv
FN:504,_ZN7testing8internal12CodeLocationD2Ev
FN:505,_ZN7testing8internal12CodeLocationC2ERKSsi
FNDA:60,_ZN7testing8internal9GetTypeIdI16JsonValoresTestsEEPKvv
FNDA:0,_ZN7testing8internal15TestFactoryBaseD0Ev
FNDA:0,_ZN7testing8internal15TestFactoryBaseD2Ev
FNDA:0,_ZN7testing8internal15TestFactoryBaseC2Ev
FNDA:10,_ZN7testing8internal15TestFactoryImplI48JsonValoresTests_testJsonArrayComienzaVacio_TestED0Ev
FNDA:10,_ZN7testing8internal15TestFactoryImplI48JsonValoresTests_testJsonArrayComienzaVacio_TestED2Ev
FNDA:10,_ZN7testing8internal15TestFactoryImplI51JsonValoresTests_testAgregarUnNumerolJsonArray_TestED0Ev
FNDA:10,_ZN7testing8internal15TestFactoryImplI51JsonValoresTests_testAgregarUnNumerolJsonArray_TestED2Ev
FNDA:10,_ZN7testing8internal15TestFactoryImplI92JsonValoresTests_testAgregarVariosNumerosAlJsonArrayElUltimoEnAgregarseEsElDeMayorOrden_TestED0Ev
FNDA:10,_ZN7testing8internal15TestFactoryImplI92JsonValoresTests_testAgregarVariosNumerosAlJsonArrayElUltimoEnAgregarseEsElDeMayorOrden_TestED2Ev
FNDA:10,_ZN7testing8internal15TestFactoryImplI54JsonValoresTests_testAgregarUnaPalabraAlJsonArray_TestED0Ev
FNDA:10,_ZN7testing8internal15TestFactoryImplI54JsonValoresTests_testAgregarUnaPalabraAlJsonArray_TestED2Ev
FNDA:10,_ZN7testing8internal15TestFactoryImplI58JsonValoresTests_testAgregarVariasPalabrasAlJsonArray_TestED0Ev
FNDA:10,_ZN7testing8internal15TestFactoryImplI58JsonValoresTests_testAgregarVariasPalabrasAlJsonArray_TestED2Ev
FNDA:10,_ZN7testing8internal15TestFactoryImplI55JsonValoresTests_testAgregarUnJsonArrayAlJsonArray_TestED0Ev
FNDA:10,_ZN7testing8internal15TestFactoryImplI55JsonValoresTests_testAgregarUnJsonArrayAlJsonArray_TestED2Ev
FNDA:10,_ZN7testing8internal15TestFactoryImplI55JsonValoresTests_testAgregarUnJsonArrayAlJsonArray_TestEC2Ev
FNDA:10,_ZN7testing8internal15TestFactoryImplI58JsonValoresTests_testAgregarVariasPalabrasAlJsonArray_TestEC2Ev
FNDA:10,_ZN7testing8internal15TestFactoryImplI54JsonValoresTests_testAgregarUnaPalabraAlJsonArray_TestEC2Ev
FNDA:10,_ZN7testing8internal15TestFactoryImplI92JsonValoresTests_testAgregarVariosNumerosAlJsonArrayElUltimoEnAgregarseEsElDeMayorOrden_TestEC2Ev
FNDA:10,_ZN7testing8internal15TestFactoryImplI51JsonValoresTests_testAgregarUnNumerolJsonArray_TestEC2Ev
FNDA:10,_ZN7testing8internal15TestFactoryImplI48JsonValoresTests_testJsonArrayComienzaVacio_TestEC2Ev
FNDA:10,_ZN7testing8internal15TestFactoryImplI48JsonValoresTests_testJsonArrayComienzaVacio_TestE10CreateTestEv
FNDA:10,_ZN7testing8internal15TestFactoryImplI51JsonValoresTests_testAgregarUnNumerolJsonArray_TestE10CreateTestEv
FNDA:10,_ZN7testing8internal15TestFactoryImplI92JsonValoresTests_testAgregarVariosNumerosAlJsonArrayElUltimoEnAgregarseEsElDeMayorOrden_TestE10CreateTestEv
FNDA:10,_ZN7testing8internal15TestFactoryImplI54JsonValoresTests_testAgregarUnaPalabraAlJsonArray_TestE10CreateTestEv
FNDA:10,_ZN7testing8internal15TestFactoryImplI58JsonValoresTests_testAgregarVariasPalabrasAlJsonArray_TestE10CreateTestEv
FNDA:10,_ZN7testing8internal15TestFactoryImplI55JsonValoresTests_testAgregarUnJsonArrayAlJsonArray_TestE10CreateTestEv
FNDA:0,_ZN7testing8internal12CodeLocationD2Ev
FNDA:0,_ZN7testing8internal12CodeLocationC2ERKSsi
FNF:30
FNH:25
DA:447,60
DA:452,60
DA:466,0
DA:473,0
DA:482,180
DA:484,60
DA:504,0
DA:505,0
LF:8
LH:4
end_of_record
SF:/usr/local/include/gtest/internal/gtest-port.h
FN:1119,_ZN7testing8internal10scoped_ptrISsEC2EPSs
FN:1120,_ZN7testing8internal10scoped_ptrISsED2Ev
FN:1120,_ZN7testing8internal10scoped_ptrISt18basic_stringstreamIcSt11char_traitsIcESaIcEEED2Ev
FN:1132,_ZN7testing8internal10scoped_ptrISsE5resetEPSs
FN:1132,_ZN7testing8internal10scoped_ptrISt18basic_stringstreamIcSt11char_traitsIcESaIcEEE5resetEPS6_
FNDA:0,_ZN7testing8internal10scoped_ptrISsEC2EPSs
FNDA:0,_ZN7testing8internal10scoped_ptrISsED2Ev
FNDA:0,_ZN7testing8internal10scoped_ptrISt18basic_stringstreamIcSt11char_traitsIcESaIcEEED2Ev
FNDA:0,_ZN7testing8internal10scoped_ptrISt18basic_stringstreamIcSt11char_traitsIcESaIcEEE5resetEPS6_
FNDA:0,_ZN7testing8internal10scoped_ptrISsE5resetEPSs
FNF:5
FNH:0
DA:1119,0
DA:1120,0
DA:1132,0
DA:1133,0
DA:1134,0
DA:1135,0
DA:1137,0
DA:1139,0
LF:8
LH:0
end_of_record
TN:
SF:/home/diego/Desktop/taller2-appserver/ContenidoParaLasPruebas/TestCases/MensajeHTTPReplyTests.cpp
FN:10,_ZN20MensajeHTTPReplyTestD2Ev
FN:10,_ZN20MensajeHTTPReplyTestC2Ev
FN:10,_ZN20MensajeHTTPReplyTestD0Ev
FN:14,_ZN20MensajeHTTPReplyTest5SetUpEv
FN:44,_ZN20MensajeHTTPReplyTest13iniciarMg_strER6mg_strPKcm
FN:50,_ZN20MensajeHTTPReplyTest8TearDownEv
FN:65,_Z41__static_initialization_and_destruction_0ii
FN:65,_ZN64MensajeHTTPReplyTest_testObjetenerCodigoDelMensajeHTTPReply_TestD0Ev
FN:65,_ZN64MensajeHTTPReplyTest_testObjetenerCodigoDelMensajeHTTPReply_Test8TestBodyEv
FN:65,_ZN64MensajeHTTPReplyTest_testObjetenerCodigoDelMensajeHTTPReply_TestD2Ev
FN:65,_ZN64MensajeHTTPReplyTest_testObjetenerCodigoDelMensajeHTTPReply_TestC2Ev
FN:72,_ZN71MensajeHTTPReplyTest_testObtenerMensajeDeEstadoDelMensajeHTTPReply_TestD0Ev
FN:72,_ZN71MensajeHTTPReplyTest_testObtenerMensajeDeEstadoDelMensajeHTTPReply_TestC2Ev
FN:72,_ZN71MensajeHTTPReplyTest_testObtenerMensajeDeEstadoDelMensajeHTTPReply_Test8TestBodyEv
FN:72,_ZN71MensajeHTTPReplyTest_testObtenerMensajeDeEstadoDelMensajeHTTPReply_TestD2Ev
FN:79,_ZN62MensajeHTTPReplyTest_testObtenerHeaderDelMensajeHTTPReply_TestD0Ev
FN:79,_ZN62MensajeHTTPReplyTest_testObtenerHeaderDelMensajeHTTPReply_Test8TestBodyEv
FN:79,_ZN62MensajeHTTPReplyTest_testObtenerHeaderDelMensajeHTTPReply_TestC2Ev
FN:79,_ZN62MensajeHTTPReplyTest_testObtenerHeaderDelMensajeHTTPReply_TestD2Ev
FN:82,_GLOBAL__sub_I__ZN64MensajeHTTPReplyTest_testObjetenerCodigoDelMensajeHTTPReply_Test10test_info_E
FNDA:0,_ZN20MensajeHTTPReplyTestD0Ev
FNDA:30,_ZN20MensajeHTTPReplyTestD2Ev
FNDA:30,_ZN20MensajeHTTPReplyTestC2Ev
FNDA:30,_ZN20MensajeHTTPReplyTest5SetUpEv
FNDA:210,_ZN20MensajeHTTPReplyTest13iniciarMg_strER6mg_strPKcm
FNDA:30,_ZN20MensajeHTTPReplyTest8TearDownEv
FNDA:10,_ZN64MensajeHTTPReplyTest_testObjetenerCodigoDelMensajeHTTPReply_TestD0Ev
FNDA:10,_ZN64MensajeHTTPReplyTest_testObjetenerCodigoDelMensajeHTTPReply_TestD2Ev
FNDA:10,_ZN64MensajeHTTPReplyTest_testObjetenerCodigoDelMensajeHTTPReply_Test8TestBodyEv
FNDA:10,_ZN64MensajeHTTPReplyTest_testObjetenerCodigoDelMensajeHTTPReply_TestC2Ev
FNDA:10,_ZN71MensajeHTTPReplyTest_testObtenerMensajeDeEstadoDelMensajeHTTPReply_TestD0Ev
FNDA:10,_ZN71MensajeHTTPReplyTest_testObtenerMensajeDeEstadoDelMensajeHTTPReply_TestD2Ev
FNDA:10,_ZN71MensajeHTTPReplyTest_testObtenerMensajeDeEstadoDelMensajeHTTPReply_Test8TestBodyEv
FNDA:10,_ZN71MensajeHTTPReplyTest_testObtenerMensajeDeEstadoDelMensajeHTTPReply_TestC2Ev
FNDA:10,_ZN62MensajeHTTPReplyTest_testObtenerHeaderDelMensajeHTTPReply_TestD0Ev
FNDA:10,_ZN62MensajeHTTPReplyTest_testObtenerHeaderDelMensajeHTTPReply_TestD2Ev
FNDA:10,_ZN62MensajeHTTPReplyTest_testObtenerHeaderDelMensajeHTTPReply_Test8TestBodyEv
FNDA:10,_ZN62MensajeHTTPReplyTest_testObtenerHeaderDelMensajeHTTPReply_TestC2Ev
FNDA:10,_GLOBAL__sub_I__ZN64MensajeHTTPReplyTest_testObjetenerCodigoDelMensajeHTTPReply_Test10test_info_E
FNDA:10,_Z41__static_initialization_and_destruction_0ii
FNF:20
FNH:19
DA:10,60
DA:14,30
DA:18,30
DA:19,30
DA:20,30
DA:21,30
DA:22,30
DA:23,30
DA:24,30
DA:27,30
DA:28,30
DA:30,30
DA:31,30
DA:33,30
DA:34,30
DA:36,30
DA:37,30
DA:40,30
DA:42,30
DA:44,210
DA:45,210
DA:46,210
DA:47,210
DA:50,30
DA:51,30
DA:52,30
DA:65,50
DA:67,10
DA:72,50
DA:74,10
DA:79,50
DA:80,10
DA:81,10
DA:82,30
LF:34
LH:34
end_of_record
SF:/usr/include/c++/4.8/bits/allocator.h
FN:133,_ZSteqIcEbRKSaIT_ES3_
FNDA:0,_ZSteqIcEbRKSaIT_ES3_
FNF:1
FNH:0
DA:133,0
DA:134,0
LF:2
LH:0
end_of_record
SF:/usr/include/c++/4.8/bits/basic_string.h
FN:272,_ZNSs12_Alloc_hiderD2Ev
FN:1721,_ZNSs16_S_construct_auxIPcEES0_T_S1_RKSaIcESt12__false_type
FN:1743,_ZNSs12_S_constructIPcEES0_T_S1_RKSaIcE
FN:2507,_ZSteqIcSt11char_traitsIcESaIcEEbPKT_RKSbIS3_T0_T1_E
FNDA:0,_ZNSs12_Alloc_hiderD2Ev
FNDA:0,_ZNSs16_S_construct_auxIPcEES0_T_S1_RKSaIcESt12__false_type
FNDA:0,_ZNSs12_S_constructIPcEES0_T_S1_RKSaIcE
FNDA:0,_ZSteqIcSt11char_traitsIcESaIcEEbPKT_RKSbIS3_T0_T1_E
FNF:4
FNH:0
DA:272,0
DA:1721,0
DA:1725,0
DA:1743,0
DA:1746,0
DA:2507,0
DA:2509,0
LF:7
LH:0
end_of_record
SF:/usr/include/c++/4.8/bits/basic_string.tcc
FN:123,_ZNSs12_S_constructIPcEES0_T_S1_RKSaIcESt20forward_iterator_tag
FN:227,_ZNSsC2IPcEET_S1_RKSaIcE
FNDA:0,_ZNSs12_S_constructIPcEES0_T_S1_RKSaIcESt20forward_iterator_tag
FNDA:0,_ZNSsC2IPcEET_S1_RKSaIcE
FNF:2
FNH:0
DA:123,0
DA:128,0
DA:129,0
DA:132,0
DA:133,0
DA:136,0
DA:138,0
DA:140,0
DA:141,=====
DA:143,=====
DA:144,=====
DA:146,0
DA:147,0
DA:227,0
DA:229,0
DA:230,0
LF:16
LH:0
end_of_record
SF:/usr/include/c++/4.8/bits/char_traits.h
FN:242,_ZNSt11char_traitsIcE6assignERcRKc
FN:258,_ZNSt11char_traitsIcE6lengthEPKc
FN:270,_ZNSt11char_traitsIcE4copyEPcPKcm
FNDA:0,_ZNSt11char_traitsIcE6assignERcRKc
FNDA:0,_ZNSt11char_traitsIcE6lengthEPKc
FNDA:0,_ZNSt11char_traitsIcE4copyEPcPKcm
FNF:3
FNH:0
DA:242,0
DA:243,0
DA:258,0
DA:259,0
DA:270,0
DA:271,0
LF:6
LH:0
end_of_record
SF:/usr/include/c++/4.8/bits/ios_base.h
FN:123,_ZStorSt13_Ios_OpenmodeS_
FN:163,_ZStorSt12_Ios_IostateS_
FNDA:0,_ZStorSt13_Ios_OpenmodeS_
FNDA:0,_ZStorSt12_Ios_IostateS_
FNF:2
FNH:0
DA:123,0
DA:124,0
DA:163,0
DA:164,0
LF:4
LH:0
end_of_record
SF:/usr/include/c++/4.8/bits/stl_iterator_base_funcs.h
FN:90,_ZSt10__distanceIPcENSt15iterator_traitsIT_E15difference_typeES2_S2_St26random_access_iterator_tag
FN:114,_ZSt8distanceIPcENSt15iterator_traitsIT_E15difference_typeES2_S2_
FNDA:0,_ZSt10__distanceIPcENSt15iterator_traitsIT_E15difference_typeES2_S2_St26random_access_iterator_tag
FNDA:0,_ZSt8distanceIPcENSt15iterator_traitsIT_E15difference_typeES2_S2_
FNF:2
FNH:0
DA:90,0
DA:96,0
DA:114,0
DA:118,0
LF:4
LH:0
end_of_record
SF:/usr/include/c++/4.8/bits/stl_iterator_base_types.h
FN:201,_ZSt19__iterator_categoryIPcENSt15iterator_traitsIT_E17iterator_categoryERKS2_
FNDA:0,_ZSt19__iterator_categoryIPcENSt15iterator_traitsIT_E17iterator_categoryERKS2_
FNF:1
FNH:0
DA:201,0
DA:202,0
LF:2
LH:0
end_of_record
SF:/usr/include/c++/4.8/ext/atomicity.h
FN:48,_ZN9__gnu_cxxL18__exchange_and_addEPVii
FN:65,_ZN9__gnu_cxxL25__exchange_and_add_singleEPii
FN:78,_ZN9__gnu_cxxL27__exchange_and_add_dispatchEPii
FNDA:0,_ZN9__gnu_cxxL18__exchange_and_addEPVii
FNDA:0,_ZN9__gnu_cxxL25__exchange_and_add_singleEPii
FNDA:0,_ZN9__gnu_cxxL27__exchange_and_add_dispatchEPii
FNF:3
FNH:0
DA:48,0
DA:49,0
DA:65,0
DA:67,0
DA:68,0
DA:69,0
DA:78,0
DA:81,0
DA:82,0
DA:84,0
LF:10
LH:0
end_of_record
SF:/usr/include/c++/4.8/ext/new_allocator.h
FN:79,_ZN9__gnu_cxx13new_allocatorIcEC2Ev
FN:81,_ZN9__gnu_cxx13new_allocatorIcEC2ERKS1_
FN:86,_ZN9__gnu_cxx13new_allocatorIcED2Ev
FNDA:0,_ZN9__gnu_cxx13new_allocatorIcEC2Ev
FNDA:0,_ZN9__gnu_cxx13new_allocatorIcEC2ERKS1_
FNDA:0,_ZN9__gnu_cxx13new_allocatorIcED2Ev
FNF:3
FNH:0
DA:79,0
DA:81,0
DA:86,0
LF:3
LH:0
end_of_record
SF:/usr/include/c++/4.8/ext/type_traits.h
FN:150,_ZN9__gnu_cxx17__is_null_pointerIcEEbPT_
FNDA:0,_ZN9__gnu_cxx17__is_null_pointerIcEEbPT_
FNF:1
FNH:0
DA:150,0
DA:151,0
LF:2
LH:0
end_of_record
SF:/usr/include/c++/4.8/iostream
DA:74,10
LF:1
LH:1
end_of_record
SF:/usr/include/c++/4.8/sstream
FN:64,_ZNSt15basic_stringbufIcSt11char_traitsIcESaIcEED2Ev
FN:64,_ZNSt15basic_stringbufIcSt11char_traitsIcESaIcEED0Ev
FNDA:0,_ZNSt15basic_stringbufIcSt11char_traitsIcESaIcEED0Ev
FNDA:0,_ZNSt15basic_stringbufIcSt11char_traitsIcESaIcEED2Ev
FNF:2
FNH:0
DA:64,0
LF:1
LH:0
end_of_record
SF:/usr/include/x86_64-linux-gnu/c++/4.8/bits/gthr-default.h
FN:247,_ZL18__gthread_active_pv
FNDA:0,_ZL18__gthread_active_pv
FNF:1
FNH:0
DA:247,0
DA:251,0
LF:2
LH:0
end_of_record
SF:/usr/local/include/gtest/gtest-message.h
FN:85,_ZN7testing7MessageD2Ev
FNDA:0,_ZN7testing7MessageD2Ev
FNF:1
FNH:0
DA:85,0
LF:1
LH:0
end_of_record
SF:/usr/local/include/gtest/gtest-printers.h
FN:222,_ZN16testing_internal26DefaultPrintNonContainerToIiEEvRKT_PSo
FN:275,_ZN7testing8internal19FormatForComparisonISsA9_cE6FormatERKSs
FN:275,_ZN7testing8internal19FormatForComparisonISsA7_cE6FormatERKSs
FN:275,_ZN7testing8internal19FormatForComparisonIiiE6FormatERKi
FN:284,_ZN7testing8internal19FormatForComparisonIA9_cSsE6FormatEPKc
FN:284,_ZN7testing8internal19FormatForComparisonIA7_cSsE6FormatEPKc
FN:321,_ZN7testing8internal19FormatForComparisonIPKcSsE6FormatES3_
FN:349,_ZN7testing8internal33FormatForComparisonFailureMessageIA9_cSsEESsRKT_RKT0_
FN:349,_ZN7testing8internal33FormatForComparisonFailureMessageIA7_cSsEESsRKT_RKT0_
FN:349,_ZN7testing8internal33FormatForComparisonFailureMessageIiiEESsRKT_RKT0_
FN:349,_ZN7testing8internal33FormatForComparisonFailureMessageISsA9_cEESsRKT_RKT0_
FN:349,_ZN7testing8internal33FormatForComparisonFailureMessageISsA7_cEESsRKT_RKT0_
FN:436,_ZN7testing8internal14DefaultPrintToIiEEvcNS0_13bool_constantILb0EEERKT_PSo
FN:454,_ZN7testing8internal7PrintToIiEEvRKT_PSo
FN:565,_ZN7testing8internal7PrintToERKSsPSo
FN:698,_ZN7testing8internal16UniversalPrinterIiE5PrintERKiPSo
FN:698,_ZN7testing8internal16UniversalPrinterISsE5PrintERKSsPSo
FN:783,_ZN7testing8internal21UniversalTersePrinterISsE5PrintERKSsPSo
FN:783,_ZN7testing8internal21UniversalTersePrinterIiE5PrintERKiPSo
FN:804,_ZN7testing8internal21UniversalTersePrinterIPKcE5PrintES3_PSo
FN:852,_ZN7testing8internal14UniversalPrintISsEEvRKT_PSo
FN:852,_ZN7testing8internal14UniversalPrintIiEEvRKT_PSo
FN:980,_ZN7testing13PrintToStringIiEESsRKT_
FN:980,_ZN7testing13PrintToStringISsEESsRKT_
FN:980,_ZN7testing13PrintToStringIPKcEESsRKT_
FNDA:0,_ZN16testing_internal26DefaultPrintNonContainerToIiEEvRKT_PSo
FNDA:0,_ZN7testing8internal19FormatForComparisonISsA7_cE6FormatERKSs
FNDA:0,_ZN7testing8internal19FormatForComparisonISsA9_cE6FormatERKSs
FNDA:0,_ZN7testing8internal19FormatForComparisonIiiE6FormatERKi
FNDA:0,_ZN7testing8internal19FormatForComparisonIA7_cSsE6FormatEPKc
FNDA:0,_ZN7testing8internal19FormatForComparisonIA9_cSsE6FormatEPKc
FNDA:0,_ZN7testing8internal19FormatForComparisonIPKcSsE6FormatES3_
FNDA:0,_ZN7testing8internal33FormatForComparisonFailureMessageISsA7_cEESsRKT_RKT0_
FNDA:0,_ZN7testing8internal33FormatForComparisonFailureMessageIA7_cSsEESsRKT_RKT0_
FNDA:0,_ZN7testing8internal33FormatForComparisonFailureMessageISsA9_cEESsRKT_RKT0_
FNDA:0,_ZN7testing8internal33FormatForComparisonFailureMessageIA9_cSsEESsRKT_RKT0_
FNDA:0,_ZN7testing8internal33FormatForComparisonFailureMessageIiiEESsRKT_RKT0_
FNDA:0,_ZN7testing8internal14DefaultPrintToIiEEvcNS0_13bool_constantILb0EEERKT_PSo
FNDA:0,_ZN7testing8internal7PrintToIiEEvRKT_PSo
FNDA:0,_ZN7testing8internal7PrintToERKSsPSo
FNDA:0,_ZN7testing8internal16UniversalPrinterIiE5PrintERKiPSo
FNDA:0,_ZN7testing8internal16UniversalPrinterISsE5PrintERKSsPSo
FNDA:0,_ZN7testing8internal21UniversalTersePrinterISsE5PrintERKSsPSo
FNDA:0,_ZN7testing8internal21UniversalTersePrinterIiE5PrintERKiPSo
FNDA:0,_ZN7testing8internal21UniversalTersePrinterIPKcE5PrintES3_PSo
FNDA:0,_ZN7testing8internal14UniversalPrintIiEEvRKT_PSo
FNDA:0,_ZN7testing8internal14UniversalPrintISsEEvRKT_PSo
FNDA:0,_ZN7testing13PrintToStringISsEESsRKT_
FNDA:0,_ZN7testing13PrintToStringIiEESsRKT_
FNDA:0,_ZN7testing13PrintToStringIPKcEESsRKT_
FNF:25
FNH:0
DA:222,0
DA:249,0
DA:250,0
DA:275,0
DA:276,0
DA:284,0
DA:285,0
DA:321,0
DA:349,0
DA:351,0
DA:436,0
DA:439,0
DA:440,0
DA:454,0
DA:477,0
DA:478,0
DA:565,0
DA:566,0
DA:567,0
DA:698,0
DA:707,0
DA:708,0
DA:783,0
DA:784,0
DA:785,0
DA:804,0
DA:805,0
DA:806,0
DA:808,0
DA:810,0
DA:852,0
DA:856,0
DA:857,0
DA:980,0
DA:981,0
DA:982,0
DA:983,0
LF:37
LH:0
end_of_record
SF:/usr/local/include/gtest/gtest.h
FN:256,_ZN7testing15AssertionResultD2Ev
FN:288,_ZNK7testing15AssertionResultcvbEv
FN:297,_ZNK7testing15AssertionResult7messageEv
FN:302,_ZNK7testing15AssertionResult15failure_messageEv
FN:389,_ZN7testing4Test13SetUpTestCaseEv
FN:397,_ZN7testing4Test16TearDownTestCaseEv
FN:474,_ZN7testing4Test5SetupEv
FN:1375,_ZN7testing8internal18CmpHelperEQFailureIA7_cSsEENS_15AssertionResultEPKcS5_RKT_RKT0_
FN:1375,_ZN7testing8internal18CmpHelperEQFailureIA9_cSsEENS_15AssertionResultEPKcS5_RKT_RKT0_
FN:1375,_ZN7testing8internal18CmpHelperEQFailureIiiEENS_15AssertionResultEPKcS4_RKT_RKT0_
FN:1387,_ZN7testing8internal11CmpHelperEQIiiEENS_15AssertionResultEPKcS4_RKT_RKT0_
FN:1387,_ZN7testing8internal11CmpHelperEQIA9_cSsEENS_15AssertionResultEPKcS5_RKT_RKT0_
FN:1387,_ZN7testing8internal11CmpHelperEQIA7_cSsEENS_15AssertionResultEPKcS5_RKT_RKT0_
FN:1417,_ZN7testing8internal8EqHelperILb0EE7CompareIA7_cSsEENS_15AssertionResultEPKcS7_RKT_RKT0_
FN:1417,_ZN7testing8internal8EqHelperILb0EE7CompareIiiEENS_15AssertionResultEPKcS6_RKT_RKT0_
FN:1417,_ZN7testing8internal8EqHelperILb0EE7CompareIA9_cSsEENS_15AssertionResultEPKcS7_RKT_RKT0_
FNDA:0,_ZN7testing15AssertionResultD2Ev
FNDA:0,_ZNK7testing15AssertionResultcvbEv
FNDA:0,_ZNK7testing15AssertionResult7messageEv
FNDA:0,_ZNK7testing15AssertionResult15failure_messageEv
FNDA:0,_ZN7testing4Test13SetUpTestCaseEv
FNDA:0,_ZN7testing4Test16TearDownTestCaseEv
FNDA:0,_ZN7testing4Test5SetupEv
FNDA:0,_ZN7testing8internal18CmpHelperEQFailureIA7_cSsEENS_15AssertionResultEPKcS5_RKT_RKT0_
FNDA:0,_ZN7testing8internal18CmpHelperEQFailureIA9_cSsEENS_15AssertionResultEPKcS5_RKT_RKT0_
FNDA:0,_ZN7testing8internal18CmpHelperEQFailureIiiEENS_15AssertionResultEPKcS4_RKT_RKT0_
FNDA:0,_ZN7testing8internal11CmpHelperEQIA7_cSsEENS_15AssertionResultEPKcS5_RKT_RKT0_
FNDA:10,_ZN7testing8internal11CmpHelperEQIA9_cSsEENS_15AssertionResultEPKcS5_RKT_RKT0_
FNDA:10,_ZN7testing8internal11CmpHelperEQIiiEENS_15AssertionResultEPKcS4_RKT_RKT0_
FNDA:0,_ZN7testing8internal8EqHelperILb0EE7CompareIA7_cSsEENS_15AssertionResultEPKcS7_RKT_RKT0_
FNDA:10,_ZN7testing8internal8EqHelperILb0EE7CompareIA9_cSsEENS_15AssertionResultEPKcS7_RKT_RKT0_
FNDA:10,_ZN7testing8internal8EqHelperILb0EE7CompareIiiEENS_15AssertionResultEPKcS6_RKT_RKT0_
FNF:16
FNH:4
DA:256,0
DA:288,0
DA:297,0
DA:298,0
DA:302,0
DA:389,0
DA:397,0
DA:474,0
DA:1375,0
DA:1382,0
DA:1387,20
DA:1392,20
DA:1393,20
DA:1397,0
DA:1417,20
DA:1421,20
LF:16
LH:5
end_of_record
SF:/usr/local/include/gtest/internal/gtest-internal.h
FN:447,_ZN7testing8internal9GetTypeIdI20MensajeHTTPReplyTestEEPKvv
FN:466,_ZN7testing8internal15TestFactoryBaseD2Ev
FN:466,_ZN7testing8internal15TestFactoryBaseD0Ev
FN:473,_ZN7testing8internal15TestFactoryBaseC2Ev
FN:482,_ZN7testing8internal15TestFactoryImplI64MensajeHTTPReplyTest_testObjetenerCodigoDelMensajeHTTPReply_TestED2Ev
FN:482,_ZN7testing8internal15TestFactoryImplI62MensajeHTTPReplyTest_testObtenerHeaderDelMensajeHTTPReply_TestEC2Ev
FN:482,_ZN7testing8internal15TestFactoryImplI64MensajeHTTPReplyTest_testObjetenerCodigoDelMensajeHTTPReply_TestED0Ev
FN:482,_ZN7testing8internal15TestFactoryImplI71MensajeHTTPReplyTest_testObtenerMensajeDeEstadoDelMensajeHTTPReply_TestEC2Ev
FN:482,_ZN7testing8internal15TestFactoryImplI71MensajeHTTPReplyTest_testObtenerMensajeDeEstadoDelMensajeHTTPReply_TestED0Ev
FN:482,_ZN7testing8internal15TestFactoryImplI62MensajeHTTPReplyTest_testObtenerHeaderDelMensajeHTTPReply_TestED0Ev
FN:482,_ZN7testing8internal15TestFactoryImplI64MensajeHTTPReplyTest_testObjetenerCodigoDelMensajeHTTPReply_TestEC2Ev
FN:482,_ZN7testing8internal15TestFactoryImplI62MensajeHTTPReplyTest_testObtenerHeaderDelMensajeHTTPReply_TestED2Ev
FN:482,_ZN7testing8internal15TestFactoryImplI71MensajeHTTPReplyTest_testObtenerMensajeDeEstadoDelMensajeHTTPReply_TestED2Ev
FN:484,_ZN7testing8internal15TestFactoryImplI64MensajeHTTPReplyTest_testObjetenerCodigoDelMensajeHTTPReply_TestE10CreateTestEv
FN:484,_ZN7testing8internal15TestFactoryImplI62MensajeHTTPReplyTest_testObtenerHeaderDelMensajeHTTPReply_TestE10CreateTestEv
FN:484,_ZN7testing8internal15TestFactoryImplI71MensajeHTTPReplyTest_testObtenerMensajeDeEstadoDelMensajeHTTPReply_TestE10CreateTestEv
FN:504,_ZN7testing8internal12CodeLocationD2Ev
FN:505,_ZN7testing8internal12CodeLocationC2ERKSsi
FN:940,_ZN7testing8internal15IsContainerTestIiEEcl
FNDA:30,_ZN7testing8internal9GetTypeIdI20MensajeHTTPReplyTestEEPKvv
FNDA:0,_ZN7testing8internal15TestFactoryBaseD0Ev
FNDA:0,_ZN7testing8internal15TestFactoryBaseD2Ev
FNDA:0,_ZN7testing8internal15TestFactoryBaseC2Ev
FNDA:10,_ZN7testing8internal15TestFactoryImplI64MensajeHTTPReplyTest_testObjetenerCodigoDelMensajeHTTPReply_TestED0Ev
FNDA:10,_ZN7testing8internal15TestFactoryImplI64MensajeHTTPReplyTest_testObjetenerCodigoDelMensajeHTTPReply_TestED2Ev
FNDA:10,_ZN7testing8internal15TestFactoryImplI71MensajeHTTPReplyTest_testObtenerMensajeDeEstadoDelMensajeHTTPReply_TestED0Ev
FNDA:10,_ZN7testing8internal15TestFactoryImplI71MensajeHTTPReplyTest_testObtenerMensajeDeEstadoDelMensajeHTTPReply_TestED2Ev
FNDA:10,_ZN7testing8internal15TestFactoryImplI62MensajeHTTPReplyTest_testObtenerHeaderDelMensajeHTTPReply_TestED0Ev
FNDA:10,_ZN7testing8internal15TestFactoryImplI62MensajeHTTPReplyTest_testObtenerHeaderDelMensajeHTTPReply_TestED2Ev
FNDA:10,_ZN7testing8internal15TestFactoryImplI62MensajeHTTPReplyTest_testObtenerHeaderDelMensajeHTTPReply_TestEC2Ev
FNDA:10,_ZN7testing8internal15TestFactoryImplI71MensajeHTTPReplyTest_testObtenerMensajeDeEstadoDelMensajeHTTPReply_TestEC2Ev
FNDA:10,_ZN7testing8internal15TestFactoryImplI64MensajeHTTPReplyTest_testObjetenerCodigoDelMensajeHTTPReply_TestEC2Ev
FNDA:10,_ZN7testing8internal15TestFactoryImplI64MensajeHTTPReplyTest_testObjetenerCodigoDelMensajeHTTPReply_TestE10CreateTestEv
FNDA:10,_ZN7testing8internal15TestFactoryImplI71MensajeHTTPReplyTest_testObtenerMensajeDeEstadoDelMensajeHTTPReply_TestE10CreateTestEv
FNDA:10,_ZN7testing8internal15TestFactoryImplI62MensajeHTTPReplyTest_testObtenerHeaderDelMensajeHTTPReply_TestE10CreateTestEv
FNDA:0,_ZN7testing8internal12CodeLocationD2Ev
FNDA:0,_ZN7testing8internal12CodeLocationC2ERKSsi
FNDA:0,_ZN7testing8internal15IsContainerTestIiEEcl
FNF:19
FNH:13
DA:447,30
DA:452,30
DA:466,0
DA:473,0
DA:482,90
DA:484,30
DA:504,0
DA:505,0
DA:940,0
LF:9
LH:4
end_of_record
SF:/usr/local/include/gtest/internal/gtest-port.h
FN:1120,_ZN7testing8internal10scoped_ptrISt18basic_stringstreamIcSt11char_traitsIcESaIcEEED2Ev
FN:1120,_ZN7testing8internal10scoped_ptrISsED2Ev
FN:1123,_ZNK7testing8internal10scoped_ptrISsEptEv
FN:1124,_ZNK7testing8internal10scoped_ptrISsE3getEv
FN:1132,_ZN7testing8internal10scoped_ptrISsE5resetEPSs
FN:1132,_ZN7testing8internal10scoped_ptrISt18basic_stringstreamIcSt11char_traitsIcESaIcEEE5resetEPS6_
FNDA:0,_ZN7testing8internal10scoped_ptrISsED2Ev
FNDA:0,_ZN7testing8internal10scoped_ptrISt18basic_stringstreamIcSt11char_traitsIcESaIcEEED2Ev
FNDA:0,_ZNK7testing8internal10scoped_ptrISsEptEv
FNDA:0,_ZNK7testing8internal10scoped_ptrISsE3getEv
FNDA:0,_ZN7testing8internal10scoped_ptrISt18basic_stringstreamIcSt11char_traitsIcESaIcEEE5resetEPS6_
FNDA:0,_ZN7testing8internal10scoped_ptrISsE5resetEPSs
FNF:6
FNH:0
DA:1120,0
DA:1123,0
DA:1124,0
DA:1132,0
DA:1133,0
DA:1134,0
DA:1135,0
DA:1137,0
DA:1139,0
LF:9
LH:0
end_of_record
TN:
SF:/home/diego/Desktop/taller2-appserver/ContenidoParaLasPruebas/TestCases/BaseDeDatosTests.cpp
FN:12,_ZN15BaseDeDatosTestD2Ev
FN:12,_ZN15BaseDeDatosTestD0Ev
FN:12,_ZN15BaseDeDatosTestC2Ev
FN:21,_ZN15BaseDeDatosTest5SetUpEv
FN:34,_ZN15BaseDeDatosTest8TearDownEv
FN:54,_ZN60BaseDeDatosTest_testAgregarUnaClaveValorNuevaYObtenerla_TestD2Ev
FN:54,_ZN60BaseDeDatosTest_testAgregarUnaClaveValorNuevaYObtenerla_TestC2Ev
FN:54,_Z41__static_initialization_and_destruction_0ii
FN:54,_ZN60BaseDeDatosTest_testAgregarUnaClaveValorNuevaYObtenerla_Test8TestBodyEv
FN:54,_ZN60BaseDeDatosTest_testAgregarUnaClaveValorNuevaYObtenerla_TestD0Ev
FN:63,_ZN99BaseDeDatosTest_AlHacerDosVecesUnPutConLaMismaClaveElValorAlmacenadoDeberiaSerElUltimoGuardado_TestC2Ev
FN:63,_ZN99BaseDeDatosTest_AlHacerDosVecesUnPutConLaMismaClaveElValorAlmacenadoDeberiaSerElUltimoGuardado_TestD0Ev
FN:63,_ZN99BaseDeDatosTest_AlHacerDosVecesUnPutConLaMismaClaveElValorAlmacenadoDeberiaSerElUltimoGuardado_Test8TestBodyEv
FN:63,_ZN99BaseDeDatosTest_AlHacerDosVecesUnPutConLaMismaClaveElValorAlmacenadoDeberiaSerElUltimoGuardado_TestD2Ev
FN:73,_ZN87BaseDeDatosTest_testAlPreguntarPorLaExistenciaDeUnaClaveInexistenteDeberiaDarFalse_TestD0Ev
FN:73,_ZN87BaseDeDatosTest_testAlPreguntarPorLaExistenciaDeUnaClaveInexistenteDeberiaDarFalse_TestC2Ev
FN:73,_ZN87BaseDeDatosTest_testAlPreguntarPorLaExistenciaDeUnaClaveInexistenteDeberiaDarFalse_Test8TestBodyEv
FN:73,_ZN87BaseDeDatosTest_testAlPreguntarPorLaExistenciaDeUnaClaveInexistenteDeberiaDarFalse_TestD2Ev
FN:80,_ZN50BaseDeDatosTest_existenciaDeUnaClaveExistente_TestD2Ev
FN:80,_ZN50BaseDeDatosTest_existenciaDeUnaClaveExistente_TestC2Ev
FN:80,_ZN50BaseDeDatosTest_existenciaDeUnaClaveExistente_Test8TestBodyEv
FN:80,_ZN50BaseDeDatosTest_existenciaDeUnaClaveExistente_TestD0Ev
FN:88,_ZN84BaseDeDatosTest_testObtenerElValorDeUnaClaveInexistenteDebeDevolverUnValorVacio_TestC2Ev
FN:88,_ZN84BaseDeDatosTest_testObtenerElValorDeUnaClaveInexistenteDebeDevolverUnValorVacio_Test8TestBodyEv
FN:88,_ZN84BaseDeDatosTest_testObtenerElValorDeUnaClaveInexistenteDebeDevolverUnValorVacio_TestD0Ev
FN:88,_ZN84BaseDeDatosTest_testObtenerElValorDeUnaClaveInexistenteDebeDevolverUnValorVacio_TestD2Ev
FN:91,_GLOBAL__sub_I__ZN60BaseDeDatosTest_testAgregarUnaClaveValorNuevaYObtenerla_Test10test_info_E
FNDA:0,_ZN15BaseDeDatosTestD0Ev
FNDA:50,_ZN15BaseDeDatosTestD2Ev
FNDA:50,_ZN15BaseDeDatosTestC2Ev
FNDA:50,_ZN15BaseDeDatosTest5SetUpEv
FNDA:50,_ZN15BaseDeDatosTest8TearDownEv
FNDA:10,_ZN60BaseDeDatosTest_testAgregarUnaClaveValorNuevaYObtenerla_TestD0Ev
FNDA:10,_ZN60BaseDeDatosTest_testAgregarUnaClaveValorNuevaYObtenerla_TestD2Ev
FNDA:10,_ZN60BaseDeDatosTest_testAgregarUnaClaveValorNuevaYObtenerla_Test8TestBodyEv
FNDA:10,_ZN60BaseDeDatosTest_testAgregarUnaClaveValorNuevaYObtenerla_TestC2Ev
FNDA:10,_ZN99BaseDeDatosTest_AlHacerDosVecesUnPutConLaMismaClaveElValorAlmacenadoDeberiaSerElUltimoGuardado_TestD0Ev
FNDA:10,_ZN99BaseDeDatosTest_AlHacerDosVecesUnPutConLaMismaClaveElValorAlmacenadoDeberiaSerElUltimoGuardado_TestD2Ev
FNDA:10,_ZN99BaseDeDatosTest_AlHacerDosVecesUnPutConLaMismaClaveElValorAlmacenadoDeberiaSerElUltimoGuardado_Test8TestBodyEv
FNDA:10,_ZN99BaseDeDatosTest_AlHacerDosVecesUnPutConLaMismaClaveElValorAlmacenadoDeberiaSerElUltimoGuardado_TestC2Ev
FNDA:10,_ZN87BaseDeDatosTest_testAlPreguntarPorLaExistenciaDeUnaClaveInexistenteDeberiaDarFalse_TestD0Ev
FNDA:10,_ZN87BaseDeDatosTest_testAlPreguntarPorLaExistenciaDeUnaClaveInexistenteDeberiaDarFalse_TestD2Ev
FNDA:10,_ZN87BaseDeDatosTest_testAlPreguntarPorLaExistenciaDeUnaClaveInexistenteDeberiaDarFalse_Test8TestBodyEv
FNDA:10,_ZN87BaseDeDatosTest_testAlPreguntarPorLaExistenciaDeUnaClaveInexistenteDeberiaDarFalse_TestC2Ev
FNDA:10,_ZN50BaseDeDatosTest_existenciaDeUnaClaveExistente_TestD0Ev
FNDA:10,_ZN50BaseDeDatosTest_existenciaDeUnaClaveExistente_TestD2Ev
FNDA:10,_ZN50BaseDeDatosTest_existenciaDeUnaClaveExistente_Test8TestBodyEv
FNDA:10,_ZN50BaseDeDatosTest_existenciaDeUnaClaveExistente_TestC2Ev
FNDA:10,_ZN84BaseDeDatosTest_testObtenerElValorDeUnaClaveInexistenteDebeDevolverUnValorVacio_TestD0Ev
FNDA:10,_ZN84BaseDeDatosTest_testObtenerElValorDeUnaClaveInexistenteDebeDevolverUnValorVacio_TestD2Ev
FNDA:10,_ZN84BaseDeDatosTest_testObtenerElValorDeUnaClaveInexistenteDebeDevolverUnValorVacio_Test8TestBodyEv
FNDA:10,_ZN84BaseDeDatosTest_testObtenerElValorDeUnaClaveInexistenteDebeDevolverUnValorVacio_TestC2Ev
FNDA:10,_GLOBAL__sub_I__ZN60BaseDeDatosTest_testAgregarUnaClaveValorNuevaYObtenerla_Test10test_info_E
FNDA:10,_Z41__static_initialization_and_destruction_0ii
FNF:27
FNH:26
DA:12,100
DA:21,50
DA:22,50
DA:23,50
DA:24,50
DA:25,50
DA:26,50
DA:34,50
DA:35,50
DA:36,50
DA:54,50
DA:55,10
DA:56,10
DA:63,50
DA:65,10
DA:66,10
DA:68,10
DA:73,50
DA:74,10
DA:75,10
DA:80,50
DA:82,10
DA:83,10
DA:88,50
DA:89,10
DA:90,10
DA:91,30
LF:27
LH:27
end_of_record
SF:/usr/include/c++/4.8/bits/allocator.h
FN:133,_ZSteqIcEbRKSaIT_ES3_
FNDA:0,_ZSteqIcEbRKSaIT_ES3_
FNF:1
FNH:0
DA:133,0
DA:134,0
LF:2
LH:0
end_of_record
SF:/usr/include/c++/4.8/bits/basic_string.h
FN:272,_ZNSs12_Alloc_hiderD2Ev
FN:1721,_ZNSs16_S_construct_auxIPcEES0_T_S1_RKSaIcESt12__false_type
FN:1743,_ZNSs12_S_constructIPcEES0_T_S1_RKSaIcE
FN:2493,_ZSteqIcEN9__gnu_cxx11__enable_ifIXsrSt9__is_charIT_E7__valueEbE6__typeERKSbIS3_St11char_traitsIS3_ESaIS3_EESC_
FN:2507,_ZSteqIcSt11char_traitsIcESaIcEEbPKT_RKSbIS3_T0_T1_E
FNDA:0,_ZNSs12_Alloc_hiderD2Ev
FNDA:0,_ZNSs16_S_construct_auxIPcEES0_T_S1_RKSaIcESt12__false_type
FNDA:0,_ZNSs12_S_constructIPcEES0_T_S1_RKSaIcE
FNDA:0,_ZSteqIcEN9__gnu_cxx11__enable_ifIXsrSt9__is_charIT_E7__valueEbE6__typeERKSbIS3_St11char_traitsIS3_ESaIS3_EESC_
FNDA:0,_ZSteqIcSt11char_traitsIcESaIcEEbPKT_RKSbIS3_T0_T1_E
FNF:5
FNH:0
DA:272,0
DA:1721,0
DA:1725,0
DA:1743,0
DA:1746,0
DA:2493,0
DA:2495,0
DA:2497,0
DA:2507,0
DA:2509,0
LF:10
LH:0
end_of_record
SF:/usr/include/c++/4.8/bits/basic_string.tcc
FN:123,_ZNSs12_S_constructIPcEES0_T_S1_RKSaIcESt20forward_iterator_tag
FN:227,_ZNSsC2IPcEET_S1_RKSaIcE
FNDA:0,_ZNSs12_S_constructIPcEES0_T_S1_RKSaIcESt20forward_iterator_tag
FNDA:0,_ZNSsC2IPcEET_S1_RKSaIcE
FNF:2
FNH:0
DA:123,0
DA:128,0
DA:129,0
DA:132,0
DA:133,0
DA:136,0
DA:138,0
DA:140,0
DA:141,=====
DA:143,=====
DA:144,=====
DA:146,0
DA:147,0
DA:227,0
DA:229,0
DA:230,0
LF:16
LH:0
end_of_record
SF:/usr/include/c++/4.8/bits/char_traits.h
FN:242,_ZNSt11char_traitsIcE6assignERcRKc
FN:254,_ZNSt11char_traitsIcE7compareEPKcS2_m
FN:258,_ZNSt11char_traitsIcE6lengthEPKc
FN:270,_ZNSt11char_traitsIcE4copyEPcPKcm
FNDA:0,_ZNSt11char_traitsIcE6assignERcRKc
FNDA:0,_ZNSt11char_traitsIcE7compareEPKcS2_m
FNDA:0,_ZNSt11char_traitsIcE6lengthEPKc
FNDA:0,_ZNSt11char_traitsIcE4copyEPcPKcm
FNF:4
FNH:0
DA:242,0
DA:243,0
DA:254,0
DA:255,0
DA:258,0
DA:259,0
DA:270,0
DA:271,0
LF:8
LH:0
end_of_record
SF:/usr/include/c++/4.8/bits/ios_base.h
FN:123,_ZStorSt13_Ios_OpenmodeS_
FN:163,_ZStorSt12_Ios_IostateS_
FNDA:0,_ZStorSt13_Ios_OpenmodeS_
FNDA:0,_ZStorSt12_Ios_IostateS_
FNF:2
FNH:0
DA:123,0
DA:124,0
DA:163,0
DA:164,0
LF:4
LH:0
end_of_record
SF:/usr/include/c++/4.8/bits/stl_iterator_base_funcs.h
FN:90,_ZSt10__distanceIPcENSt15iterator_traitsIT_E15difference_typeES2_S2_St26random_access_iterator_tag
FN:114,_ZSt8distanceIPcENSt15iterator_traitsIT_E15difference_typeES2_S2_
FNDA:0,_ZSt10__distanceIPcENSt15iterator_traitsIT_E15difference_typeES2_S2_St26random_access_iterator_tag
FNDA:0,_ZSt8distanceIPcENSt15iterator_traitsIT_E15difference_typeES2_S2_
FNF:2
FNH:0
DA:90,0
DA:96,0
DA:114,0
DA:118,0
LF:4
LH:0
end_of_record
SF:/usr/include/c++/4.8/bits/stl_iterator_base_types.h
FN:201,_ZSt19__iterator_categoryIPcENSt15iterator_traitsIT_E17iterator_categoryERKS2_
FNDA:0,_ZSt19__iterator_categoryIPcENSt15iterator_traitsIT_E17iterator_categoryERKS2_
FNF:1
FNH:0
DA:201,0
DA:202,0
LF:2
LH:0
end_of_record
SF:/usr/include/c++/4.8/ext/atomicity.h
FN:48,_ZN9__gnu_cxxL18__exchange_and_addEPVii
FN:65,_ZN9__gnu_cxxL25__exchange_and_add_singleEPii
FN:78,_ZN9__gnu_cxxL27__exchange_and_add_dispatchEPii
FNDA:0,_ZN9__gnu_cxxL18__exchange_and_addEPVii
FNDA:0,_ZN9__gnu_cxxL25__exchange_and_add_singleEPii
FNDA:0,_ZN9__gnu_cxxL27__exchange_and_add_dispatchEPii
FNF:3
FNH:0
DA:48,0
DA:49,0
DA:65,0
DA:67,0
DA:68,0
DA:69,0
DA:78,0
DA:81,0
DA:82,0
DA:84,0
LF:10
LH:0
end_of_record
SF:/usr/include/c++/4.8/ext/new_allocator.h
FN:79,_ZN9__gnu_cxx13new_allocatorIcEC2Ev
FN:81,_ZN9__gnu_cxx13new_allocatorIcEC2ERKS1_
FN:86,_ZN9__gnu_cxx13new_allocatorIcED2Ev
FNDA:0,_ZN9__gnu_cxx13new_allocatorIcEC2Ev
FNDA:0,_ZN9__gnu_cxx13new_allocatorIcEC2ERKS1_
FNDA:0,_ZN9__gnu_cxx13new_allocatorIcED2Ev
FNF:3
FNH:0
DA:79,0
DA:81,0
DA:86,0
LF:3
LH:0
end_of_record
SF:/usr/include/c++/4.8/ext/type_traits.h
FN:150,_ZN9__gnu_cxx17__is_null_pointerIcEEbPT_
FNDA:0,_ZN9__gnu_cxx17__is_null_pointerIcEEbPT_
FNF:1
FNH:0
DA:150,0
DA:151,0
LF:2
LH:0
end_of_record
SF:/usr/include/c++/4.8/iostream
DA:74,10
LF:1
LH:1
end_of_record
SF:/usr/include/c++/4.8/sstream
FN:64,_ZNSt15basic_stringbufIcSt11char_traitsIcESaIcEED0Ev
FN:64,_ZNSt15basic_stringbufIcSt11char_traitsIcESaIcEED2Ev
FNDA:0,_ZNSt15basic_stringbufIcSt11char_traitsIcESaIcEED0Ev
FNDA:0,_ZNSt15basic_stringbufIcSt11char_traitsIcESaIcEED2Ev
FNF:2
FNH:0
DA:64,0
LF:1
LH:0
end_of_record
SF:/usr/include/x86_64-linux-gnu/c++/4.8/bits/gthr-default.h
FN:247,_ZL18__gthread_active_pv
FNDA:0,_ZL18__gthread_active_pv
FNF:1
FNH:0
DA:247,0
DA:251,0
LF:2
LH:0
end_of_record
SF:/usr/local/include/gtest/gtest-message.h
FN:85,_ZN7testing7MessageD2Ev
FNDA:0,_ZN7testing7MessageD2Ev
FNF:1
FNH:0
DA:85,0
LF:1
LH:0
end_of_record
SF:/usr/local/include/gtest/gtest-printers.h
FN:275,_ZN7testing8internal19FormatForComparisonISsA1_cE6FormatERKSs
FN:275,_ZN7testing8internal19FormatForComparisonISsSsE6FormatERKSs
FN:284,_ZN7testing8internal19FormatForComparisonIA1_cSsE6FormatEPKc
FN:321,_ZN7testing8internal19FormatForComparisonIPKcSsE6FormatES3_
FN:349,_ZN7testing8internal33FormatForComparisonFailureMessageISsA1_cEESsRKT_RKT0_
FN:349,_ZN7testing8internal33FormatForComparisonFailureMessageIA1_cSsEESsRKT_RKT0_
FN:349,_ZN7testing8internal33FormatForComparisonFailureMessageISsSsEESsRKT_RKT0_
FN:565,_ZN7testing8internal7PrintToERKSsPSo
FN:698,_ZN7testing8internal16UniversalPrinterISsE5PrintERKSsPSo
FN:783,_ZN7testing8internal21UniversalTersePrinterISsE5PrintERKSsPSo
FN:804,_ZN7testing8internal21UniversalTersePrinterIPKcE5PrintES3_PSo
FN:852,_ZN7testing8internal14UniversalPrintISsEEvRKT_PSo
FN:980,_ZN7testing13PrintToStringISsEESsRKT_
FN:980,_ZN7testing13PrintToStringIPKcEESsRKT_
FNDA:0,_ZN7testing8internal19FormatForComparisonISsA1_cE6FormatERKSs
FNDA:0,_ZN7testing8internal19FormatForComparisonISsSsE6FormatERKSs
FNDA:0,_ZN7testing8internal19FormatForComparisonIA1_cSsE6FormatEPKc
FNDA:0,_ZN7testing8internal19FormatForComparisonIPKcSsE6FormatES3_
FNDA:0,_ZN7testing8internal33FormatForComparisonFailureMessageISsA1_cEESsRKT_RKT0_
FNDA:0,_ZN7testing8internal33FormatForComparisonFailureMessageIA1_cSsEESsRKT_RKT0_
FNDA:0,_ZN7testing8internal33FormatForComparisonFailureMessageISsSsEESsRKT_RKT0_
FNDA:0,_ZN7testing8internal7PrintToERKSsPSo
FNDA:0,_ZN7testing8internal16UniversalPrinterISsE5PrintERKSsPSo
FNDA:0,_ZN7testing8internal21UniversalTersePrinterISsE5PrintERKSsPSo
FNDA:0,_ZN7testing8internal21UniversalTersePrinterIPKcE5PrintES3_PSo
FNDA:0,_ZN7testing8internal14UniversalPrintISsEEvRKT_PSo
FNDA:0,_ZN7testing13PrintToStringISsEESsRKT_
FNDA:0,_ZN7testing13PrintToStringIPKcEESsRKT_
FNF:14
FNH:0
DA:275,0
DA:276,0
DA:284,0
DA:285,0
DA:321,0
DA:349,0
DA:351,0
DA:565,0
DA:566,0
DA:567,0
DA:698,0
DA:707,0
DA:708,0
DA:783,0
DA:784,0
DA:785,0
DA:804,0
DA:805,0
DA:806,0
DA:808,0
DA:810,0
DA:852,0
DA:856,0
DA:857,0
DA:980,0
DA:981,0
DA:982,0
DA:983,0
LF:28
LH:0
end_of_record
SF:/usr/local/include/gtest/gtest.h
FN:256,_ZN7testing15AssertionResultD2Ev
FN:272,_ZN7testing15AssertionResultC2IbEERKT_PNS_8internal8EnableIfIXntsrNS5_21ImplicitlyConvertibleIS2_S0_EE5valueEE4typeE
FN:288,_ZNK7testing15AssertionResultcvbEv
FN:297,_ZNK7testing15AssertionResult7messageEv
FN:302,_ZNK7testing15AssertionResult15failure_messageEv
FN:389,_ZN7testing4Test13SetUpTestCaseEv
FN:397,_ZN7testing4Test16TearDownTestCaseEv
FN:474,_ZN7testing4Test5SetupEv
FN:1375,_ZN7testing8internal18CmpHelperEQFailureIA1_cSsEENS_15AssertionResultEPKcS5_RKT_RKT0_
FN:1375,_ZN7testing8internal18CmpHelperEQFailureISsSsEENS_15AssertionResultEPKcS4_RKT_RKT0_
FN:1387,_ZN7testing8internal11CmpHelperEQIA1_cSsEENS_15AssertionResultEPKcS5_RKT_RKT0_
FN:1387,_ZN7testing8internal11CmpHelperEQISsSsEENS_15AssertionResultEPKcS4_RKT_RKT0_
FN:1417,_ZN7testing8internal8EqHelperILb0EE7CompareIA1_cSsEENS_15AssertionResultEPKcS7_RKT_RKT0_
FN:1417,_ZN7testing8internal8EqHelperILb0EE7CompareISsSsEENS_15AssertionResultEPKcS6_RKT_RKT0_
FNDA:0,_ZN7testing15AssertionResultD2Ev
FNDA:620,_ZN7testing15AssertionResultC2IbEERKT_PNS_8internal8EnableIfIXntsrNS5_21ImplicitlyConvertibleIS2_S0_EE5valueEE4typeE
FNDA:0,_ZNK7testing15AssertionResultcvbEv
FNDA:0,_ZNK7testing15AssertionResult7messageEv
FNDA:0,_ZNK7testing15AssertionResult15failure_messageEv
FNDA:0,_ZN7testing4Test13SetUpTestCaseEv
FNDA:0,_ZN7testing4Test16TearDownTestCaseEv
FNDA:0,_ZN7testing4Test5SetupEv
FNDA:0,_ZN7testing8internal18CmpHelperEQFailureIA1_cSsEENS_15AssertionResultEPKcS5_RKT_RKT0_
FNDA:0,_ZN7testing8internal18CmpHelperEQFailureISsSsEENS_15AssertionResultEPKcS4_RKT_RKT0_
FNDA:10,_ZN7testing8internal11CmpHelperEQIA1_cSsEENS_15AssertionResultEPKcS5_RKT_RKT0_
FNDA:0,_ZN7testing8internal11CmpHelperEQISsSsEENS_15AssertionResultEPKcS4_RKT_RKT0_
FNDA:10,_ZN7testing8internal8EqHelperILb0EE7CompareIA1_cSsEENS_15AssertionResultEPKcS7_RKT_RKT0_
FNDA:0,_ZN7testing8internal8EqHelperILb0EE7CompareISsSsEENS_15AssertionResultEPKcS6_RKT_RKT0_
FNF:14
FNH:3
DA:256,0
DA:272,620
DA:277,620
DA:288,0
DA:297,0
DA:298,0
DA:302,0
DA:389,0
DA:397,0
DA:474,0
DA:1375,0
DA:1382,0
DA:1387,10
DA:1392,10
DA:1393,10
DA:1397,0
DA:1417,10
DA:1421,10
LF:18
LH:7
end_of_record
SF:/usr/local/include/gtest/internal/gtest-internal.h
FN:447,_ZN7testing8internal9GetTypeIdI15BaseDeDatosTestEEPKvv
FN:466,_ZN7testing8internal15TestFactoryBaseD2Ev
FN:466,_ZN7testing8internal15TestFactoryBaseD0Ev
FN:473,_ZN7testing8internal15TestFactoryBaseC2Ev
FN:482,_ZN7testing8internal15TestFactoryImplI60BaseDeDatosTest_testAgregarUnaClaveValorNuevaYObtenerla_TestED2Ev
FN:482,_ZN7testing8internal15TestFactoryImplI99BaseDeDatosTest_AlHacerDosVecesUnPutConLaMismaClaveElValorAlmacenadoDeberiaSerElUltimoGuardado_TestEC2Ev
FN:482,_ZN7testing8internal15TestFactoryImplI87BaseDeDatosTest_testAlPreguntarPorLaExistenciaDeUnaClaveInexistenteDeberiaDarFalse_TestED2Ev
FN:482,_ZN7testing8internal15TestFactoryImplI87BaseDeDatosTest_testAlPreguntarPorLaExistenciaDeUnaClaveInexistenteDeberiaDarFalse_TestEC2Ev
FN:482,_ZN7testing8internal15TestFactoryImplI50BaseDeDatosTest_existenciaDeUnaClaveExistente_TestED2Ev
FN:482,_ZN7testing8internal15TestFactoryImplI84BaseDeDatosTest_testObtenerElValorDeUnaClaveInexistenteDebeDevolverUnValorVacio_TestED2Ev
FN:482,_ZN7testing8internal15TestFactoryImplI50BaseDeDatosTest_existenciaDeUnaClaveExistente_TestEC2Ev
FN:482,_ZN7testing8internal15TestFactoryImplI60BaseDeDatosTest_testAgregarUnaClaveValorNuevaYObtenerla_TestED0Ev
FN:482,_ZN7testing8internal15TestFactoryImplI99BaseDeDatosTest_AlHacerDosVecesUnPutConLaMismaClaveElValorAlmacenadoDeberiaSerElUltimoGuardado_TestED2Ev
FN:482,_ZN7testing8internal15TestFactoryImplI87BaseDeDatosTest_testAlPreguntarPorLaExistenciaDeUnaClaveInexistenteDeberiaDarFalse_TestED0Ev
FN:482,_ZN7testing8internal15TestFactoryImplI84BaseDeDatosTest_testObtenerElValorDeUnaClaveInexistenteDebeDevolverUnValorVacio_TestEC2Ev
FN:482,_ZN7testing8internal15TestFactoryImplI60BaseDeDatosTest_testAgregarUnaClaveValorNuevaYObtenerla_TestEC2Ev
FN:482,_ZN7testing8internal15TestFactoryImplI84BaseDeDatosTest_testObtenerElValorDeUnaClaveInexistenteDebeDevolverUnValorVacio_TestED0Ev
FN:482,_ZN7testing8internal15TestFactoryImplI50BaseDeDatosTest_existenciaDeUnaClaveExistente_TestED0Ev
FN:482,_ZN7testing8internal15TestFactoryImplI99BaseDeDatosTest_AlHacerDosVecesUnPutConLaMismaClaveElValorAlmacenadoDeberiaSerElUltimoGuardado_TestED0Ev
FN:484,_ZN7testing8internal15TestFactoryImplI60BaseDeDatosTest_testAgregarUnaClaveValorNuevaYObtenerla_TestE10CreateTestEv
FN:484,_ZN7testing8internal15TestFactoryImplI99BaseDeDatosTest_AlHacerDosVecesUnPutConLaMismaClaveElValorAlmacenadoDeberiaSerElUltimoGuardado_TestE10CreateTestEv
FN:484,_ZN7testing8internal15TestFactoryImplI87BaseDeDatosTest_testAlPreguntarPorLaExistenciaDeUnaClaveInexistenteDeberiaDarFalse_TestE10CreateTestEv
FN:484,_ZN7testing8internal15TestFactoryImplI50BaseDeDatosTest_existenciaDeUnaClaveExistente_TestE10CreateTestEv
FN:484,_ZN7testing8internal15TestFactoryImplI84BaseDeDatosTest_testObtenerElValorDeUnaClaveInexistenteDebeDevolverUnValorVacio_TestE10CreateTestEv
FN:504,_ZN7testing8internal12CodeLocationD2Ev
FN:505,_ZN7testing8internal12CodeLocationC2ERKSsi
FNDA:50,_ZN7testing8internal9GetTypeIdI15BaseDeDatosTestEEPKvv
FNDA:0,_ZN7testing8internal15TestFactoryBaseD0Ev
FNDA:0,_ZN7testing8internal15TestFactoryBaseD2Ev
FNDA:0,_ZN7testing8internal15TestFactoryBaseC2Ev
FNDA:10,_ZN7testing8internal15TestFactoryImplI60BaseDeDatosTest_testAgregarUnaClaveValorNuevaYObtenerla_TestED0Ev
FNDA:10,_ZN7testing8internal15TestFactoryImplI60BaseDeDatosTest_testAgregarUnaClaveValorNuevaYObtenerla_TestED2Ev
FNDA:10,_ZN7testing8internal15TestFactoryImplI99BaseDeDatosTest_AlHacerDosVecesUnPutConLaMismaClaveElValorAlmacenadoDeberiaSerElUltimoGuardado_TestED0Ev
FNDA:10,_ZN7testing8internal15TestFactoryImplI99BaseDeDatosTest_AlHacerDosVecesUnPutConLaMismaClaveElValorAlmacenadoDeberiaSerElUltimoGuardado_TestED2Ev
FNDA:10,_ZN7testing8internal15TestFactoryImplI87BaseDeDatosTest_testAlPreguntarPorLaExistenciaDeUnaClaveInexistenteDeberiaDarFalse_TestED0Ev
FNDA:10,_ZN7testing8internal15TestFactoryImplI87BaseDeDatosTest_testAlPreguntarPorLaExistenciaDeUnaClaveInexistenteDeberiaDarFalse_TestED2Ev
FNDA:10,_ZN7testing8internal15TestFactoryImplI50BaseDeDatosTest_existenciaDeUnaClaveExistente_TestED0Ev
FNDA:10,_ZN7testing8internal15TestFactoryImplI50BaseDeDatosTest_existenciaDeUnaClaveExistente_TestED2Ev
FNDA:10,_ZN7testing8internal15TestFactoryImplI84BaseDeDatosTest_testObtenerElValorDeUnaClaveInexistenteDebeDevolverUnValorVacio_TestED0Ev
FNDA:10,_ZN7testing8internal15TestFactoryImplI84BaseDeDatosTest_testObtenerElValorDeUnaClaveInexistenteDebeDevolverUnValorVacio_TestED2Ev
FNDA:10,_ZN7testing8internal15TestFactoryImplI84BaseDeDatosTest_testObtenerElValorDeUnaClaveInexistenteDebeDevolverUnValorVacio_TestEC2Ev
FNDA:10,_ZN7testing8internal15TestFactoryImplI50BaseDeDatosTest_existenciaDeUnaClaveExistente_TestEC2Ev
FNDA:10,_ZN7testing8internal15TestFactoryImplI87BaseDeDatosTest_testAlPreguntarPorLaExistenciaDeUnaClaveInexistenteDeberiaDarFalse_TestEC2Ev
FNDA:10,_ZN7testing8internal15TestFactoryImplI99BaseDeDatosTest_AlHacerDosVecesUnPutConLaMismaClaveElValorAlmacenadoDeberiaSerElUltimoGuardado_TestEC2Ev
FNDA:10,_ZN7testing8internal15TestFactoryImplI60BaseDeDatosTest_testAgregarUnaClaveValorNuevaYObtenerla_TestEC2Ev
FNDA:10,_ZN7testing8internal15TestFactoryImplI60BaseDeDatosTest_testAgregarUnaClaveValorNuevaYObtenerla_TestE10CreateTestEv
FNDA:10,_ZN7testing8internal15TestFactoryImplI99BaseDeDatosTest_AlHacerDosVecesUnPutConLaMismaClaveElValorAlmacenadoDeberiaSerElUltimoGuardado_TestE10CreateTestEv
FNDA:10,_ZN7testing8internal15TestFactoryImplI87BaseDeDatosTest_testAlPreguntarPorLaExistenciaDeUnaClaveInexistenteDeberiaDarFalse_TestE10CreateTestEv
FNDA:10,_ZN7testing8internal15TestFactoryImplI50BaseDeDatosTest_existenciaDeUnaClaveExistente_TestE10CreateTestEv
FNDA:10,_ZN7testing8internal15TestFactoryImplI84BaseDeDatosTest_testObtenerElValorDeUnaClaveInexistenteDebeDevolverUnValorVacio_TestE10CreateTestEv
FNDA:0,_ZN7testing8internal12CodeLocationD2Ev
FNDA:0,_ZN7testing8internal12CodeLocationC2ERKSsi
FNF:26
FNH:21
DA:447,50
DA:452,50
DA:466,0
DA:473,0
DA:482,150
DA:484,50
DA:504,0
DA:505,0
LF:8
LH:4
end_of_record
SF:/usr/local/include/gtest/internal/gtest-port.h
FN:1119,_ZN7testing8internal10scoped_ptrISsEC2EPSs
FN:1120,_ZN7testing8internal10scoped_ptrISt18basic_stringstreamIcSt11char_traitsIcESaIcEEED2Ev
FN:1120,_ZN7testing8internal10scoped_ptrISsED2Ev
FN:1123,_ZNK7testing8internal10scoped_ptrISsEptEv
FN:1124,_ZNK7testing8internal10scoped_ptrISsE3getEv
FN:1132,_ZN7testing8internal10scoped_ptrISsE5resetEPSs
FN:1132,_ZN7testing8internal10scoped_ptrISt18basic_stringstreamIcSt11char_traitsIcESaIcEEE5resetEPS6_
FNDA:620,_ZN7testing8internal10scoped_ptrISsEC2EPSs
FNDA:0,_ZN7testing8internal10scoped_ptrISsED2Ev
FNDA:0,_ZN7testing8internal10scoped_ptrISt18basic_stringstreamIcSt11char_traitsIcESaIcEEED2Ev
FNDA:0,_ZNK7testing8internal10scoped_ptrISsEptEv
FNDA:0,_ZNK7testing8internal10scoped_ptrISsE3getEv
FNDA:0,_ZN7testing8internal10scoped_ptrISt18basic_stringstreamIcSt11char_traitsIcESaIcEEE5resetEPS6_
FNDA:0,_ZN7testing8internal10scoped_ptrISsE5resetEPSs
FNF:7
FNH:1
DA:1119,620
DA:1120,0
DA:1123,0
DA:1124,0
DA:1132,0
DA:1133,0
DA:1134,0
DA:1135,0
DA:1137,0
DA:1139,0
LF:10
LH:1
end_of_record
TN:
SF:/home/diego/Desktop/taller2-appserver/ContenidoParaLasPruebas/TestCases/MensajeHTTPRequestTests.cpp
FN:9,_ZN22HttpMessageRequestTestD0Ev
FN:9,_ZN22HttpMessageRequestTestD2Ev
FN:9,_ZN22HttpMessageRequestTestC2Ev
FN:13,_ZN22HttpMessageRequestTest5SetUpEv
FN:43,_ZN22HttpMessageRequestTest8TearDownEv
FN:48,_ZN22HttpMessageRequestTest21crearHeaderBodyLenghtESs
FN:53,_ZN22HttpMessageRequestTest13iniciarMg_strER6mg_strPKcm
FN:65,_ZN66HttpMessageRequestTest_testObjenerMetodoDelMensajeHTTPRequest_TestC2Ev
FN:65,_ZN66HttpMessageRequestTest_testObjenerMetodoDelMensajeHTTPRequest_Test8TestBodyEv
FN:65,_Z41__static_initialization_and_destruction_0ii
FN:65,_ZN66HttpMessageRequestTest_testObjenerMetodoDelMensajeHTTPRequest_TestD0Ev
FN:65,_ZN66HttpMessageRequestTest_testObjenerMetodoDelMensajeHTTPRequest_TestD2Ev
FN:71,_ZN63HttpMessageRequestTest_testObtenerUriDelMensajeHTTPRequest_TestD2Ev
FN:71,_ZN63HttpMessageRequestTest_testObtenerUriDelMensajeHTTPRequest_TestD0Ev
FN:71,_ZN63HttpMessageRequestTest_testObtenerUriDelMensajeHTTPRequest_Test8TestBodyEv
FN:71,_ZN63HttpMessageRequestTest_testObtenerUriDelMensajeHTTPRequest_TestC2Ev
FN:76,_ZN67HttpMessageRequestTest_testObtenerHeadersDelMensajeHTTPRequest_TestD2Ev
FN:76,_ZN67HttpMessageRequestTest_testObtenerHeadersDelMensajeHTTPRequest_Test8TestBodyEv
FN:76,_ZN67HttpMessageRequestTest_testObtenerHeadersDelMensajeHTTPRequest_TestC2Ev
FN:76,_ZN67HttpMessageRequestTest_testObtenerHeadersDelMensajeHTTPRequest_TestD0Ev
FN:82,_ZN66HttpMessageRequestTest_testCrearUnMensajeHTTPRequestDesdeCero_TestC2Ev
FN:82,_ZN66HttpMessageRequestTest_testCrearUnMensajeHTTPRequestDesdeCero_TestD2Ev
FN:82,_ZN66HttpMessageRequestTest_testCrearUnMensajeHTTPRequestDesdeCero_TestD0Ev
FN:82,_ZN66HttpMessageRequestTest_testCrearUnMensajeHTTPRequestDesdeCero_Test8TestBodyEv
FN:103,_GLOBAL__sub_I__ZN66HttpMessageRequestTest_testObjenerMetodoDelMensajeHTTPRequest_Test10test_info_E
FNDA:0,_ZN22HttpMessageRequestTestD0Ev
FNDA:40,_ZN22HttpMessageRequestTestD2Ev
FNDA:40,_ZN22HttpMessageRequestTestC2Ev
FNDA:40,_ZN22HttpMessageRequestTest5SetUpEv
FNDA:40,_ZN22HttpMessageRequestTest8TearDownEv
FNDA:10,_ZN22HttpMessageRequestTest21crearHeaderBodyLenghtESs
FNDA:320,_ZN22HttpMessageRequestTest13iniciarMg_strER6mg_strPKcm
FNDA:10,_ZN66HttpMessageRequestTest_testObjenerMetodoDelMensajeHTTPRequest_TestD0Ev
FNDA:10,_ZN66HttpMessageRequestTest_testObjenerMetodoDelMensajeHTTPRequest_TestD2Ev
FNDA:10,_ZN66HttpMessageRequestTest_testObjenerMetodoDelMensajeHTTPRequest_Test8TestBodyEv
FNDA:10,_ZN66HttpMessageRequestTest_testObjenerMetodoDelMensajeHTTPRequest_TestC2Ev
FNDA:10,_ZN63HttpMessageRequestTest_testObtenerUriDelMensajeHTTPRequest_TestD0Ev
FNDA:10,_ZN63HttpMessageRequestTest_testObtenerUriDelMensajeHTTPRequest_TestD2Ev
FNDA:10,_ZN63HttpMessageRequestTest_testObtenerUriDelMensajeHTTPRequest_Test8TestBodyEv
FNDA:10,_ZN63HttpMessageRequestTest_testObtenerUriDelMensajeHTTPRequest_TestC2Ev
FNDA:10,_ZN67HttpMessageRequestTest_testObtenerHeadersDelMensajeHTTPRequest_TestD0Ev
FNDA:10,_ZN67HttpMessageRequestTest_testObtenerHeadersDelMensajeHTTPRequest_TestD2Ev
FNDA:10,_ZN67HttpMessageRequestTest_testObtenerHeadersDelMensajeHTTPRequest_Test8TestBodyEv
FNDA:10,_ZN67HttpMessageRequestTest_testObtenerHeadersDelMensajeHTTPRequest_TestC2Ev
FNDA:10,_ZN66HttpMessageRequestTest_testCrearUnMensajeHTTPRequestDesdeCero_TestD0Ev
FNDA:10,_ZN66HttpMessageRequestTest_testCrearUnMensajeHTTPRequestDesdeCero_TestD2Ev
FNDA:10,_ZN66HttpMessageRequestTest_testCrearUnMensajeHTTPRequestDesdeCero_Test8TestBodyEv
FNDA:10,_ZN66HttpMessageRequestTest_testCrearUnMensajeHTTPRequestDesdeCero_TestC2Ev
FNDA:10,_GLOBAL__sub_I__ZN66HttpMessageRequestTest_testObjenerMetodoDelMensajeHTTPRequest_Test10test_info_E
FNDA:10,_Z41__static_initialization_and_destruction_0ii
FNF:25
FNH:24
DA:9,80
DA:13,40
DA:15,40
DA:16,40
DA:17,40
DA:18,40
DA:19,40
DA:20,40
DA:21,40
DA:22,40
DA:25,40
DA:26,40
DA:28,40
DA:29,40
DA:31,40
DA:32,40
DA:34,40
DA:35,40
DA:38,40
DA:40,40
DA:43,40
DA:44,40
DA:45,40
DA:48,10
DA:50,10
DA:53,320
DA:54,320
DA:55,320
DA:56,320
DA:65,50
DA:67,10
DA:71,50
DA:72,10
DA:76,50
DA:77,10
DA:78,10
DA:82,50
DA:83,10
DA:84,20
DA:85,10
DA:86,10
DA:87,10
DA:88,10
DA:89,10
DA:90,10
DA:91,10
DA:92,10
DA:93,10
DA:94,10
DA:95,10
DA:96,10
DA:98,20
DA:100,20
DA:102,20
DA:103,30
LF:55
LH:55
end_of_record
SF:/usr/include/c++/4.8/bits/allocator.h
FN:133,_ZSteqIcEbRKSaIT_ES3_
FNDA:15360,_ZSteqIcEbRKSaIT_ES3_
FNF:1
FNH:1
DA:133,15360
DA:134,15360
LF:2
LH:2
end_of_record
SF:/usr/include/c++/4.8/bits/basic_string.h
FN:272,_ZNSs12_Alloc_hiderC2ERKS_
FN:272,_ZNSs12_Alloc_hiderD2Ev
FN:1721,_ZNSs16_S_construct_auxIPcEES0_T_S1_RKSaIcESt12__false_type
FN:1743,_ZNSs12_S_constructIPcEES0_T_S1_RKSaIcE
FN:2402,_ZStplIcSt11char_traitsIcESaIcEESbIT_T0_T1_ERKS6_PKS3_
FN:2430,_ZStplIcSt11char_traitsIcESaIcEESbIT_T0_T1_EOS6_RKS6_
FN:2454,_ZStplIcSt11char_traitsIcESaIcEESbIT_T0_T1_EPKS3_OS6_
FN:2466,_ZStplIcSt11char_traitsIcESaIcEESbIT_T0_T1_EOS6_PKS3_
FN:2493,_ZSteqIcEN9__gnu_cxx11__enable_ifIXsrSt9__is_charIT_E7__valueEbE6__typeERKSbIS3_St11char_traitsIS3_ESaIS3_EESC_
FN:2507,_ZSteqIcSt11char_traitsIcESaIcEEbPKT_RKSbIS3_T0_T1_E
FN:2880,_ZSt9to_stringm
FNDA:0,_ZNSs12_Alloc_hiderC2ERKS_
FNDA:0,_ZNSs12_Alloc_hiderD2Ev
FNDA:11260,_ZNSs16_S_construct_auxIPcEES0_T_S1_RKSaIcESt12__false_type
FNDA:11260,_ZNSs12_S_constructIPcEES0_T_S1_RKSaIcE
FNDA:0,_ZStplIcSt11char_traitsIcESaIcEESbIT_T0_T1_ERKS6_PKS3_
FNDA:0,_ZStplIcSt11char_traitsIcESaIcEESbIT_T0_T1_EOS6_RKS6_
FNDA:0,_ZStplIcSt11char_traitsIcESaIcEESbIT_T0_T1_EPKS3_OS6_
FNDA:0,_ZStplIcSt11char_traitsIcESaIcEESbIT_T0_T1_EOS6_PKS3_
FNDA:0,_ZSteqIcEN9__gnu_cxx11__enable_ifIXsrSt9__is_charIT_E7__valueEbE6__typeERKSbIS3_St11char_traitsIS3_ESaIS3_EESC_
FNDA:80,_ZSteqIcSt11char_traitsIcESaIcEEbPKT_RKSbIS3_T0_T1_E
FNDA:10,_ZSt9to_stringm
FNF:11
FNH:4
DA:272,0
DA:1721,11260
DA:1725,11260
DA:1743,11260
DA:1746,11260
DA:2402,0
DA:2405,0
DA:2406,0
DA:2407,0
DA:2430,0
DA:2432,0
DA:2454,0
DA:2456,0
DA:2466,0
DA:2468,0
DA:2493,0
DA:2495,0
DA:2497,0
DA:2507,80
DA:2509,80
DA:2880,10
DA:2883,10
LF:22
LH:8
end_of_record
SF:/usr/include/c++/4.8/bits/basic_string.tcc
FN:123,_ZNSs12_S_constructIPcEES0_T_S1_RKSaIcESt20forward_iterator_tag
FN:227,_ZNSsC2IPcEET_S1_RKSaIcE
FNDA:113720,_ZNSs12_S_constructIPcEES0_T_S1_RKSaIcESt20forward_iterator_tag
FNDA:11260,_ZNSsC2IPcEET_S1_RKSaIcE
FNF:2
FNH:2
DA:123,113720
DA:128,113720
DA:129,340
DA:132,113380
DA:133,0
DA:136,113380
DA:138,113380
DA:140,113380
DA:141,=====
DA:143,=====
DA:144,=====
DA:146,113380
DA:147,113380
DA:227,11260
DA:229,11260
DA:230,11260
LF:16
LH:12
end_of_record
SF:/usr/include/c++/4.8/bits/char_traits.h
FN:242,_ZNSt11char_traitsIcE6assignERcRKc
FN:254,_ZNSt11char_traitsIcE7compareEPKcS2_m
FN:258,_ZNSt11char_traitsIcE6lengthEPKc
FN:270,_ZNSt11char_traitsIcE4copyEPcPKcm
FNDA:0,_ZNSt11char_traitsIcE6assignERcRKc
FNDA:0,_ZNSt11char_traitsIcE7compareEPKcS2_m
FNDA:0,_ZNSt11char_traitsIcE6lengthEPKc
FNDA:0,_ZNSt11char_traitsIcE4copyEPcPKcm
FNF:4
FNH:0
DA:242,0
DA:243,0
DA:254,0
DA:255,0
DA:258,0
DA:259,0
DA:270,0
DA:271,0
LF:8
LH:0
end_of_record
SF:/usr/include/c++/4.8/bits/ios_base.h
FN:123,_ZStorSt13_Ios_OpenmodeS_
FN:163,_ZStorSt12_Ios_IostateS_
FNDA:940,_ZStorSt13_Ios_OpenmodeS_
FNDA:0,_ZStorSt12_Ios_IostateS_
FNF:2
FNH:1
DA:123,940
DA:124,940
DA:163,0
DA:164,0
LF:4
LH:2
end_of_record
SF:/usr/include/c++/4.8/bits/move.h
FN:101,_ZSt4moveIRSsEONSt16remove_referenceIT_E4typeEOS2_
FNDA:0,_ZSt4moveIRSsEONSt16remove_referenceIT_E4typeEOS2_
FNF:1
FNH:0
DA:101,0
DA:102,0
LF:2
LH:0
end_of_record
SF:/usr/include/c++/4.8/bits/stl_iterator_base_funcs.h
FN:90,_ZSt10__distanceIPcENSt15iterator_traitsIT_E15difference_typeES2_S2_St26random_access_iterator_tag
FN:114,_ZSt8distanceIPcENSt15iterator_traitsIT_E15difference_typeES2_S2_
FNDA:113380,_ZSt10__distanceIPcENSt15iterator_traitsIT_E15difference_typeES2_S2_St26random_access_iterator_tag
FNDA:113380,_ZSt8distanceIPcENSt15iterator_traitsIT_E15difference_typeES2_S2_
FNF:2
FNH:2
DA:90,113380
DA:96,113380
DA:114,113380
DA:118,113380
LF:4
LH:4
end_of_record
SF:/usr/include/c++/4.8/bits/stl_iterator_base_types.h
FN:201,_ZSt19__iterator_categoryIPcENSt15iterator_traitsIT_E17iterator_categoryERKS2_
FNDA:113380,_ZSt19__iterator_categoryIPcENSt15iterator_traitsIT_E17iterator_categoryERKS2_
FNF:1
FNH:1
DA:201,113380
DA:202,113380
LF:2
LH:2
end_of_record
SF:/usr/include/c++/4.8/ext/atomicity.h
FN:48,_ZN9__gnu_cxxL18__exchange_and_addEPVii
FN:65,_ZN9__gnu_cxxL25__exchange_and_add_singleEPii
FN:78,_ZN9__gnu_cxxL27__exchange_and_add_dispatchEPii
FNDA:0,_ZN9__gnu_cxxL18__exchange_and_addEPVii
FNDA:0,_ZN9__gnu_cxxL25__exchange_and_add_singleEPii
FNDA:0,_ZN9__gnu_cxxL27__exchange_and_add_dispatchEPii
FNF:3
FNH:0
DA:48,0
DA:49,0
DA:65,0
DA:67,0
DA:68,0
DA:69,0
DA:78,0
DA:81,0
DA:82,0
DA:84,0
LF:10
LH:0
end_of_record
SF:/usr/include/c++/4.8/ext/new_allocator.h
FN:79,_ZN9__gnu_cxx13new_allocatorIcEC2Ev
FN:81,_ZN9__gnu_cxx13new_allocatorIcEC2ERKS1_
FN:86,_ZN9__gnu_cxx13new_allocatorIcED2Ev
FNDA:0,_ZN9__gnu_cxx13new_allocatorIcEC2Ev
FNDA:0,_ZN9__gnu_cxx13new_allocatorIcEC2ERKS1_
FNDA:0,_ZN9__gnu_cxx13new_allocatorIcED2Ev
FNF:3
FNH:0
DA:79,0
DA:81,0
DA:86,0
LF:3
LH:0
end_of_record
SF:/usr/include/c++/4.8/ext/string_conversions.h
FN:83,_ZN9__gnu_cxx12__to_xstringISscEET_PFiPT0_mPKS2_P13__va_list_tagEmS5_z
FNDA:11260,_ZN9__gnu_cxx12__to_xstringISscEET_PFiPT0_mPKS2_P13__va_list_tagEmS5_z
FNF:1
FNH:1
DA:83,11260
DA:90,11260
DA:93,11260
DA:95,11260
DA:97,11260
DA:99,11260
LF:6
LH:6
end_of_record
SF:/usr/include/c++/4.8/ext/type_traits.h
FN:150,_ZN9__gnu_cxx17__is_null_pointerIcEEbPT_
FNDA:113380,_ZN9__gnu_cxx17__is_null_pointerIcEEbPT_
FNF:1
FNH:1
DA:150,113380
DA:151,113380
LF:2
LH:2
end_of_record
SF:/usr/include/c++/4.8/iostream
DA:74,10
LF:1
LH:1
end_of_record
SF:/usr/include/c++/4.8/sstream
FN:64,_ZNSt15basic_stringbufIcSt11char_traitsIcESaIcEED0Ev
FN:64,_ZNSt15basic_stringbufIcSt11char_traitsIcESaIcEED2Ev
FNDA:0,_ZNSt15basic_stringbufIcSt11char_traitsIcESaIcEED0Ev
FNDA:0,_ZNSt15basic_stringbufIcSt11char_traitsIcESaIcEED2Ev
FNF:2
FNH:0
DA:64,0
LF:1
LH:0
end_of_record
SF:/usr/include/x86_64-linux-gnu/c++/4.8/bits/gthr-default.h
FN:247,_ZL18__gthread_active_pv
FNDA:0,_ZL18__gthread_active_pv
FNF:1
FNH:0
DA:247,0
DA:251,0
LF:2
LH:0
end_of_record
SF:/usr/local/include/gtest/gtest-message.h
FN:85,_ZN7testing7MessageD2Ev
FNDA:930,_ZN7testing7MessageD2Ev
FNF:1
FNH:1
DA:85,930
LF:1
LH:1
end_of_record
SF:/usr/local/include/gtest/gtest-printers.h
FN:275,_ZN7testing8internal19FormatForComparisonISsA19_cE6FormatERKSs
FN:275,_ZN7testing8internal19FormatForComparisonISsSsE6FormatERKSs
FN:275,_ZN7testing8internal19FormatForComparisonISsA7_cE6FormatERKSs
FN:284,_ZN7testing8internal19FormatForComparisonIA7_cSsE6FormatEPKc
FN:284,_ZN7testing8internal19FormatForComparisonIA19_cSsE6FormatEPKc
FN:321,_ZN7testing8internal19FormatForComparisonIPKcSsE6FormatES3_
FN:349,_ZN7testing8internal33FormatForComparisonFailureMessageISsA7_cEESsRKT_RKT0_
FN:349,_ZN7testing8internal33FormatForComparisonFailureMessageIA7_cSsEESsRKT_RKT0_
FN:349,_ZN7testing8internal33FormatForComparisonFailureMessageISsSsEESsRKT_RKT0_
FN:349,_ZN7testing8internal33FormatForComparisonFailureMessageISsA19_cEESsRKT_RKT0_
FN:349,_ZN7testing8internal33FormatForComparisonFailureMessageIA19_cSsEESsRKT_RKT0_
FN:565,_ZN7testing8internal7PrintToERKSsPSo
FN:698,_ZN7testing8internal16UniversalPrinterISsE5PrintERKSsPSo
FN:783,_ZN7testing8internal21UniversalTersePrinterISsE5PrintERKSsPSo
FN:804,_ZN7testing8internal21UniversalTersePrinterIPKcE5PrintES3_PSo
FN:852,_ZN7testing8internal14UniversalPrintISsEEvRKT_PSo
FN:980,_ZN7testing13PrintToStringIPKcEESsRKT_
FN:980,_ZN7testing13PrintToStringISsEESsRKT_
FNDA:0,_ZN7testing8internal19FormatForComparisonISsSsE6FormatERKSs
FNDA:0,_ZN7testing8internal19FormatForComparisonISsA19_cE6FormatERKSs
FNDA:0,_ZN7testing8internal19FormatForComparisonISsA7_cE6FormatERKSs
FNDA:0,_ZN7testing8internal19FormatForComparisonIA19_cSsE6FormatEPKc
FNDA:0,_ZN7testing8internal19FormatForComparisonIA7_cSsE6FormatEPKc
FNDA:0,_ZN7testing8internal19FormatForComparisonIPKcSsE6FormatES3_
FNDA:0,_ZN7testing8internal33FormatForComparisonFailureMessageISsSsEESsRKT_RKT0_
FNDA:0,_ZN7testing8internal33FormatForComparisonFailureMessageISsA19_cEESsRKT_RKT0_
FNDA:0,_ZN7testing8internal33FormatForComparisonFailureMessageIA19_cSsEESsRKT_RKT0_
FNDA:0,_ZN7testing8internal33FormatForComparisonFailureMessageISsA7_cEESsRKT_RKT0_
FNDA:0,_ZN7testing8internal33FormatForComparisonFailureMessageIA7_cSsEESsRKT_RKT0_
FNDA:0,_ZN7testing8internal7PrintToERKSsPSo
FNDA:0,_ZN7testing8internal16UniversalPrinterISsE5PrintERKSsPSo
FNDA:0,_ZN7testing8internal21UniversalTersePrinterISsE5PrintERKSsPSo
FNDA:0,_ZN7testing8internal21UniversalTersePrinterIPKcE5PrintES3_PSo
FNDA:0,_ZN7testing8internal14UniversalPrintISsEEvRKT_PSo
FNDA:0,_ZN7testing13PrintToStringISsEESsRKT_
FNDA:0,_ZN7testing13PrintToStringIPKcEESsRKT_
FNF:18
FNH:0
DA:275,0
DA:276,0
DA:284,0
DA:285,0
DA:321,0
DA:349,0
DA:351,0
DA:565,0
DA:566,0
DA:567,0
DA:698,0
DA:707,0
DA:708,0
DA:783,0
DA:784,0
DA:785,0
DA:804,0
DA:805,0
DA:806,0
DA:808,0
DA:810,0
DA:852,0
DA:856,0
DA:857,0
DA:980,0
DA:981,0
DA:982,0
DA:983,0
LF:28
LH:0
end_of_record
SF:/usr/local/include/gtest/gtest.h
FN:256,_ZN7testing15AssertionResultD2Ev
FN:288,_ZNK7testing15AssertionResultcvbEv
FN:297,_ZNK7testing15AssertionResult7messageEv
FN:302,_ZNK7testing15AssertionResult15failure_messageEv
FN:389,_ZN7testing4Test13SetUpTestCaseEv
FN:397,_ZN7testing4Test16TearDownTestCaseEv
FN:474,_ZN7testing4Test5SetupEv
FN:1375,_ZN7testing8internal18CmpHelperEQFailureISsSsEENS_15AssertionResultEPKcS4_RKT_RKT0_
FN:1375,_ZN7testing8internal18CmpHelperEQFailureIA19_cSsEENS_15AssertionResultEPKcS5_RKT_RKT0_
FN:1375,_ZN7testing8internal18CmpHelperEQFailureIA7_cSsEENS_15AssertionResultEPKcS5_RKT_RKT0_
FN:1387,_ZN7testing8internal11CmpHelperEQIA7_cSsEENS_15AssertionResultEPKcS5_RKT_RKT0_
FN:1387,_ZN7testing8internal11CmpHelperEQISsSsEENS_15AssertionResultEPKcS4_RKT_RKT0_
FN:1387,_ZN7testing8internal11CmpHelperEQIA19_cSsEENS_15AssertionResultEPKcS5_RKT_RKT0_
FN:1417,_ZN7testing8internal8EqHelperILb0EE7CompareIA19_cSsEENS_15AssertionResultEPKcS7_RKT_RKT0_
FN:1417,_ZN7testing8internal8EqHelperILb0EE7CompareISsSsEENS_15AssertionResultEPKcS6_RKT_RKT0_
FN:1417,_ZN7testing8internal8EqHelperILb0EE7CompareIA7_cSsEENS_15AssertionResultEPKcS7_RKT_RKT0_
FNDA:620,_ZN7testing15AssertionResultD2Ev
FNDA:620,_ZNK7testing15AssertionResultcvbEv
FNDA:0,_ZNK7testing15AssertionResult7messageEv
FNDA:0,_ZNK7testing15AssertionResult15failure_messageEv
FNDA:70,_ZN7testing4Test13SetUpTestCaseEv
FNDA:70,_ZN7testing4Test16TearDownTestCaseEv
FNDA:0,_ZN7testing4Test5SetupEv
FNDA:0,_ZN7testing8internal18CmpHelperEQFailureISsSsEENS_15AssertionResultEPKcS4_RKT_RKT0_
FNDA:0,_ZN7testing8internal18CmpHelperEQFailureIA19_cSsEENS_15AssertionResultEPKcS5_RKT_RKT0_
FNDA:0,_ZN7testing8internal18CmpHelperEQFailureIA7_cSsEENS_15AssertionResultEPKcS5_RKT_RKT0_
FNDA:50,_ZN7testing8internal11CmpHelperEQISsSsEENS_15AssertionResultEPKcS4_RKT_RKT0_
FNDA:10,_ZN7testing8internal11CmpHelperEQIA19_cSsEENS_15AssertionResultEPKcS5_RKT_RKT0_
FNDA:50,_ZN7testing8internal11CmpHelperEQIA7_cSsEENS_15AssertionResultEPKcS5_RKT_RKT0_
FNDA:50,_ZN7testing8internal8EqHelperILb0EE7CompareISsSsEENS_15AssertionResultEPKcS6_RKT_RKT0_
FNDA:10,_ZN7testing8internal8EqHelperILb0EE7CompareIA19_cSsEENS_15AssertionResultEPKcS7_RKT_RKT0_
FNDA:50,_ZN7testing8internal8EqHelperILb0EE7CompareIA7_cSsEENS_15AssertionResultEPKcS7_RKT_RKT0_
FNF:16
FNH:10
DA:256,620
DA:288,620
DA:297,0
DA:298,0
DA:302,0
DA:389,70
DA:397,70
DA:474,0
DA:1375,0
DA:1382,0
DA:1387,110
DA:1392,110
DA:1393,110
DA:1397,0
DA:1417,110
DA:1421,110
LF:16
LH:9
end_of_record
SF:/usr/local/include/gtest/internal/gtest-internal.h
FN:447,_ZN7testing8internal9GetTypeIdI22HttpMessageRequestTestEEPKvv
FN:466,_ZN7testing8internal15TestFactoryBaseD0Ev
FN:466,_ZN7testing8internal15TestFactoryBaseD2Ev
FN:473,_ZN7testing8internal15TestFactoryBaseC2Ev
FN:482,_ZN7testing8internal15TestFactoryImplI63HttpMessageRequestTest_testObtenerUriDelMensajeHTTPRequest_TestED2Ev
FN:482,_ZN7testing8internal15TestFactoryImplI66HttpMessageRequestTest_testCrearUnMensajeHTTPRequestDesdeCero_TestED2Ev
FN:482,_ZN7testing8internal15TestFactoryImplI63HttpMessageRequestTest_testObtenerUriDelMensajeHTTPRequest_TestED0Ev
FN:482,_ZN7testing8internal15TestFactoryImplI66HttpMessageRequestTest_testObjenerMetodoDelMensajeHTTPRequest_TestED2Ev
FN:482,_ZN7testing8internal15TestFactoryImplI67HttpMessageRequestTest_testObtenerHeadersDelMensajeHTTPRequest_TestEC2Ev
FN:482,_ZN7testing8internal15TestFactoryImplI66HttpMessageRequestTest_testObjenerMetodoDelMensajeHTTPRequest_TestEC2Ev
FN:482,_ZN7testing8internal15TestFactoryImplI66HttpMessageRequestTest_testCrearUnMensajeHTTPRequestDesdeCero_TestED0Ev
FN:482,_ZN7testing8internal15TestFactoryImplI63HttpMessageRequestTest_testObtenerUriDelMensajeHTTPRequest_TestEC2Ev
FN:482,_ZN7testing8internal15TestFactoryImplI67HttpMessageRequestTest_testObtenerHeadersDelMensajeHTTPRequest_TestED0Ev
FN:482,_ZN7testing8internal15TestFactoryImplI66HttpMessageRequestTest_testCrearUnMensajeHTTPRequestDesdeCero_TestEC2Ev
FN:482,_ZN7testing8internal15TestFactoryImplI67HttpMessageRequestTest_testObtenerHeadersDelMensajeHTTPRequest_TestED2Ev
FN:482,_ZN7testing8internal15TestFactoryImplI66HttpMessageRequestTest_testObjenerMetodoDelMensajeHTTPRequest_TestED0Ev
FN:484,_ZN7testing8internal15TestFactoryImplI66HttpMessageRequestTest_testObjenerMetodoDelMensajeHTTPRequest_TestE10CreateTestEv
FN:484,_ZN7testing8internal15TestFactoryImplI63HttpMessageRequestTest_testObtenerUriDelMensajeHTTPRequest_TestE10CreateTestEv
FN:484,_ZN7testing8internal15TestFactoryImplI66HttpMessageRequestTest_testCrearUnMensajeHTTPRequestDesdeCero_TestE10CreateTestEv
FN:484,_ZN7testing8internal15TestFactoryImplI67HttpMessageRequestTest_testObtenerHeadersDelMensajeHTTPRequest_TestE10CreateTestEv
FN:504,_ZN7testing8internal12CodeLocationD2Ev
FN:505,_ZN7testing8internal12CodeLocationC2ERKSsi
FNDA:40,_ZN7testing8internal9GetTypeIdI22HttpMessageRequestTestEEPKvv
FNDA:0,_ZN7testing8internal15TestFactoryBaseD0Ev
FNDA:330,_ZN7testing8internal15TestFactoryBaseD2Ev
FNDA:330,_ZN7testing8internal15TestFactoryBaseC2Ev
FNDA:10,_ZN7testing8internal15TestFactoryImplI66HttpMessageRequestTest_testObjenerMetodoDelMensajeHTTPRequest_TestED0Ev
FNDA:10,_ZN7testing8internal15TestFactoryImplI66HttpMessageRequestTest_testObjenerMetodoDelMensajeHTTPRequest_TestED2Ev
FNDA:10,_ZN7testing8internal15TestFactoryImplI63HttpMessageRequestTest_testObtenerUriDelMensajeHTTPRequest_TestED0Ev
FNDA:10,_ZN7testing8internal15TestFactoryImplI63HttpMessageRequestTest_testObtenerUriDelMensajeHTTPRequest_TestED2Ev
FNDA:10,_ZN7testing8internal15TestFactoryImplI67HttpMessageRequestTest_testObtenerHeadersDelMensajeHTTPRequest_TestED0Ev
FNDA:10,_ZN7testing8internal15TestFactoryImplI67HttpMessageRequestTest_testObtenerHeadersDelMensajeHTTPRequest_TestED2Ev
FNDA:10,_ZN7testing8internal15TestFactoryImplI66HttpMessageRequestTest_testCrearUnMensajeHTTPRequestDesdeCero_TestED0Ev
FNDA:10,_ZN7testing8internal15TestFactoryImplI66HttpMessageRequestTest_testCrearUnMensajeHTTPRequestDesdeCero_TestED2Ev
FNDA:10,_ZN7testing8internal15TestFactoryImplI66HttpMessageRequestTest_testCrearUnMensajeHTTPRequestDesdeCero_TestEC2Ev
FNDA:10,_ZN7testing8internal15TestFactoryImplI67HttpMessageRequestTest_testObtenerHeadersDelMensajeHTTPRequest_TestEC2Ev
FNDA:10,_ZN7testing8internal15TestFactoryImplI63HttpMessageRequestTest_testObtenerUriDelMensajeHTTPRequest_TestEC2Ev
FNDA:10,_ZN7testing8internal15TestFactoryImplI66HttpMessageRequestTest_testObjenerMetodoDelMensajeHTTPRequest_TestEC2Ev
FNDA:10,_ZN7testing8internal15TestFactoryImplI66HttpMessageRequestTest_testObjenerMetodoDelMensajeHTTPRequest_TestE10CreateTestEv
FNDA:10,_ZN7testing8internal15TestFactoryImplI63HttpMessageRequestTest_testObtenerUriDelMensajeHTTPRequest_TestE10CreateTestEv
FNDA:10,_ZN7testing8internal15TestFactoryImplI67HttpMessageRequestTest_testObtenerHeadersDelMensajeHTTPRequest_TestE10CreateTestEv
FNDA:10,_ZN7testing8internal15TestFactoryImplI66HttpMessageRequestTest_testCrearUnMensajeHTTPRequestDesdeCero_TestE10CreateTestEv
FNDA:990,_ZN7testing8internal12CodeLocationD2Ev
FNDA:330,_ZN7testing8internal12CodeLocationC2ERKSsi
FNF:22
FNH:21
DA:447,40
DA:452,40
DA:466,330
DA:473,330
DA:482,120
DA:484,40
DA:504,990
DA:505,330
LF:8
LH:8
end_of_record
SF:/usr/local/include/gtest/internal/gtest-port.h
FN:1120,_ZN7testing8internal10scoped_ptrISsED2Ev
FN:1120,_ZN7testing8internal10scoped_ptrISt18basic_stringstreamIcSt11char_traitsIcESaIcEEED2Ev
FN:1123,_ZNK7testing8internal10scoped_ptrISsEptEv
FN:1124,_ZNK7testing8internal10scoped_ptrISsE3getEv
FN:1132,_ZN7testing8internal10scoped_ptrISsE5resetEPSs
FN:1132,_ZN7testing8internal10scoped_ptrISt18basic_stringstreamIcSt11char_traitsIcESaIcEEE5resetEPS6_
FNDA:620,_ZN7testing8internal10scoped_ptrISsED2Ev
FNDA:930,_ZN7testing8internal10scoped_ptrISt18basic_stringstreamIcSt11char_traitsIcESaIcEEED2Ev
FNDA:0,_ZNK7testing8internal10scoped_ptrISsEptEv
FNDA:0,_ZNK7testing8internal10scoped_ptrISsE3getEv
FNDA:930,_ZN7testing8internal10scoped_ptrISt18basic_stringstreamIcSt11char_traitsIcESaIcEEE5resetEPS6_
FNDA:620,_ZN7testing8internal10scoped_ptrISsE5resetEPSs
FNF:6
FNH:4
DA:1120,1550
DA:1123,0
DA:1124,0
DA:1132,1550
DA:1133,1550
DA:1134,930
DA:1135,930
DA:1137,930
DA:1139,1550
LF:9
LH:7
end_of_record
TN:
SF:/home/diego/Desktop/taller2-appserver/ContenidoParaLasPruebas/TestCases/SesionesDeUsuariosTests.cpp
FN:6,_ZN22SesionesDeUsuariosTestC2Ev
FN:6,_ZN22SesionesDeUsuariosTestD2Ev
FN:6,_ZN22SesionesDeUsuariosTestD0Ev
FN:9,_ZN22SesionesDeUsuariosTest5SetUpEv
FN:13,_ZN22SesionesDeUsuariosTest8TearDownEv
FN:22,_Z41__static_initialization_and_destruction_0ii
FN:22,_ZN57SesionesDeUsuariosTest_testAgregarUnaSesionDeUsuario_TestD2Ev
FN:22,_ZN57SesionesDeUsuariosTest_testAgregarUnaSesionDeUsuario_TestC2Ev
FN:22,_ZN57SesionesDeUsuariosTest_testAgregarUnaSesionDeUsuario_TestD0Ev
FN:22,_ZN57SesionesDeUsuariosTest_testAgregarUnaSesionDeUsuario_Test8TestBodyEv
FN:28,_ZN60SesionesDeUsuariosTest_testValidarUsuarioTokenCorrectos_TestD2Ev
FN:28,_ZN60SesionesDeUsuariosTest_testValidarUsuarioTokenCorrectos_Test8TestBodyEv
FN:28,_ZN60SesionesDeUsuariosTest_testValidarUsuarioTokenCorrectos_TestD0Ev
FN:28,_ZN60SesionesDeUsuariosTest_testValidarUsuarioTokenCorrectos_TestC2Ev
FN:34,_ZN62SesionesDeUsuariosTest_testValidarUsuarioTokenIncorrectos_TestC2Ev
FN:34,_ZN62SesionesDeUsuariosTest_testValidarUsuarioTokenIncorrectos_TestD0Ev
FN:34,_ZN62SesionesDeUsuariosTest_testValidarUsuarioTokenIncorrectos_Test8TestBodyEv
FN:34,_ZN62SesionesDeUsuariosTest_testValidarUsuarioTokenIncorrectos_TestD2Ev
FN:41,_GLOBAL__sub_I__ZN57SesionesDeUsuariosTest_testAgregarUnaSesionDeUsuario_Test10test_info_E
FNDA:0,_ZN22SesionesDeUsuariosTestD0Ev
FNDA:30,_ZN22SesionesDeUsuariosTestD2Ev
FNDA:30,_ZN22SesionesDeUsuariosTestC2Ev
FNDA:30,_ZN22SesionesDeUsuariosTest5SetUpEv
FNDA:30,_ZN22SesionesDeUsuariosTest8TearDownEv
FNDA:10,_ZN57SesionesDeUsuariosTest_testAgregarUnaSesionDeUsuario_TestD0Ev
FNDA:10,_ZN57SesionesDeUsuariosTest_testAgregarUnaSesionDeUsuario_TestD2Ev
FNDA:10,_ZN57SesionesDeUsuariosTest_testAgregarUnaSesionDeUsuario_Test8TestBodyEv
FNDA:10,_ZN57SesionesDeUsuariosTest_testAgregarUnaSesionDeUsuario_TestC2Ev
FNDA:10,_ZN60SesionesDeUsuariosTest_testValidarUsuarioTokenCorrectos_TestD0Ev
FNDA:10,_ZN60SesionesDeUsuariosTest_testValidarUsuarioTokenCorrectos_TestD2Ev
FNDA:10,_ZN60SesionesDeUsuariosTest_testValidarUsuarioTokenCorrectos_Test8TestBodyEv
FNDA:10,_ZN60SesionesDeUsuariosTest_testValidarUsuarioTokenCorrectos_TestC2Ev
FNDA:10,_ZN62SesionesDeUsuariosTest_testValidarUsuarioTokenIncorrectos_TestD0Ev
FNDA:10,_ZN62SesionesDeUsuariosTest_testValidarUsuarioTokenIncorrectos_TestD2Ev
FNDA:10,_ZN62SesionesDeUsuariosTest_testValidarUsuarioTokenIncorrectos_Test8TestBodyEv
FNDA:10,_ZN62SesionesDeUsuariosTest_testValidarUsuarioTokenIncorrectos_TestC2Ev
FNDA:10,_GLOBAL__sub_I__ZN57SesionesDeUsuariosTest_testAgregarUnaSesionDeUsuario_Test10test_info_E
FNDA:10,_Z41__static_initialization_and_destruction_0ii
FNF:19
FNH:18
DA:6,60
DA:9,30
DA:10,30
DA:11,30
DA:13,30
DA:14,30
DA:15,30
DA:22,50
DA:23,10
DA:24,10
DA:28,50
DA:29,10
DA:30,10
DA:34,50
DA:36,10
DA:37,10
DA:38,10
DA:39,10
DA:41,30
LF:19
LH:19
end_of_record
SF:/usr/include/c++/4.8/bits/basic_string.h
FN:272,_ZNSs12_Alloc_hiderD2Ev
FNDA:0,_ZNSs12_Alloc_hiderD2Ev
FNF:1
FNH:0
DA:272,0
LF:1
LH:0
end_of_record
SF:/usr/include/c++/4.8/ext/atomicity.h
FN:48,_ZN9__gnu_cxxL18__exchange_and_addEPVii
FN:65,_ZN9__gnu_cxxL25__exchange_and_add_singleEPii
FN:78,_ZN9__gnu_cxxL27__exchange_and_add_dispatchEPii
FNDA:0,_ZN9__gnu_cxxL18__exchange_and_addEPVii
FNDA:0,_ZN9__gnu_cxxL25__exchange_and_add_singleEPii
FNDA:0,_ZN9__gnu_cxxL27__exchange_and_add_dispatchEPii
FNF:3
FNH:0
DA:48,0
DA:49,0
DA:65,0
DA:67,0
DA:68,0
DA:69,0
DA:78,0
DA:81,0
DA:82,0
DA:84,0
LF:10
LH:0
end_of_record
SF:/usr/include/c++/4.8/ext/new_allocator.h
FN:79,_ZN9__gnu_cxx13new_allocatorIcEC2Ev
FN:81,_ZN9__gnu_cxx13new_allocatorIcEC2ERKS1_
FN:86,_ZN9__gnu_cxx13new_allocatorIcED2Ev
FNDA:0,_ZN9__gnu_cxx13new_allocatorIcEC2Ev
FNDA:0,_ZN9__gnu_cxx13new_allocatorIcEC2ERKS1_
FNDA:0,_ZN9__gnu_cxx13new_allocatorIcED2Ev
FNF:3
FNH:0
DA:79,0
DA:81,0
DA:86,0
LF:3
LH:0
end_of_record
SF:/usr/include/c++/4.8/iostream
DA:74,10
LF:1
LH:1
end_of_record
SF:/usr/include/x86_64-linux-gnu/c++/4.8/bits/gthr-default.h
FN:247,_ZL18__gthread_active_pv
FNDA:0,_ZL18__gthread_active_pv
FNF:1
FNH:0
DA:247,0
DA:251,0
LF:2
LH:0
end_of_record
SF:/usr/local/include/gtest/gtest-message.h
FN:85,_ZN7testing7MessageD2Ev
FNDA:0,_ZN7testing7MessageD2Ev
FNF:1
FNH:0
DA:85,0
LF:1
LH:0
end_of_record
SF:/usr/local/include/gtest/gtest.h
FN:256,_ZN7testing15AssertionResultD2Ev
FN:272,_ZN7testing15AssertionResultC2IbEERKT_PNS_8internal8EnableIfIXntsrNS5_21ImplicitlyConvertibleIS2_S0_EE5valueEE4typeE
FN:288,_ZNK7testing15AssertionResultcvbEv
FN:389,_ZN7testing4Test13SetUpTestCaseEv
FN:397,_ZN7testing4Test16TearDownTestCaseEv
FN:474,_ZN7testing4Test5SetupEv
FNDA:0,_ZN7testing15AssertionResultD2Ev
FNDA:0,_ZN7testing15AssertionResultC2IbEERKT_PNS_8internal8EnableIfIXntsrNS5_21ImplicitlyConvertibleIS2_S0_EE5valueEE4typeE
FNDA:0,_ZNK7testing15AssertionResultcvbEv
FNDA:0,_ZN7testing4Test13SetUpTestCaseEv
FNDA:0,_ZN7testing4Test16TearDownTestCaseEv
FNDA:0,_ZN7testing4Test5SetupEv
FNF:6
FNH:0
DA:256,0
DA:272,0
DA:277,0
DA:288,0
DA:389,0
DA:397,0
DA:474,0
LF:7
LH:0
end_of_record
SF:/usr/local/include/gtest/internal/gtest-internal.h
FN:447,_ZN7testing8internal9GetTypeIdI22SesionesDeUsuariosTestEEPKvv
FN:466,_ZN7testing8internal15TestFactoryBaseD2Ev
FN:466,_ZN7testing8internal15TestFactoryBaseD0Ev
FN:473,_ZN7testing8internal15TestFactoryBaseC2Ev
FN:482,_ZN7testing8internal15TestFactoryImplI60SesionesDeUsuariosTest_testValidarUsuarioTokenCorrectos_TestED2Ev
FN:482,_ZN7testing8internal15TestFactoryImplI60SesionesDeUsuariosTest_testValidarUsuarioTokenCorrectos_TestED0Ev
FN:482,_ZN7testing8internal15TestFactoryImplI62SesionesDeUsuariosTest_testValidarUsuarioTokenIncorrectos_TestED2Ev
FN:482,_ZN7testing8internal15TestFactoryImplI57SesionesDeUsuariosTest_testAgregarUnaSesionDeUsuario_TestED0Ev
FN:482,_ZN7testing8internal15TestFactoryImplI62SesionesDeUsuariosTest_testValidarUsuarioTokenIncorrectos_TestED0Ev
FN:482,_ZN7testing8internal15TestFactoryImplI57SesionesDeUsuariosTest_testAgregarUnaSesionDeUsuario_TestED2Ev
FN:482,_ZN7testing8internal15TestFactoryImplI62SesionesDeUsuariosTest_testValidarUsuarioTokenIncorrectos_TestEC2Ev
FN:482,_ZN7testing8internal15TestFactoryImplI57SesionesDeUsuariosTest_testAgregarUnaSesionDeUsuario_TestEC2Ev
FN:482,_ZN7testing8internal15TestFactoryImplI60SesionesDeUsuariosTest_testValidarUsuarioTokenCorrectos_TestEC2Ev
FN:484,_ZN7testing8internal15TestFactoryImplI60SesionesDeUsuariosTest_testValidarUsuarioTokenCorrectos_TestE10CreateTestEv
FN:484,_ZN7testing8internal15TestFactoryImplI57SesionesDeUsuariosTest_testAgregarUnaSesionDeUsuario_TestE10CreateTestEv
FN:484,_ZN7testing8internal15TestFactoryImplI62SesionesDeUsuariosTest_testValidarUsuarioTokenIncorrectos_TestE10CreateTestEv
FN:504,_ZN7testing8internal12CodeLocationD2Ev
FN:505,_ZN7testing8internal12CodeLocationC2ERKSsi
FNDA:30,_ZN7testing8internal9GetTypeIdI22SesionesDeUsuariosTestEEPKvv
FNDA:0,_ZN7testing8internal15TestFactoryBaseD0Ev
FNDA:0,_ZN7testing8internal15TestFactoryBaseD2Ev
FNDA:0,_ZN7testing8internal15TestFactoryBaseC2Ev
FNDA:10,_ZN7testing8internal15TestFactoryImplI57SesionesDeUsuariosTest_testAgregarUnaSesionDeUsuario_TestED0Ev
FNDA:10,_ZN7testing8internal15TestFactoryImplI57SesionesDeUsuariosTest_testAgregarUnaSesionDeUsuario_TestED2Ev
FNDA:10,_ZN7testing8internal15TestFactoryImplI60SesionesDeUsuariosTest_testValidarUsuarioTokenCorrectos_TestED0Ev
FNDA:10,_ZN7testing8internal15TestFactoryImplI60SesionesDeUsuariosTest_testValidarUsuarioTokenCorrectos_TestED2Ev
FNDA:10,_ZN7testing8internal15TestFactoryImplI62SesionesDeUsuariosTest_testValidarUsuarioTokenIncorrectos_TestED0Ev
FNDA:10,_ZN7testing8internal15TestFactoryImplI62SesionesDeUsuariosTest_testValidarUsuarioTokenIncorrectos_TestED2Ev
FNDA:10,_ZN7testing8internal15TestFactoryImplI62SesionesDeUsuariosTest_testValidarUsuarioTokenIncorrectos_TestEC2Ev
FNDA:10,_ZN7testing8internal15TestFactoryImplI60SesionesDeUsuariosTest_testValidarUsuarioTokenCorrectos_TestEC2Ev
FNDA:10,_ZN7testing8internal15TestFactoryImplI57SesionesDeUsuariosTest_testAgregarUnaSesionDeUsuario_TestEC2Ev
FNDA:10,_ZN7testing8internal15TestFactoryImplI57SesionesDeUsuariosTest_testAgregarUnaSesionDeUsuario_TestE10CreateTestEv
FNDA:10,_ZN7testing8internal15TestFactoryImplI60SesionesDeUsuariosTest_testValidarUsuarioTokenCorrectos_TestE10CreateTestEv
FNDA:10,_ZN7testing8internal15TestFactoryImplI62SesionesDeUsuariosTest_testValidarUsuarioTokenIncorrectos_TestE10CreateTestEv
FNDA:0,_ZN7testing8internal12CodeLocationD2Ev
FNDA:0,_ZN7testing8internal12CodeLocationC2ERKSsi
FNF:18
FNH:13
DA:447,30
DA:452,30
DA:466,0
DA:473,0
DA:482,90
DA:484,30
DA:504,0
DA:505,0
LF:8
LH:4
end_of_record
SF:/usr/local/include/gtest/internal/gtest-port.h
FN:1119,_ZN7testing8internal10scoped_ptrISsEC2EPSs
FN:1120,_ZN7testing8internal10scoped_ptrISsED2Ev
FN:1120,_ZN7testing8internal10scoped_ptrISt18basic_stringstreamIcSt11char_traitsIcESaIcEEED2Ev
FN:1132,_ZN7testing8internal10scoped_ptrISsE5resetEPSs
FN:1132,_ZN7testing8internal10scoped_ptrISt18basic_stringstreamIcSt11char_traitsIcESaIcEEE5resetEPS6_
FNDA:0,_ZN7testing8internal10scoped_ptrISsEC2EPSs
FNDA:0,_ZN7testing8internal10scoped_ptrISsED2Ev
FNDA:0,_ZN7testing8internal10scoped_ptrISt18basic_stringstreamIcSt11char_traitsIcESaIcEEED2Ev
FNDA:0,_ZN7testing8internal10scoped_ptrISt18basic_stringstreamIcSt11char_traitsIcESaIcEEE5resetEPS6_
FNDA:0,_ZN7testing8internal10scoped_ptrISsE5resetEPSs
FNF:5
FNH:0
DA:1119,0
DA:1120,0
DA:1132,0
DA:1133,0
DA:1134,0
DA:1135,0
DA:1137,0
DA:1139,0
LF:8
LH:0
end_of_record
TN:
SF:/home/diego/Desktop/taller2-appserver/ContenidoParaLasPruebas/TestCases/ConversacionesTests.cpp
FN:9,_ZN18ConversacionesTestD0Ev
FN:9,_ZN18ConversacionesTestD2Ev
FN:9,_ZN18ConversacionesTestC2Ev
FN:12,_ZN18ConversacionesTest5SetUpEv
FN:16,_ZN18ConversacionesTest8TearDownEv
FN:21,_ZN18ConversacionesTest30agregarMensajesAConversacionesESsSsRSt6vectorISt4pairISsSsESaIS2_EE
FN:36,_ZN18ConversacionesTest20crearListaDeMensajesESsSsi
FN:58,_ZN18ConversacionesTest21verificarMensajeVacioER8Mensajesi
FN:64,_ZN18ConversacionesTest23compararMensajeConListaER8MensajesiRSt6vectorISt4pairISsSsESaIS4_EEi
FN:82,_ZN100ConversacionesTest_testObtenerMensajesEntreUsuariosQueNoConversaronDevuelveUnaConversacionVacia_TestD0Ev
FN:82,_ZN100ConversacionesTest_testObtenerMensajesEntreUsuariosQueNoConversaronDevuelveUnaConversacionVacia_TestC2Ev
FN:82,_ZN100ConversacionesTest_testObtenerMensajesEntreUsuariosQueNoConversaronDevuelveUnaConversacionVacia_Test8TestBodyEv
FN:82,_ZN100ConversacionesTest_testObtenerMensajesEntreUsuariosQueNoConversaronDevuelveUnaConversacionVacia_TestD2Ev
FN:82,_Z41__static_initialization_and_destruction_0ii
FN:92,_ZN78ConversacionesTest_testObtenerElMensajeDeUnaConversacionConUnUnicoMensaje_TestD2Ev
FN:92,_ZN78ConversacionesTest_testObtenerElMensajeDeUnaConversacionConUnUnicoMensaje_TestD0Ev
FN:92,_ZN78ConversacionesTest_testObtenerElMensajeDeUnaConversacionConUnUnicoMensaje_TestC2Ev
FN:92,_ZN78ConversacionesTest_testObtenerElMensajeDeUnaConversacionConUnUnicoMensaje_Test8TestBodyEv
FN:108,_ZN69ConversacionesTest_testElMensajeDeMenorIndiceEsElMensajeMasNuevo_TestD0Ev
FN:108,_ZN69ConversacionesTest_testElMensajeDeMenorIndiceEsElMensajeMasNuevo_Test8TestBodyEv
FN:108,_ZN69ConversacionesTest_testElMensajeDeMenorIndiceEsElMensajeMasNuevo_TestC2Ev
FN:108,_ZN69ConversacionesTest_testElMensajeDeMenorIndiceEsElMensajeMasNuevo_TestD2Ev
FN:127,_ZN86ConversacionesTest_testSiSePidenMasMensajesDeLosQueHaySeDevuelvenTodosLosMensajes_Test8TestBodyEv
FN:127,_ZN86ConversacionesTest_testSiSePidenMasMensajesDeLosQueHaySeDevuelvenTodosLosMensajes_TestD0Ev
FN:127,_ZN86ConversacionesTest_testSiSePidenMasMensajesDeLosQueHaySeDevuelvenTodosLosMensajes_TestC2Ev
FN:127,_ZN86ConversacionesTest_testSiSePidenMasMensajesDeLosQueHaySeDevuelvenTodosLosMensajes_TestD2Ev
FN:149,_ZN85ConversacionesTest_testPedirUnaCantidadDeMensajesDesdeUnMensajeQueNoSeaElPrimero_Test8TestBodyEv
FN:149,_ZN85ConversacionesTest_testPedirUnaCantidadDeMensajesDesdeUnMensajeQueNoSeaElPrimero_TestD2Ev
FN:149,_ZN85ConversacionesTest_testPedirUnaCantidadDeMensajesDesdeUnMensajeQueNoSeaElPrimero_TestD0Ev
FN:149,_ZN85ConversacionesTest_testPedirUnaCantidadDeMensajesDesdeUnMensajeQueNoSeaElPrimero_TestC2Ev
FN:181,_ZN201ConversacionesTest_testSiLaCantidadDeMensajesQueSePideDesdeElNroDeMensajeIndicadoEsMayorALaCantidadDeMensajesAPartirDelNroDeMensajeIndicadoSeDevuelvenTodosLosMensajesAPartirDelNroDeMensajeIndicado_TestC2Ev
FN:181,_ZN201ConversacionesTest_testSiLaCantidadDeMensajesQueSePideDesdeElNroDeMensajeIndicadoEsMayorALaCantidadDeMensajesAPartirDelNroDeMensajeIndicadoSeDevuelvenTodosLosMensajesAPartirDelNroDeMensajeIndicado_TestD2Ev
FN:181,_ZN201ConversacionesTest_testSiLaCantidadDeMensajesQueSePideDesdeElNroDeMensajeIndicadoEsMayorALaCantidadDeMensajesAPartirDelNroDeMensajeIndicadoSeDevuelvenTodosLosMensajesAPartirDelNroDeMensajeIndicado_TestD0Ev
FN:181,_ZN201ConversacionesTest_testSiLaCantidadDeMensajesQueSePideDesdeElNroDeMensajeIndicadoEsMayorALaCantidadDeMensajesAPartirDelNroDeMensajeIndicadoSeDevuelvenTodosLosMensajesAPartirDelNroDeMensajeIndicado_Test8TestBodyEv
FN:200,_GLOBAL__sub_I__ZN100ConversacionesTest_testObtenerMensajesEntreUsuariosQueNoConversaronDevuelveUnaConversacionVacia_Test10test_info_E
FNDA:0,_ZN18ConversacionesTestD0Ev
FNDA:60,_ZN18ConversacionesTestD2Ev
FNDA:60,_ZN18ConversacionesTestC2Ev
FNDA:60,_ZN18ConversacionesTest5SetUpEv
FNDA:60,_ZN18ConversacionesTest8TearDownEv
FNDA:40,_ZN18ConversacionesTest30agregarMensajesAConversacionesESsSsRSt6vectorISt4pairISsSsESaIS2_EE
FNDA:40,_ZN18ConversacionesTest20crearListaDeMensajesESsSsi
FNDA:50,_ZN18ConversacionesTest21verificarMensajeVacioER8Mensajesi
FNDA:140,_ZN18ConversacionesTest23compararMensajeConListaER8MensajesiRSt6vectorISt4pairISsSsESaIS4_EEi
FNDA:10,_ZN100ConversacionesTest_testObtenerMensajesEntreUsuariosQueNoConversaronDevuelveUnaConversacionVacia_TestD0Ev
FNDA:10,_ZN100ConversacionesTest_testObtenerMensajesEntreUsuariosQueNoConversaronDevuelveUnaConversacionVacia_TestD2Ev
FNDA:10,_ZN100ConversacionesTest_testObtenerMensajesEntreUsuariosQueNoConversaronDevuelveUnaConversacionVacia_Test8TestBodyEv
FNDA:10,_ZN100ConversacionesTest_testObtenerMensajesEntreUsuariosQueNoConversaronDevuelveUnaConversacionVacia_TestC2Ev
FNDA:10,_ZN78ConversacionesTest_testObtenerElMensajeDeUnaConversacionConUnUnicoMensaje_TestD0Ev
FNDA:10,_ZN78ConversacionesTest_testObtenerElMensajeDeUnaConversacionConUnUnicoMensaje_TestD2Ev
FNDA:10,_ZN78ConversacionesTest_testObtenerElMensajeDeUnaConversacionConUnUnicoMensaje_Test8TestBodyEv
FNDA:10,_ZN78ConversacionesTest_testObtenerElMensajeDeUnaConversacionConUnUnicoMensaje_TestC2Ev
FNDA:10,_ZN69ConversacionesTest_testElMensajeDeMenorIndiceEsElMensajeMasNuevo_TestD0Ev
FNDA:10,_ZN69ConversacionesTest_testElMensajeDeMenorIndiceEsElMensajeMasNuevo_TestD2Ev
FNDA:10,_ZN69ConversacionesTest_testElMensajeDeMenorIndiceEsElMensajeMasNuevo_Test8TestBodyEv
FNDA:10,_ZN69ConversacionesTest_testElMensajeDeMenorIndiceEsElMensajeMasNuevo_TestC2Ev
FNDA:10,_ZN86ConversacionesTest_testSiSePidenMasMensajesDeLosQueHaySeDevuelvenTodosLosMensajes_TestD0Ev
FNDA:10,_ZN86ConversacionesTest_testSiSePidenMasMensajesDeLosQueHaySeDevuelvenTodosLosMensajes_TestD2Ev
FNDA:10,_ZN86ConversacionesTest_testSiSePidenMasMensajesDeLosQueHaySeDevuelvenTodosLosMensajes_Test8TestBodyEv
FNDA:10,_ZN86ConversacionesTest_testSiSePidenMasMensajesDeLosQueHaySeDevuelvenTodosLosMensajes_TestC2Ev
FNDA:10,_ZN85ConversacionesTest_testPedirUnaCantidadDeMensajesDesdeUnMensajeQueNoSeaElPrimero_TestD0Ev
FNDA:10,_ZN85ConversacionesTest_testPedirUnaCantidadDeMensajesDesdeUnMensajeQueNoSeaElPrimero_TestD2Ev
FNDA:10,_ZN85ConversacionesTest_testPedirUnaCantidadDeMensajesDesdeUnMensajeQueNoSeaElPrimero_Test8TestBodyEv
FNDA:10,_ZN85ConversacionesTest_testPedirUnaCantidadDeMensajesDesdeUnMensajeQueNoSeaElPrimero_TestC2Ev
FNDA:10,_ZN201ConversacionesTest_testSiLaCantidadDeMensajesQueSePideDesdeElNroDeMensajeIndicadoEsMayorALaCantidadDeMensajesAPartirDelNroDeMensajeIndicadoSeDevuelvenTodosLosMensajesAPartirDelNroDeMensajeIndicado_TestD0Ev
FNDA:10,_ZN201ConversacionesTest_testSiLaCantidadDeMensajesQueSePideDesdeElNroDeMensajeIndicadoEsMayorALaCantidadDeMensajesAPartirDelNroDeMensajeIndicadoSeDevuelvenTodosLosMensajesAPartirDelNroDeMensajeIndicado_TestD2Ev
FNDA:10,_ZN201ConversacionesTest_testSiLaCantidadDeMensajesQueSePideDesdeElNroDeMensajeIndicadoEsMayorALaCantidadDeMensajesAPartirDelNroDeMensajeIndicadoSeDevuelvenTodosLosMensajesAPartirDelNroDeMensajeIndicado_Test8TestBodyEv
FNDA:10,_ZN201ConversacionesTest_testSiLaCantidadDeMensajesQueSePideDesdeElNroDeMensajeIndicadoEsMayorALaCantidadDeMensajesAPartirDelNroDeMensajeIndicadoSeDevuelvenTodosLosMensajesAPartirDelNroDeMensajeIndicado_TestC2Ev
FNDA:10,_GLOBAL__sub_I__ZN100ConversacionesTest_testObtenerMensajesEntreUsuariosQueNoConversaronDevuelveUnaConversacionVacia_Test10test_info_E
FNDA:10,_Z41__static_initialization_and_destruction_0ii
FNF:35
FNH:34
DA:9,120
DA:12,60
DA:13,60
DA:14,60
DA:16,60
DA:17,60
DA:18,60
DA:19,60
DA:21,40
DA:22,210
DA:23,340
DA:24,170
DA:25,170
DA:26,70
DA:29,100
DA:31,170
DA:32,170
DA:33,40
DA:36,40
DA:38,40
DA:40,80
DA:41,210
DA:42,170
DA:44,170
DA:45,170
DA:46,100
DA:49,70
DA:51,170
DA:52,170
DA:53,170
DA:54,80
DA:58,50
DA:59,50
DA:64,140
DA:65,700
DA:66,560
DA:82,50
DA:83,20
DA:84,10
DA:85,10
DA:87,20
DA:88,20
DA:92,50
DA:93,20
DA:94,10
DA:95,10
DA:98,20
DA:99,10
DA:102,20
DA:103,10
DA:104,20
DA:108,50
DA:109,20
DA:110,10
DA:111,10
DA:114,20
DA:115,10
DA:118,20
DA:120,10
DA:121,10
DA:122,10
DA:123,20
DA:127,50
DA:128,20
DA:129,10
DA:130,10
DA:132,20
DA:133,10
DA:136,20
DA:139,10
DA:140,10
DA:141,10
DA:143,20
DA:149,50
DA:150,20
DA:152,10
DA:153,10
DA:156,20
DA:157,10
DA:160,20
DA:161,10
DA:162,10
DA:164,10
DA:167,10
DA:168,10
DA:169,10
DA:170,10
DA:172,20
DA:181,50
DA:183,20
DA:184,10
DA:185,10
DA:186,20
DA:187,10
DA:195,20
DA:196,10
DA:197,10
DA:199,20
DA:200,30
LF:99
LH:99
end_of_record
SF:/usr/include/c++/4.8/bits/alloc_traits.h
FN:253,_ZNSt16allocator_traitsISaISt4pairISsSsEEE12_S_constructIS1_IRKS1_EEENSt9enable_ifIXsrNS3_18__construct_helperIT_IDpT0_EEE5valueEvE4typeERS2_PS9_DpOSA_
FN:280,_ZNSt16allocator_traitsISaISt4pairISsSsEEE10_S_destroyIS1_EENSt9enable_ifIXsrNS3_16__destroy_helperIT_EE5valueEvE4typeERS2_PS7_
FN:305,_ZNSt16allocator_traitsISaISt4pairISsSsEEE11_S_max_sizeIKS2_EENSt9enable_ifIXsrNS3_16__maxsize_helperIT_EE5valueEmE4typeERS8_
FN:391,_ZNSt16allocator_traitsISaISt4pairISsSsEEE9constructIS1_IRKS1_EEEDTcl12_S_constructfp_fp0_spcl7forwardIT0_Efp1_EEERS2_PT_DpOS7_
FN:404,_ZNSt16allocator_traitsISaISt4pairISsSsEEE7destroyIS1_EEvRS2_PT_
FN:415,_ZNSt16allocator_traitsISaISt4pairISsSsEEE8max_sizeERKS2_
FNDA:170,_ZNSt16allocator_traitsISaISt4pairISsSsEEE12_S_constructIS1_IRKS1_EEENSt9enable_ifIXsrNS3_18__construct_helperIT_IDpT0_EEE5valueEvE4typeERS2_PS9_DpOSA_
FNDA:0,_ZNSt16allocator_traitsISaISt4pairISsSsEEE10_S_destroyIS1_EENSt9enable_ifIXsrNS3_16__destroy_helperIT_EE5valueEvE4typeERS2_PS7_
FNDA:280,_ZNSt16allocator_traitsISaISt4pairISsSsEEE11_S_max_sizeIKS2_EENSt9enable_ifIXsrNS3_16__maxsize_helperIT_EE5valueEmE4typeERS8_
FNDA:170,_ZNSt16allocator_traitsISaISt4pairISsSsEEE9constructIS1_IRKS1_EEEDTcl12_S_constructfp_fp0_spcl7forwardIT0_Efp1_EEERS2_PT_DpOS7_
FNDA:0,_ZNSt16allocator_traitsISaISt4pairISsSsEEE7destroyIS1_EEvRS2_PT_
FNDA:280,_ZNSt16allocator_traitsISaISt4pairISsSsEEE8max_sizeERKS2_
FNF:6
FNH:4
DA:253,170
DA:254,170
DA:280,0
DA:281,0
DA:305,280
DA:306,280
DA:391,170
DA:393,170
DA:404,0
DA:405,0
DA:415,280
DA:416,280
LF:12
LH:8
end_of_record
SF:/usr/include/c++/4.8/bits/allocator.h
FN:113,_ZNSaISt4pairISsSsEEC2Ev
FN:121,_ZNSaISt4pairISsSsEED2Ev
FN:133,_ZSteqIcEbRKSaIT_ES3_
FNDA:40,_ZNSaISt4pairISsSsEEC2Ev
FNDA:40,_ZNSaISt4pairISsSsEED2Ev
FNDA:0,_ZSteqIcEbRKSaIT_ES3_
FNF:3
FNH:2
DA:113,40
DA:121,40
DA:133,0
DA:134,0
LF:4
LH:2
end_of_record
SF:/usr/include/c++/4.8/bits/basic_string.h
FN:272,_ZNSs12_Alloc_hiderC2ERKS_
FN:272,_ZNSs12_Alloc_hiderD2Ev
FN:1721,_ZNSs16_S_construct_auxIPcEES0_T_S1_RKSaIcESt12__false_type
FN:1743,_ZNSs12_S_constructIPcEES0_T_S1_RKSaIcE
FN:2442,_ZStplIcSt11char_traitsIcESaIcEESbIT_T0_T1_EOS6_S7_
FN:2454,_ZStplIcSt11char_traitsIcESaIcEESbIT_T0_T1_EPKS3_OS6_
FN:2466,_ZStplIcSt11char_traitsIcESaIcEESbIT_T0_T1_EOS6_PKS3_
FN:2493,_ZSteqIcEN9__gnu_cxx11__enable_ifIXsrSt9__is_charIT_E7__valueEbE6__typeERKSbIS3_St11char_traitsIS3_ESaIS3_EESC_
FN:2864,_ZSt9to_stringi
FNDA:0,_ZNSs12_Alloc_hiderC2ERKS_
FNDA:0,_ZNSs12_Alloc_hiderD2Ev
FNDA:0,_ZNSs16_S_construct_auxIPcEES0_T_S1_RKSaIcESt12__false_type
FNDA:0,_ZNSs12_S_constructIPcEES0_T_S1_RKSaIcE
FNDA:0,_ZStplIcSt11char_traitsIcESaIcEESbIT_T0_T1_EOS6_S7_
FNDA:0,_ZStplIcSt11char_traitsIcESaIcEESbIT_T0_T1_EPKS3_OS6_
FNDA:0,_ZStplIcSt11char_traitsIcESaIcEESbIT_T0_T1_EOS6_PKS3_
FNDA:0,_ZSteqIcEN9__gnu_cxx11__enable_ifIXsrSt9__is_charIT_E7__valueEbE6__typeERKSbIS3_St11char_traitsIS3_ESaIS3_EESC_
FNDA:340,_ZSt9to_stringi
FNF:9
FNH:1
DA:272,0
DA:1721,0
DA:1725,0
DA:1743,0
DA:1746,0
DA:2442,0
DA:2445,0
DA:2446,0
DA:2447,0
DA:2448,0
DA:2449,0
DA:2454,0
DA:2456,0
DA:2466,0
DA:2468,0
DA:2493,0
DA:2495,0
DA:2497,0
DA:2864,340
DA:2866,340
LF:20
LH:2
end_of_record
SF:/usr/include/c++/4.8/bits/basic_string.tcc
FN:123,_ZNSs12_S_constructIPcEES0_T_S1_RKSaIcESt20forward_iterator_tag
FN:227,_ZNSsC2IPcEET_S1_RKSaIcE
FNDA:0,_ZNSs12_S_constructIPcEES0_T_S1_RKSaIcESt20forward_iterator_tag
FNDA:0,_ZNSsC2IPcEET_S1_RKSaIcE
FNF:2
FNH:0
DA:123,0
DA:128,0
DA:129,0
DA:132,0
DA:133,0
DA:136,0
DA:138,0
DA:140,0
DA:141,=====
DA:143,=====
DA:144,=====
DA:146,0
DA:147,0
DA:227,0
DA:229,0
DA:230,0
LF:16
LH:0
end_of_record
SF:/usr/include/c++/4.8/bits/char_traits.h
FN:242,_ZNSt11char_traitsIcE6assignERcRKc
FN:254,_ZNSt11char_traitsIcE7compareEPKcS2_m
FN:258,_ZNSt11char_traitsIcE6lengthEPKc
FN:270,_ZNSt11char_traitsIcE4copyEPcPKcm
FNDA:0,_ZNSt11char_traitsIcE6assignERcRKc
FNDA:0,_ZNSt11char_traitsIcE7compareEPKcS2_m
FNDA:0,_ZNSt11char_traitsIcE6lengthEPKc
FNDA:0,_ZNSt11char_traitsIcE4copyEPcPKcm
FNF:4
FNH:0
DA:242,0
DA:243,0
DA:254,0
DA:255,0
DA:258,0
DA:259,0
DA:270,0
DA:271,0
LF:8
LH:0
end_of_record
SF:/usr/include/c++/4.8/bits/ios_base.h
FN:123,_ZStorSt13_Ios_OpenmodeS_
FNDA:0,_ZStorSt13_Ios_OpenmodeS_
FNF:1
FNH:0
DA:123,0
DA:124,0
LF:2
LH:0
end_of_record
SF:/usr/include/c++/4.8/bits/move.h
FN:47,_ZSt11__addressofISt4pairISsSsEEPT_RS2_
FN:76,_ZSt7forwardISt4pairISsSsEEOT_RNSt16remove_referenceIS2_E4typeE
FN:76,_ZSt7forwardIRKSt4pairISsSsEEOT_RNSt16remove_referenceIS4_E4typeE
FN:101,_ZSt4moveIRSt4pairISsSsEEONSt16remove_referenceIT_E4typeEOS4_
FN:101,_ZSt4moveIRSsEONSt16remove_referenceIT_E4typeEOS2_
FNDA:570,_ZSt11__addressofISt4pairISsSsEEPT_RS2_
FNDA:200,_ZSt7forwardISt4pairISsSsEEOT_RNSt16remove_referenceIS2_E4typeE
FNDA:650,_ZSt7forwardIRKSt4pairISsSsEEOT_RNSt16remove_referenceIS4_E4typeE
FNDA:200,_ZSt4moveIRSt4pairISsSsEEONSt16remove_referenceIT_E4typeEOS4_
FNDA:0,_ZSt4moveIRSsEONSt16remove_referenceIT_E4typeEOS2_
FNF:5
FNH:4
DA:47,570
DA:50,570
DA:76,850
DA:77,850
DA:101,200
DA:102,200
LF:6
LH:6
end_of_record
SF:/usr/include/c++/4.8/bits/stl_algobase.h
FN:216,_ZSt3maxImERKT_S2_S2_
FNDA:5820,_ZSt3maxImERKT_S2_S2_
FNF:1
FNH:1
DA:216,5820
DA:221,5820
DA:222,1530
DA:223,4290
LF:4
LH:4
end_of_record
SF:/usr/include/c++/4.8/bits/stl_construct.h
FN:74,_ZSt10_ConstructISt4pairISsSsEIS1_EEvPT_DpOT0_
FN:92,_ZSt8_DestroyISt4pairISsSsEEvPT_
FN:100,_ZNSt12_Destroy_auxILb0EE9__destroyIPSt4pairISsSsEEEvT_S5_
FN:122,_ZSt8_DestroyIPSt4pairISsSsEEvT_S3_
FN:148,_ZSt8_DestroyIPSt4pairISsSsES1_EvT_S3_RSaIT0_E
FNDA:200,_ZSt10_ConstructISt4pairISsSsEIS1_EEvPT_DpOT0_
FNDA:370,_ZSt8_DestroyISt4pairISsSsEEvPT_
FNDA:180,_ZNSt12_Destroy_auxILb0EE9__destroyIPSt4pairISsSsEEEvT_S5_
FNDA:180,_ZSt8_DestroyIPSt4pairISsSsEEvT_S3_
FNDA:180,_ZSt8_DestroyIPSt4pairISsSsES1_EvT_S3_RSaIT0_E
FNF:5
FNH:5
DA:74,200
DA:75,200
DA:92,370
DA:93,370
DA:100,180
DA:102,550
DA:103,370
DA:104,180
DA:122,180
DA:126,180
DA:128,180
DA:148,180
DA:151,180
DA:152,180
LF:14
LH:14
end_of_record
SF:/usr/include/c++/4.8/bits/stl_iterator.h
FN:950,_ZNSt13move_iteratorIPSt4pairISsSsEEC2ES2_
FN:958,_ZNKSt13move_iteratorIPSt4pairISsSsEE4baseEv
FN:962,_ZNKSt13move_iteratorIPSt4pairISsSsEEdeEv
FN:970,_ZNSt13move_iteratorIPSt4pairISsSsEEppEv
FN:1037,_ZSteqIPSt4pairISsSsEEbRKSt13move_iteratorIT_ES7_
FN:1049,_ZStneIPSt4pairISsSsEEbRKSt13move_iteratorIT_ES7_
FN:1132,_ZSt32__make_move_if_noexcept_iteratorIPSt4pairISsSsESt13move_iteratorIS2_EET0_T_
FNDA:280,_ZNSt13move_iteratorIPSt4pairISsSsEEC2ES2_
FNDA:680,_ZNKSt13move_iteratorIPSt4pairISsSsEE4baseEv
FNDA:200,_ZNKSt13move_iteratorIPSt4pairISsSsEEdeEv
FNDA:200,_ZNSt13move_iteratorIPSt4pairISsSsEEppEv
FNDA:340,_ZSteqIPSt4pairISsSsEEbRKSt13move_iteratorIT_ES7_
FNDA:340,_ZStneIPSt4pairISsSsEEbRKSt13move_iteratorIT_ES7_
FNDA:280,_ZSt32__make_move_if_noexcept_iteratorIPSt4pairISsSsESt13move_iteratorIS2_EET0_T_
FNF:7
FNH:7
DA:950,280
DA:951,280
DA:958,680
DA:959,680
DA:962,200
DA:963,200
DA:970,200
DA:972,200
DA:973,200
DA:1037,340
DA:1039,340
DA:1049,340
DA:1051,340
DA:1132,280
DA:1133,280
LF:15
LH:15
end_of_record
SF:/usr/include/c++/4.8/bits/stl_iterator_base_funcs.h
FN:90,_ZSt10__distanceIPcENSt15iterator_traitsIT_E15difference_typeES2_S2_St26random_access_iterator_tag
FN:114,_ZSt8distanceIPcENSt15iterator_traitsIT_E15difference_typeES2_S2_
FNDA:0,_ZSt10__distanceIPcENSt15iterator_traitsIT_E15difference_typeES2_S2_St26random_access_iterator_tag
FNDA:0,_ZSt8distanceIPcENSt15iterator_traitsIT_E15difference_typeES2_S2_
FNF:2
FNH:0
DA:90,0
DA:96,0
DA:114,0
DA:118,0
LF:4
LH:0
end_of_record
SF:/usr/include/c++/4.8/bits/stl_iterator_base_types.h
FN:201,_ZSt19__iterator_categoryIPcENSt15iterator_traitsIT_E17iterator_categoryERKS2_
FNDA:0,_ZSt19__iterator_categoryIPcENSt15iterator_traitsIT_E17iterator_categoryERKS2_
FNF:1
FNH:0
DA:201,0
DA:202,0
LF:2
LH:0
end_of_record
SF:/usr/include/c++/4.8/bits/stl_pair.h
FN:96,_ZNSt4pairISsSsED2Ev
FN:108,_ZNSt4pairISsSsEC1Ev
FN:127,_ZNSt4pairISsSsEC2ERKS0_
FN:128,_ZNSt4pairISsSsEC2EOS0_
FNDA:540,_ZNSt4pairISsSsED2Ev
FNDA:170,_ZNSt4pairISsSsEC1Ev
FNDA:170,_ZNSt4pairISsSsEC2ERKS0_
FNDA:200,_ZNSt4pairISsSsEC2EOS0_
FNF:4
FNH:4
DA:96,540
DA:108,170
DA:109,170
DA:127,170
DA:128,200
LF:5
LH:5
end_of_record
SF:/usr/include/c++/4.8/bits/stl_uninitialized.h
FN:68,_ZNSt20__uninitialized_copyILb0EE13__uninit_copyISt13move_iteratorIPSt4pairISsSsEES5_EET0_T_S8_S7_
FN:107,_ZSt18uninitialized_copyISt13move_iteratorIPSt4pairISsSsEES3_ET0_T_S6_S5_
FN:256,_ZSt22__uninitialized_copy_aISt13move_iteratorIPSt4pairISsSsEES3_S2_ET0_T_S6_S5_RSaIT1_E
FN:274,_ZSt34__uninitialized_move_if_noexcept_aIPSt4pairISsSsES2_SaIS1_EET0_T_S5_S4_RT1_
FNDA:140,_ZNSt20__uninitialized_copyILb0EE13__uninit_copyISt13move_iteratorIPSt4pairISsSsEES5_EET0_T_S8_S7_
FNDA:140,_ZSt18uninitialized_copyISt13move_iteratorIPSt4pairISsSsEES3_ET0_T_S6_S5_
FNDA:140,_ZSt22__uninitialized_copy_aISt13move_iteratorIPSt4pairISsSsEES3_S2_ET0_T_S6_S5_RSaIT1_E
FNDA:140,_ZSt34__uninitialized_move_if_noexcept_aIPSt4pairISsSsES2_SaIS1_EET0_T_S5_S4_RT1_
FNF:4
FNH:4
DA:68,140
DA:71,140
DA:74,340
DA:75,200
DA:76,140
DA:78,=====
DA:80,=====
DA:81,=====
DA:107,140
DA:117,140
DA:256,140
DA:258,140
DA:274,140
DA:281,140
LF:14
LH:11
end_of_record
SF:/usr/include/c++/4.8/bits/stl_vector.h
FN:79,_ZNSt12_Vector_baseISt4pairISsSsESaIS1_EE12_Vector_implD2Ev
FN:86,_ZNSt12_Vector_baseISt4pairISsSsESaIS1_EE12_Vector_implC2Ev
FN:113,_ZNSt12_Vector_baseISt4pairISsSsESaIS1_EE19_M_get_Tp_allocatorEv
FN:117,_ZNKSt12_Vector_baseISt4pairISsSsESaIS1_EE19_M_get_Tp_allocatorEv
FN:124,_ZNSt12_Vector_baseISt4pairISsSsESaIS1_EEC2Ev
FN:159,_ZNSt12_Vector_baseISt4pairISsSsESaIS1_EED2Ev
FN:167,_ZNSt12_Vector_baseISt4pairISsSsESaIS1_EE11_M_allocateEm
FN:171,_ZNSt12_Vector_baseISt4pairISsSsESaIS1_EE13_M_deallocateEPS1_m
FN:248,_ZNSt6vectorISt4pairISsSsESaIS1_EEC2Ev
FN:414,_ZNSt6vectorISt4pairISsSsESaIS1_EED2Ev
FN:645,_ZNKSt6vectorISt4pairISsSsESaIS1_EE4sizeEv
FN:650,_ZNKSt6vectorISt4pairISsSsESaIS1_EE8max_sizeEv
FN:770,_ZNSt6vectorISt4pairISsSsESaIS1_EEixEm
FN:901,_ZNSt6vectorISt4pairISsSsESaIS1_EE9push_backERKS1_
FN:1336,_ZNKSt6vectorISt4pairISsSsESaIS1_EE12_M_check_lenEmPKc
FNDA:40,_ZNSt12_Vector_baseISt4pairISsSsESaIS1_EE12_Vector_implD2Ev
FNDA:40,_ZNSt12_Vector_baseISt4pairISsSsESaIS1_EE12_Vector_implC2Ev
FNDA:320,_ZNSt12_Vector_baseISt4pairISsSsESaIS1_EE19_M_get_Tp_allocatorEv
FNDA:280,_ZNKSt12_Vector_baseISt4pairISsSsESaIS1_EE19_M_get_Tp_allocatorEv
FNDA:40,_ZNSt12_Vector_baseISt4pairISsSsESaIS1_EEC2Ev
FNDA:40,_ZNSt12_Vector_baseISt4pairISsSsESaIS1_EED2Ev
FNDA:140,_ZNSt12_Vector_baseISt4pairISsSsESaIS1_EE11_M_allocateEm
FNDA:180,_ZNSt12_Vector_baseISt4pairISsSsESaIS1_EE13_M_deallocateEPS1_m
FNDA:40,_ZNSt6vectorISt4pairISsSsESaIS1_EEC2Ev
FNDA:40,_ZNSt6vectorISt4pairISsSsESaIS1_EED2Ev
FNDA:910,_ZNKSt6vectorISt4pairISsSsESaIS1_EE4sizeEv
FNDA:280,_ZNKSt6vectorISt4pairISsSsESaIS1_EE8max_sizeEv
FNDA:620,_ZNSt6vectorISt4pairISsSsESaIS1_EEixEm
FNDA:170,_ZNSt6vectorISt4pairISsSsESaIS1_EE9push_backERKS1_
FNDA:140,_ZNKSt6vectorISt4pairISsSsESaIS1_EE12_M_check_lenEmPKc
FNF:15
FNH:15
DA:79,40
DA:86,40
DA:87,40
DA:88,40
DA:113,320
DA:114,320
DA:117,280
DA:118,280
DA:124,40
DA:125,40
DA:159,40
DA:160,40
DA:161,80
DA:167,140
DA:168,140
DA:171,180
DA:173,180
DA:174,140
DA:175,180
DA:248,40
DA:249,40
DA:414,40
DA:415,40
DA:416,80
DA:645,910
DA:646,910
DA:650,280
DA:651,280
DA:770,620
DA:771,620
DA:901,170
DA:903,170
DA:905,30
DA:906,30
DA:907,30
DA:911,140
DA:915,170
DA:1336,140
DA:1338,140
DA:1339,0
DA:1341,140
DA:1342,140
LF:42
LH:41
end_of_record
SF:/usr/include/c++/4.8/bits/vector.tcc
FN:399,_ZNSt6vectorISt4pairISsSsESaIS1_EE19_M_emplace_back_auxIIRKS1_EEEvDpOT_
FNDA:140,_ZNSt6vectorISt4pairISsSsESaIS1_EE19_M_emplace_back_auxIIRKS1_EEEvDpOT_
FNF:1
FNH:1
DA:399,140
DA:403,140
DA:404,140
DA:405,140
DA:408,280
DA:409,280
DA:410,140
DA:412,140
DA:415,140
DA:417,140
DA:419,=====
DA:421,=====
DA:422,=====
DA:424,=====
DA:425,=====
DA:426,=====
DA:428,140
DA:429,140
DA:430,140
DA:432,140
DA:433,140
DA:434,140
DA:435,140
DA:436,140
LF:24
LH:18
end_of_record
SF:/usr/include/c++/4.8/ext/atomicity.h
FN:48,_ZN9__gnu_cxxL18__exchange_and_addEPVii
FN:65,_ZN9__gnu_cxxL25__exchange_and_add_singleEPii
FN:78,_ZN9__gnu_cxxL27__exchange_and_add_dispatchEPii
FNDA:0,_ZN9__gnu_cxxL18__exchange_and_addEPVii
FNDA:0,_ZN9__gnu_cxxL25__exchange_and_add_singleEPii
FNDA:0,_ZN9__gnu_cxxL27__exchange_and_add_dispatchEPii
FNF:3
FNH:0
DA:48,0
DA:49,0
DA:65,0
DA:67,0
DA:68,0
DA:69,0
DA:78,0
DA:81,0
DA:82,0
DA:84,0
LF:10
LH:0
end_of_record
SF:/usr/include/c++/4.8/ext/new_allocator.h
FN:79,_ZN9__gnu_cxx13new_allocatorISt4pairISsSsEEC2Ev
FN:79,_ZN9__gnu_cxx13new_allocatorIcEC2Ev
FN:81,_ZN9__gnu_cxx13new_allocatorIcEC2ERKS1_
FN:86,_ZN9__gnu_cxx13new_allocatorIcED2Ev
FN:86,_ZN9__gnu_cxx13new_allocatorISt4pairISsSsEED2Ev
FN:99,_ZN9__gnu_cxx13new_allocatorISt4pairISsSsEE8allocateEmPKv
FN:109,_ZN9__gnu_cxx13new_allocatorISt4pairISsSsEE10deallocateEPS2_m
FN:113,_ZNK9__gnu_cxx13new_allocatorISt4pairISsSsEE8max_sizeEv
FN:119,_ZN9__gnu_cxx13new_allocatorISt4pairISsSsEE9constructIS2_IRKS2_EEEvPT_DpOT0_
FN:124,_ZN9__gnu_cxx13new_allocatorISt4pairISsSsEE7destroyIS2_EEvPT_
FNDA:40,_ZN9__gnu_cxx13new_allocatorISt4pairISsSsEEC2Ev
FNDA:0,_ZN9__gnu_cxx13new_allocatorIcEC2Ev
FNDA:0,_ZN9__gnu_cxx13new_allocatorIcEC2ERKS1_
FNDA:40,_ZN9__gnu_cxx13new_allocatorISt4pairISsSsEED2Ev
FNDA:0,_ZN9__gnu_cxx13new_allocatorIcED2Ev
FNDA:140,_ZN9__gnu_cxx13new_allocatorISt4pairISsSsEE8allocateEmPKv
FNDA:140,_ZN9__gnu_cxx13new_allocatorISt4pairISsSsEE10deallocateEPS2_m
FNDA:420,_ZNK9__gnu_cxx13new_allocatorISt4pairISsSsEE8max_sizeEv
FNDA:170,_ZN9__gnu_cxx13new_allocatorISt4pairISsSsEE9constructIS2_IRKS2_EEEvPT_DpOT0_
FNDA:0,_ZN9__gnu_cxx13new_allocatorISt4pairISsSsEE7destroyIS2_EEvPT_
FNF:10
FNH:6
DA:79,40
DA:81,0
DA:86,40
DA:99,140
DA:101,140
DA:102,0
DA:104,140
DA:109,140
DA:110,140
DA:113,420
DA:114,420
DA:119,170
DA:120,170
DA:124,0
LF:14
LH:11
end_of_record
SF:/usr/include/c++/4.8/ext/string_conversions.h
FN:83,_ZN9__gnu_cxx12__to_xstringISscEET_PFiPT0_mPKS2_P13__va_list_tagEmS5_z
FNDA:0,_ZN9__gnu_cxx12__to_xstringISscEET_PFiPT0_mPKS2_P13__va_list_tagEmS5_z
FNF:1
FNH:0
DA:83,0
DA:90,0
DA:93,0
DA:95,0
DA:97,0
DA:99,0
LF:6
LH:0
end_of_record
SF:/usr/include/c++/4.8/ext/type_traits.h
FN:150,_ZN9__gnu_cxx17__is_null_pointerIcEEbPT_
FNDA:0,_ZN9__gnu_cxx17__is_null_pointerIcEEbPT_
FNF:1
FNH:0
DA:150,0
DA:151,0
LF:2
LH:0
end_of_record
SF:/usr/include/c++/4.8/iostream
DA:74,10
LF:1
LH:1
end_of_record
SF:/usr/include/c++/4.8/new
FN:109,_ZnwmPv
FN:115,_ZdlPvS_
FNDA:0,_ZnwmPv
FNDA:0,_ZdlPvS_
FNF:2
FNH:0
DA:109,0
DA:110,0
DA:115,0
LF:3
LH:0
end_of_record
SF:/usr/include/c++/4.8/sstream
FN:64,_ZNSt15basic_stringbufIcSt11char_traitsIcESaIcEED0Ev
FN:64,_ZNSt15basic_stringbufIcSt11char_traitsIcESaIcEED2Ev
FNDA:0,_ZNSt15basic_stringbufIcSt11char_traitsIcESaIcEED0Ev
FNDA:0,_ZNSt15basic_stringbufIcSt11char_traitsIcESaIcEED2Ev
FNF:2
FNH:0
DA:64,0
LF:1
LH:0
end_of_record
SF:/usr/include/x86_64-linux-gnu/c++/4.8/bits/gthr-default.h
FN:247,_ZL18__gthread_active_pv
FNDA:0,_ZL18__gthread_active_pv
FNF:1
FNH:0
DA:247,0
DA:251,0
LF:2
LH:0
end_of_record
SF:/usr/local/include/gtest/gtest-message.h
FN:85,_ZN7testing7MessageD2Ev
FNDA:0,_ZN7testing7MessageD2Ev
FNF:1
FNH:0
DA:85,0
LF:1
LH:0
end_of_record
SF:/usr/local/include/gtest/gtest-printers.h
FN:275,_ZN7testing8internal19FormatForComparisonISsSsE6FormatERKSs
FN:349,_ZN7testing8internal33FormatForComparisonFailureMessageISsSsEESsRKT_RKT0_
FN:565,_ZN7testing8internal7PrintToERKSsPSo
FN:698,_ZN7testing8internal16UniversalPrinterISsE5PrintERKSsPSo
FN:783,_ZN7testing8internal21UniversalTersePrinterISsE5PrintERKSsPSo
FN:852,_ZN7testing8internal14UniversalPrintISsEEvRKT_PSo
FN:980,_ZN7testing13PrintToStringISsEESsRKT_
FNDA:0,_ZN7testing8internal19FormatForComparisonISsSsE6FormatERKSs
FNDA:0,_ZN7testing8internal33FormatForComparisonFailureMessageISsSsEESsRKT_RKT0_
FNDA:0,_ZN7testing8internal7PrintToERKSsPSo
FNDA:0,_ZN7testing8internal16UniversalPrinterISsE5PrintERKSsPSo
FNDA:0,_ZN7testing8internal21UniversalTersePrinterISsE5PrintERKSsPSo
FNDA:0,_ZN7testing8internal14UniversalPrintISsEEvRKT_PSo
FNDA:0,_ZN7testing13PrintToStringISsEESsRKT_
FNF:7
FNH:0
DA:275,0
DA:276,0
DA:349,0
DA:351,0
DA:565,0
DA:566,0
DA:567,0
DA:698,0
DA:707,0
DA:708,0
DA:783,0
DA:784,0
DA:785,0
DA:852,0
DA:856,0
DA:857,0
DA:980,0
DA:981,0
DA:982,0
DA:983,0
LF:20
LH:0
end_of_record
SF:/usr/local/include/gtest/gtest.h
FN:256,_ZN7testing15AssertionResultD2Ev
FN:272,_ZN7testing15AssertionResultC2IbEERKT_PNS_8internal8EnableIfIXntsrNS5_21ImplicitlyConvertibleIS2_S0_EE5valueEE4typeE
FN:288,_ZNK7testing15AssertionResultcvbEv
FN:297,_ZNK7testing15AssertionResult7messageEv
FN:302,_ZNK7testing15AssertionResult15failure_messageEv
FN:389,_ZN7testing4Test13SetUpTestCaseEv
FN:397,_ZN7testing4Test16TearDownTestCaseEv
FN:474,_ZN7testing4Test5SetupEv
FN:1375,_ZN7testing8internal18CmpHelperEQFailureISsSsEENS_15AssertionResultEPKcS4_RKT_RKT0_
FN:1387,_ZN7testing8internal11CmpHelperEQISsSsEENS_15AssertionResultEPKcS4_RKT_RKT0_
FN:1417,_ZN7testing8internal8EqHelperILb0EE7CompareISsSsEENS_15AssertionResultEPKcS6_RKT_RKT0_
FNDA:0,_ZN7testing15AssertionResultD2Ev
FNDA:0,_ZN7testing15AssertionResultC2IbEERKT_PNS_8internal8EnableIfIXntsrNS5_21ImplicitlyConvertibleIS2_S0_EE5valueEE4typeE
FNDA:0,_ZNK7testing15AssertionResultcvbEv
FNDA:0,_ZNK7testing15AssertionResult7messageEv
FNDA:0,_ZNK7testing15AssertionResult15failure_messageEv
FNDA:0,_ZN7testing4Test13SetUpTestCaseEv
FNDA:0,_ZN7testing4Test16TearDownTestCaseEv
FNDA:0,_ZN7testing4Test5SetupEv
FNDA:0,_ZN7testing8internal18CmpHelperEQFailureISsSsEENS_15AssertionResultEPKcS4_RKT_RKT0_
FNDA:0,_ZN7testing8internal11CmpHelperEQISsSsEENS_15AssertionResultEPKcS4_RKT_RKT0_
FNDA:0,_ZN7testing8internal8EqHelperILb0EE7CompareISsSsEENS_15AssertionResultEPKcS6_RKT_RKT0_
FNF:11
FNH:0
DA:256,0
DA:272,0
DA:277,0
DA:288,0
DA:297,0
DA:298,0
DA:302,0
DA:389,0
DA:397,0
DA:474,0
DA:1375,0
DA:1382,0
DA:1387,0
DA:1392,0
DA:1393,0
DA:1397,0
DA:1417,0
DA:1421,0
LF:18
LH:0
end_of_record
SF:/usr/local/include/gtest/internal/gtest-internal.h
FN:447,_ZN7testing8internal9GetTypeIdI18ConversacionesTestEEPKvv
FN:466,_ZN7testing8internal15TestFactoryBaseD0Ev
FN:466,_ZN7testing8internal15TestFactoryBaseD2Ev
FN:473,_ZN7testing8internal15TestFactoryBaseC2Ev
FN:482,_ZN7testing8internal15TestFactoryImplI78ConversacionesTest_testObtenerElMensajeDeUnaConversacionConUnUnicoMensaje_TestED0Ev
FN:482,_ZN7testing8internal15TestFactoryImplI78ConversacionesTest_testObtenerElMensajeDeUnaConversacionConUnUnicoMensaje_TestEC2Ev
FN:482,_ZN7testing8internal15TestFactoryImplI100ConversacionesTest_testObtenerMensajesEntreUsuariosQueNoConversaronDevuelveUnaConversacionVacia_TestED0Ev
FN:482,_ZN7testing8internal15TestFactoryImplI100ConversacionesTest_testObtenerMensajesEntreUsuariosQueNoConversaronDevuelveUnaConversacionVacia_TestED2Ev
FN:482,_ZN7testing8internal15TestFactoryImplI85ConversacionesTest_testPedirUnaCantidadDeMensajesDesdeUnMensajeQueNoSeaElPrimero_TestEC2Ev
FN:482,_ZN7testing8internal15TestFactoryImplI86ConversacionesTest_testSiSePidenMasMensajesDeLosQueHaySeDevuelvenTodosLosMensajes_TestED2Ev
FN:482,_ZN7testing8internal15TestFactoryImplI201ConversacionesTest_testSiLaCantidadDeMensajesQueSePideDesdeElNroDeMensajeIndicadoEsMayorALaCantidadDeMensajesAPartirDelNroDeMensajeIndicadoSeDevuelvenTodosLosMensajesAPartirDelNroDeMensajeIndicado_TestEC2Ev
FN:482,_ZN7testing8internal15TestFactoryImplI201ConversacionesTest_testSiLaCantidadDeMensajesQueSePideDesdeElNroDeMensajeIndicadoEsMayorALaCantidadDeMensajesAPartirDelNroDeMensajeIndicadoSeDevuelvenTodosLosMensajesAPartirDelNroDeMensajeIndicado_TestED2Ev
FN:482,_ZN7testing8internal15TestFactoryImplI69ConversacionesTest_testElMensajeDeMenorIndiceEsElMensajeMasNuevo_TestED0Ev
FN:482,_ZN7testing8internal15TestFactoryImplI78ConversacionesTest_testObtenerElMensajeDeUnaConversacionConUnUnicoMensaje_TestED2Ev
FN:482,_ZN7testing8internal15TestFactoryImplI201ConversacionesTest_testSiLaCantidadDeMensajesQueSePideDesdeElNroDeMensajeIndicadoEsMayorALaCantidadDeMensajesAPartirDelNroDeMensajeIndicadoSeDevuelvenTodosLosMensajesAPartirDelNroDeMensajeIndicado_TestED0Ev
FN:482,_ZN7testing8internal15TestFactoryImplI86ConversacionesTest_testSiSePidenMasMensajesDeLosQueHaySeDevuelvenTodosLosMensajes_TestEC2Ev
FN:482,_ZN7testing8internal15TestFactoryImplI86ConversacionesTest_testSiSePidenMasMensajesDeLosQueHaySeDevuelvenTodosLosMensajes_TestED0Ev
FN:482,_ZN7testing8internal15TestFactoryImplI85ConversacionesTest_testPedirUnaCantidadDeMensajesDesdeUnMensajeQueNoSeaElPrimero_TestED2Ev
FN:482,_ZN7testing8internal15TestFactoryImplI100ConversacionesTest_testObtenerMensajesEntreUsuariosQueNoConversaronDevuelveUnaConversacionVacia_TestEC2Ev
FN:482,_ZN7testing8internal15TestFactoryImplI69ConversacionesTest_testElMensajeDeMenorIndiceEsElMensajeMasNuevo_TestED2Ev
FN:482,_ZN7testing8internal15TestFactoryImplI69ConversacionesTest_testElMensajeDeMenorIndiceEsElMensajeMasNuevo_TestEC2Ev
FN:482,_ZN7testing8internal15TestFactoryImplI85ConversacionesTest_testPedirUnaCantidadDeMensajesDesdeUnMensajeQueNoSeaElPrimero_TestED0Ev
FN:484,_ZN7testing8internal15TestFactoryImplI100ConversacionesTest_testObtenerMensajesEntreUsuariosQueNoConversaronDevuelveUnaConversacionVacia_TestE10CreateTestEv
FN:484,_ZN7testing8internal15TestFactoryImplI78ConversacionesTest_testObtenerElMensajeDeUnaConversacionConUnUnicoMensaje_TestE10CreateTestEv
FN:484,_ZN7testing8internal15TestFactoryImplI201ConversacionesTest_testSiLaCantidadDeMensajesQueSePideDesdeElNroDeMensajeIndicadoEsMayorALaCantidadDeMensajesAPartirDelNroDeMensajeIndicadoSeDevuelvenTodosLosMensajesAPartirDelNroDeMensajeIndicado_TestE10CreateTestEv
FN:484,_ZN7testing8internal15TestFactoryImplI86ConversacionesTest_testSiSePidenMasMensajesDeLosQueHaySeDevuelvenTodosLosMensajes_TestE10CreateTestEv
FN:484,_ZN7testing8internal15TestFactoryImplI69ConversacionesTest_testElMensajeDeMenorIndiceEsElMensajeMasNuevo_TestE10CreateTestEv
FN:484,_ZN7testing8internal15TestFactoryImplI85ConversacionesTest_testPedirUnaCantidadDeMensajesDesdeUnMensajeQueNoSeaElPrimero_TestE10CreateTestEv
FN:504,_ZN7testing8internal12CodeLocationD2Ev
FN:505,_ZN7testing8internal12CodeLocationC2ERKSsi
FNDA:60,_ZN7testing8internal9GetTypeIdI18ConversacionesTestEEPKvv
FNDA:0,_ZN7testing8internal15TestFactoryBaseD0Ev
FNDA:0,_ZN7testing8internal15TestFactoryBaseD2Ev
FNDA:0,_ZN7testing8internal15TestFactoryBaseC2Ev
FNDA:10,_ZN7testing8internal15TestFactoryImplI100ConversacionesTest_testObtenerMensajesEntreUsuariosQueNoConversaronDevuelveUnaConversacionVacia_TestED0Ev
FNDA:10,_ZN7testing8internal15TestFactoryImplI100ConversacionesTest_testObtenerMensajesEntreUsuariosQueNoConversaronDevuelveUnaConversacionVacia_TestED2Ev
FNDA:10,_ZN7testing8internal15TestFactoryImplI78ConversacionesTest_testObtenerElMensajeDeUnaConversacionConUnUnicoMensaje_TestED0Ev
FNDA:10,_ZN7testing8internal15TestFactoryImplI78ConversacionesTest_testObtenerElMensajeDeUnaConversacionConUnUnicoMensaje_TestED2Ev
FNDA:10,_ZN7testing8internal15TestFactoryImplI69ConversacionesTest_testElMensajeDeMenorIndiceEsElMensajeMasNuevo_TestED0Ev
FNDA:10,_ZN7testing8internal15TestFactoryImplI69ConversacionesTest_testElMensajeDeMenorIndiceEsElMensajeMasNuevo_TestED2Ev
FNDA:10,_ZN7testing8internal15TestFactoryImplI86ConversacionesTest_testSiSePidenMasMensajesDeLosQueHaySeDevuelvenTodosLosMensajes_TestED0Ev
FNDA:10,_ZN7testing8internal15TestFactoryImplI86ConversacionesTest_testSiSePidenMasMensajesDeLosQueHaySeDevuelvenTodosLosMensajes_TestED2Ev
FNDA:10,_ZN7testing8internal15TestFactoryImplI85ConversacionesTest_testPedirUnaCantidadDeMensajesDesdeUnMensajeQueNoSeaElPrimero_TestED0Ev
FNDA:10,_ZN7testing8internal15TestFactoryImplI85ConversacionesTest_testPedirUnaCantidadDeMensajesDesdeUnMensajeQueNoSeaElPrimero_TestED2Ev
FNDA:10,_ZN7testing8internal15TestFactoryImplI201ConversacionesTest_testSiLaCantidadDeMensajesQueSePideDesdeElNroDeMensajeIndicadoEsMayorALaCantidadDeMensajesAPartirDelNroDeMensajeIndicadoSeDevuelvenTodosLosMensajesAPartirDelNroDeMensajeIndicado_TestED0Ev
FNDA:10,_ZN7testing8internal15TestFactoryImplI201ConversacionesTest_testSiLaCantidadDeMensajesQueSePideDesdeElNroDeMensajeIndicadoEsMayorALaCantidadDeMensajesAPartirDelNroDeMensajeIndicadoSeDevuelvenTodosLosMensajesAPartirDelNroDeMensajeIndicado_TestED2Ev
FNDA:10,_ZN7testing8internal15TestFactoryImplI201ConversacionesTest_testSiLaCantidadDeMensajesQueSePideDesdeElNroDeMensajeIndicadoEsMayorALaCantidadDeMensajesAPartirDelNroDeMensajeIndicadoSeDevuelvenTodosLosMensajesAPartirDelNroDeMensajeIndicado_TestEC2Ev
FNDA:10,_ZN7testing8internal15TestFactoryImplI85ConversacionesTest_testPedirUnaCantidadDeMensajesDesdeUnMensajeQueNoSeaElPrimero_TestEC2Ev
FNDA:10,_ZN7testing8internal15TestFactoryImplI86ConversacionesTest_testSiSePidenMasMensajesDeLosQueHaySeDevuelvenTodosLosMensajes_TestEC2Ev
FNDA:10,_ZN7testing8internal15TestFactoryImplI69ConversacionesTest_testElMensajeDeMenorIndiceEsElMensajeMasNuevo_TestEC2Ev
FNDA:10,_ZN7testing8internal15TestFactoryImplI78ConversacionesTest_testObtenerElMensajeDeUnaConversacionConUnUnicoMensaje_TestEC2Ev
FNDA:10,_ZN7testing8internal15TestFactoryImplI100ConversacionesTest_testObtenerMensajesEntreUsuariosQueNoConversaronDevuelveUnaConversacionVacia_TestEC2Ev
FNDA:10,_ZN7testing8internal15TestFactoryImplI100ConversacionesTest_testObtenerMensajesEntreUsuariosQueNoConversaronDevuelveUnaConversacionVacia_TestE10CreateTestEv
FNDA:10,_ZN7testing8internal15TestFactoryImplI78ConversacionesTest_testObtenerElMensajeDeUnaConversacionConUnUnicoMensaje_TestE10CreateTestEv
FNDA:10,_ZN7testing8internal15TestFactoryImplI69ConversacionesTest_testElMensajeDeMenorIndiceEsElMensajeMasNuevo_TestE10CreateTestEv
FNDA:10,_ZN7testing8internal15TestFactoryImplI86ConversacionesTest_testSiSePidenMasMensajesDeLosQueHaySeDevuelvenTodosLosMensajes_TestE10CreateTestEv
FNDA:10,_ZN7testing8internal15TestFactoryImplI85ConversacionesTest_testPedirUnaCantidadDeMensajesDesdeUnMensajeQueNoSeaElPrimero_TestE10CreateTestEv
FNDA:10,_ZN7testing8internal15TestFactoryImplI201ConversacionesTest_testSiLaCantidadDeMensajesQueSePideDesdeElNroDeMensajeIndicadoEsMayorALaCantidadDeMensajesAPartirDelNroDeMensajeIndicadoSeDevuelvenTodosLosMensajesAPartirDelNroDeMensajeIndicado_TestE10CreateTestEv
FNDA:0,_ZN7testing8internal12CodeLocationD2Ev
FNDA:0,_ZN7testing8internal12CodeLocationC2ERKSsi
FNF:30
FNH:25
DA:447,60
DA:452,60
DA:466,0
DA:473,0
DA:482,180
DA:484,60
DA:504,0
DA:505,0
LF:8
LH:4
end_of_record
SF:/usr/local/include/gtest/internal/gtest-port.h
FN:1119,_ZN7testing8internal10scoped_ptrISsEC2EPSs
FN:1120,_ZN7testing8internal10scoped_ptrISsED2Ev
FN:1120,_ZN7testing8internal10scoped_ptrISt18basic_stringstreamIcSt11char_traitsIcESaIcEEED2Ev
FN:1123,_ZNK7testing8internal10scoped_ptrISsEptEv
FN:1124,_ZNK7testing8internal10scoped_ptrISsE3getEv
FN:1132,_ZN7testing8internal10scoped_ptrISt18basic_stringstreamIcSt11char_traitsIcESaIcEEE5resetEPS6_
FN:1132,_ZN7testing8internal10scoped_ptrISsE5resetEPSs
FNDA:0,_ZN7testing8internal10scoped_ptrISsEC2EPSs
FNDA:0,_ZN7testing8internal10scoped_ptrISsED2Ev
FNDA:0,_ZN7testing8internal10scoped_ptrISt18basic_stringstreamIcSt11char_traitsIcESaIcEEED2Ev
FNDA:0,_ZNK7testing8internal10scoped_ptrISsEptEv
FNDA:0,_ZNK7testing8internal10scoped_ptrISsE3getEv
FNDA:0,_ZN7testing8internal10scoped_ptrISt18basic_stringstreamIcSt11char_traitsIcESaIcEEE5resetEPS6_
FNDA:0,_ZN7testing8internal10scoped_ptrISsE5resetEPSs
FNF:7
FNH:0
DA:1119,0
DA:1120,0
DA:1123,0
DA:1124,0
DA:1132,0
DA:1133,0
DA:1134,0
DA:1135,0
DA:1137,0
DA:1139,0
LF:10
LH:0
end_of_record
TN:
SF:/home/diego/Desktop/taller2-appserver/ContenidoParaLasPruebas/TestCases/CredencialesDeUsuariosTests.cpp
FN:11,_ZN26CredencialesDeUsuariosTestD0Ev
FN:11,_ZN26CredencialesDeUsuariosTestC2Ev
FN:11,_ZN26CredencialesDeUsuariosTestD2Ev
FN:20,_ZN26CredencialesDeUsuariosTest5SetUpEv
FN:33,_ZN26CredencialesDeUsuariosTest8TearDownEv
FN:55,_ZN67CredencialesDeUsuariosTest_agregarUnNuevoUsuarioDeberiaDarTrue_TestC2Ev
FN:55,_Z41__static_initialization_and_destruction_0ii
FN:55,_ZN67CredencialesDeUsuariosTest_agregarUnNuevoUsuarioDeberiaDarTrue_Test8TestBodyEv
FN:55,_ZN67CredencialesDeUsuariosTest_agregarUnNuevoUsuarioDeberiaDarTrue_TestD0Ev
FN:55,_ZN67CredencialesDeUsuariosTest_agregarUnNuevoUsuarioDeberiaDarTrue_TestD2Ev
FN:61,_ZN82CredencialesDeUsuariosTest_alTratarDeAgregarUnUsuarioExistenteDeberiaDarFalse_TestC2Ev
FN:61,_ZN82CredencialesDeUsuariosTest_alTratarDeAgregarUnUsuarioExistenteDeberiaDarFalse_Test8TestBodyEv
FN:61,_ZN82CredencialesDeUsuariosTest_alTratarDeAgregarUnUsuarioExistenteDeberiaDarFalse_TestD0Ev
FN:61,_ZN82CredencialesDeUsuariosTest_alTratarDeAgregarUnUsuarioExistenteDeberiaDarFalse_TestD2Ev
FN:67,_ZN87CredencialesDeUsuariosTest_testAlPreguntarSiExisteUnUsuarioExistenteDeberiaDarTrue_Test8TestBodyEv
FN:67,_ZN87CredencialesDeUsuariosTest_testAlPreguntarSiExisteUnUsuarioExistenteDeberiaDarTrue_TestD2Ev
FN:67,_ZN87CredencialesDeUsuariosTest_testAlPreguntarSiExisteUnUsuarioExistenteDeberiaDarTrue_TestD0Ev
FN:67,_ZN87CredencialesDeUsuariosTest_testAlPreguntarSiExisteUnUsuarioExistenteDeberiaDarTrue_TestC2Ev
FN:72,_ZN90CredencialesDeUsuariosTest_testAlPreguntarSiExisteUnUsuarioInexistenteDeberiaDarFalse_TestD0Ev
FN:72,_ZN90CredencialesDeUsuariosTest_testAlPreguntarSiExisteUnUsuarioInexistenteDeberiaDarFalse_TestC2Ev
FN:72,_ZN90CredencialesDeUsuariosTest_testAlPreguntarSiExisteUnUsuarioInexistenteDeberiaDarFalse_TestD2Ev
FN:72,_ZN90CredencialesDeUsuariosTest_testAlPreguntarSiExisteUnUsuarioInexistenteDeberiaDarFalse_Test8TestBodyEv
FN:78,_ZN70CredencialesDeUsuariosTest_testValidarCredencialesCorrectasDaTrue_Test8TestBodyEv
FN:78,_ZN70CredencialesDeUsuariosTest_testValidarCredencialesCorrectasDaTrue_TestC2Ev
FN:78,_ZN70CredencialesDeUsuariosTest_testValidarCredencialesCorrectasDaTrue_TestD2Ev
FN:78,_ZN70CredencialesDeUsuariosTest_testValidarCredencialesCorrectasDaTrue_TestD0Ev
FN:84,_ZN73CredencialesDeUsuariosTest_testValidarCredencialesIncorrectasDaFalse_TestD2Ev
FN:84,_ZN73CredencialesDeUsuariosTest_testValidarCredencialesIncorrectasDaFalse_TestD0Ev
FN:84,_ZN73CredencialesDeUsuariosTest_testValidarCredencialesIncorrectasDaFalse_TestC2Ev
FN:84,_ZN73CredencialesDeUsuariosTest_testValidarCredencialesIncorrectasDaFalse_Test8TestBodyEv
FN:87,_GLOBAL__sub_I__ZN67CredencialesDeUsuariosTest_agregarUnNuevoUsuarioDeberiaDarTrue_Test10test_info_E
FNDA:0,_ZN26CredencialesDeUsuariosTestD0Ev
FNDA:60,_ZN26CredencialesDeUsuariosTestD2Ev
FNDA:60,_ZN26CredencialesDeUsuariosTestC2Ev
FNDA:60,_ZN26CredencialesDeUsuariosTest5SetUpEv
FNDA:60,_ZN26CredencialesDeUsuariosTest8TearDownEv
FNDA:10,_ZN67CredencialesDeUsuariosTest_agregarUnNuevoUsuarioDeberiaDarTrue_TestD0Ev
FNDA:10,_ZN67CredencialesDeUsuariosTest_agregarUnNuevoUsuarioDeberiaDarTrue_TestD2Ev
FNDA:10,_ZN67CredencialesDeUsuariosTest_agregarUnNuevoUsuarioDeberiaDarTrue_Test8TestBodyEv
FNDA:10,_ZN67CredencialesDeUsuariosTest_agregarUnNuevoUsuarioDeberiaDarTrue_TestC2Ev
FNDA:10,_ZN82CredencialesDeUsuariosTest_alTratarDeAgregarUnUsuarioExistenteDeberiaDarFalse_TestD0Ev
FNDA:10,_ZN82CredencialesDeUsuariosTest_alTratarDeAgregarUnUsuarioExistenteDeberiaDarFalse_TestD2Ev
FNDA:10,_ZN82CredencialesDeUsuariosTest_alTratarDeAgregarUnUsuarioExistenteDeberiaDarFalse_Test8TestBodyEv
FNDA:10,_ZN82CredencialesDeUsuariosTest_alTratarDeAgregarUnUsuarioExistenteDeberiaDarFalse_TestC2Ev
FNDA:10,_ZN87CredencialesDeUsuariosTest_testAlPreguntarSiExisteUnUsuarioExistenteDeberiaDarTrue_TestD0Ev
FNDA:10,_ZN87CredencialesDeUsuariosTest_testAlPreguntarSiExisteUnUsuarioExistenteDeberiaDarTrue_TestD2Ev
FNDA:10,_ZN87CredencialesDeUsuariosTest_testAlPreguntarSiExisteUnUsuarioExistenteDeberiaDarTrue_Test8TestBodyEv
FNDA:10,_ZN87CredencialesDeUsuariosTest_testAlPreguntarSiExisteUnUsuarioExistenteDeberiaDarTrue_TestC2Ev
FNDA:10,_ZN90CredencialesDeUsuariosTest_testAlPreguntarSiExisteUnUsuarioInexistenteDeberiaDarFalse_TestD0Ev
FNDA:10,_ZN90CredencialesDeUsuariosTest_testAlPreguntarSiExisteUnUsuarioInexistenteDeberiaDarFalse_TestD2Ev
FNDA:10,_ZN90CredencialesDeUsuariosTest_testAlPreguntarSiExisteUnUsuarioInexistenteDeberiaDarFalse_Test8TestBodyEv
FNDA:10,_ZN90CredencialesDeUsuariosTest_testAlPreguntarSiExisteUnUsuarioInexistenteDeberiaDarFalse_TestC2Ev
FNDA:10,_ZN70CredencialesDeUsuariosTest_testValidarCredencialesCorrectasDaTrue_TestD0Ev
FNDA:10,_ZN70CredencialesDeUsuariosTest_testValidarCredencialesCorrectasDaTrue_TestD2Ev
FNDA:10,_ZN70CredencialesDeUsuariosTest_testValidarCredencialesCorrectasDaTrue_Test8TestBodyEv
FNDA:10,_ZN70CredencialesDeUsuariosTest_testValidarCredencialesCorrectasDaTrue_TestC2Ev
FNDA:10,_ZN73CredencialesDeUsuariosTest_testValidarCredencialesIncorrectasDaFalse_TestD0Ev
FNDA:10,_ZN73CredencialesDeUsuariosTest_testValidarCredencialesIncorrectasDaFalse_TestD2Ev
FNDA:10,_ZN73CredencialesDeUsuariosTest_testValidarCredencialesIncorrectasDaFalse_Test8TestBodyEv
FNDA:10,_ZN73CredencialesDeUsuariosTest_testValidarCredencialesIncorrectasDaFalse_TestC2Ev
FNDA:10,_GLOBAL__sub_I__ZN67CredencialesDeUsuariosTest_agregarUnNuevoUsuarioDeberiaDarTrue_Test10test_info_E
FNDA:10,_Z41__static_initialization_and_destruction_0ii
FNF:31
FNH:30
DA:11,120
DA:20,60
DA:21,60
DA:22,60
DA:23,60
DA:24,60
DA:25,60
DA:33,60
DA:34,60
DA:35,60
DA:36,60
DA:55,50
DA:56,10
DA:61,50
DA:62,10
DA:63,10
DA:67,50
DA:68,10
DA:69,10
DA:72,50
DA:74,10
DA:78,50
DA:79,10
DA:80,10
DA:84,50
DA:85,10
DA:86,10
DA:87,30
LF:28
LH:28
end_of_record
SF:/usr/include/c++/4.8/bits/basic_string.h
FN:272,_ZNSs12_Alloc_hiderD2Ev
FNDA:0,_ZNSs12_Alloc_hiderD2Ev
FNF:1
FNH:0
DA:272,0
LF:1
LH:0
end_of_record
SF:/usr/include/c++/4.8/bits/char_traits.h
FN:258,_ZNSt11char_traitsIcE6lengthEPKc
FNDA:0,_ZNSt11char_traitsIcE6lengthEPKc
FNF:1
FNH:0
DA:258,0
DA:259,0
LF:2
LH:0
end_of_record
SF:/usr/include/c++/4.8/ext/atomicity.h
FN:48,_ZN9__gnu_cxxL18__exchange_and_addEPVii
FN:65,_ZN9__gnu_cxxL25__exchange_and_add_singleEPii
FN:78,_ZN9__gnu_cxxL27__exchange_and_add_dispatchEPii
FNDA:0,_ZN9__gnu_cxxL18__exchange_and_addEPVii
FNDA:0,_ZN9__gnu_cxxL25__exchange_and_add_singleEPii
FNDA:0,_ZN9__gnu_cxxL27__exchange_and_add_dispatchEPii
FNF:3
FNH:0
DA:48,0
DA:49,0
DA:65,0
DA:67,0
DA:68,0
DA:69,0
DA:78,0
DA:81,0
DA:82,0
DA:84,0
LF:10
LH:0
end_of_record
SF:/usr/include/c++/4.8/ext/new_allocator.h
FN:79,_ZN9__gnu_cxx13new_allocatorIcEC2Ev
FN:81,_ZN9__gnu_cxx13new_allocatorIcEC2ERKS1_
FN:86,_ZN9__gnu_cxx13new_allocatorIcED2Ev
FNDA:0,_ZN9__gnu_cxx13new_allocatorIcEC2Ev
FNDA:0,_ZN9__gnu_cxx13new_allocatorIcEC2ERKS1_
FNDA:0,_ZN9__gnu_cxx13new_allocatorIcED2Ev
FNF:3
FNH:0
DA:79,0
DA:81,0
DA:86,0
LF:3
LH:0
end_of_record
SF:/usr/include/c++/4.8/iostream
DA:74,10
LF:1
LH:1
end_of_record
SF:/usr/include/x86_64-linux-gnu/c++/4.8/bits/gthr-default.h
FN:247,_ZL18__gthread_active_pv
FNDA:0,_ZL18__gthread_active_pv
FNF:1
FNH:0
DA:247,0
DA:251,0
LF:2
LH:0
end_of_record
SF:/usr/local/include/gtest/gtest-message.h
FN:85,_ZN7testing7MessageD2Ev
FNDA:0,_ZN7testing7MessageD2Ev
FNF:1
FNH:0
DA:85,0
LF:1
LH:0
end_of_record
SF:/usr/local/include/gtest/gtest.h
FN:256,_ZN7testing15AssertionResultD2Ev
FN:272,_ZN7testing15AssertionResultC2IbEERKT_PNS_8internal8EnableIfIXntsrNS5_21ImplicitlyConvertibleIS2_S0_EE5valueEE4typeE
FN:288,_ZNK7testing15AssertionResultcvbEv
FN:389,_ZN7testing4Test13SetUpTestCaseEv
FN:397,_ZN7testing4Test16TearDownTestCaseEv
FN:474,_ZN7testing4Test5SetupEv
FNDA:0,_ZN7testing15AssertionResultD2Ev
FNDA:0,_ZN7testing15AssertionResultC2IbEERKT_PNS_8internal8EnableIfIXntsrNS5_21ImplicitlyConvertibleIS2_S0_EE5valueEE4typeE
FNDA:0,_ZNK7testing15AssertionResultcvbEv
FNDA:0,_ZN7testing4Test13SetUpTestCaseEv
FNDA:0,_ZN7testing4Test16TearDownTestCaseEv
FNDA:0,_ZN7testing4Test5SetupEv
FNF:6
FNH:0
DA:256,0
DA:272,0
DA:277,0
DA:288,0
DA:389,0
DA:397,0
DA:474,0
LF:7
LH:0
end_of_record
SF:/usr/local/include/gtest/internal/gtest-internal.h
FN:447,_ZN7testing8internal9GetTypeIdI26CredencialesDeUsuariosTestEEPKvv
FN:466,_ZN7testing8internal15TestFactoryBaseD2Ev
FN:466,_ZN7testing8internal15TestFactoryBaseD0Ev
FN:473,_ZN7testing8internal15TestFactoryBaseC2Ev
FN:482,_ZN7testing8internal15TestFactoryImplI87CredencialesDeUsuariosTest_testAlPreguntarSiExisteUnUsuarioExistenteDeberiaDarTrue_TestEC2Ev
FN:482,_ZN7testing8internal15TestFactoryImplI87CredencialesDeUsuariosTest_testAlPreguntarSiExisteUnUsuarioExistenteDeberiaDarTrue_TestED2Ev
FN:482,_ZN7testing8internal15TestFactoryImplI90CredencialesDeUsuariosTest_testAlPreguntarSiExisteUnUsuarioInexistenteDeberiaDarFalse_TestED2Ev
FN:482,_ZN7testing8internal15TestFactoryImplI82CredencialesDeUsuariosTest_alTratarDeAgregarUnUsuarioExistenteDeberiaDarFalse_TestED2Ev
FN:482,_ZN7testing8internal15TestFactoryImplI67CredencialesDeUsuariosTest_agregarUnNuevoUsuarioDeberiaDarTrue_TestED0Ev
FN:482,_ZN7testing8internal15TestFactoryImplI70CredencialesDeUsuariosTest_testValidarCredencialesCorrectasDaTrue_TestED2Ev
FN:482,_ZN7testing8internal15TestFactoryImplI73CredencialesDeUsuariosTest_testValidarCredencialesIncorrectasDaFalse_TestED2Ev
FN:482,_ZN7testing8internal15TestFactoryImplI67CredencialesDeUsuariosTest_agregarUnNuevoUsuarioDeberiaDarTrue_TestED2Ev
FN:482,_ZN7testing8internal15TestFactoryImplI90CredencialesDeUsuariosTest_testAlPreguntarSiExisteUnUsuarioInexistenteDeberiaDarFalse_TestEC2Ev
FN:482,_ZN7testing8internal15TestFactoryImplI73CredencialesDeUsuariosTest_testValidarCredencialesIncorrectasDaFalse_TestED0Ev
FN:482,_ZN7testing8internal15TestFactoryImplI67CredencialesDeUsuariosTest_agregarUnNuevoUsuarioDeberiaDarTrue_TestEC2Ev
FN:482,_ZN7testing8internal15TestFactoryImplI73CredencialesDeUsuariosTest_testValidarCredencialesIncorrectasDaFalse_TestEC2Ev
FN:482,_ZN7testing8internal15TestFactoryImplI70CredencialesDeUsuariosTest_testValidarCredencialesCorrectasDaTrue_TestEC2Ev
FN:482,_ZN7testing8internal15TestFactoryImplI70CredencialesDeUsuariosTest_testValidarCredencialesCorrectasDaTrue_TestED0Ev
FN:482,_ZN7testing8internal15TestFactoryImplI82CredencialesDeUsuariosTest_alTratarDeAgregarUnUsuarioExistenteDeberiaDarFalse_TestED0Ev
FN:482,_ZN7testing8internal15TestFactoryImplI87CredencialesDeUsuariosTest_testAlPreguntarSiExisteUnUsuarioExistenteDeberiaDarTrue_TestED0Ev
FN:482,_ZN7testing8internal15TestFactoryImplI82CredencialesDeUsuariosTest_alTratarDeAgregarUnUsuarioExistenteDeberiaDarFalse_TestEC2Ev
FN:482,_ZN7testing8internal15TestFactoryImplI90CredencialesDeUsuariosTest_testAlPreguntarSiExisteUnUsuarioInexistenteDeberiaDarFalse_TestED0Ev
FN:484,_ZN7testing8internal15TestFactoryImplI82CredencialesDeUsuariosTest_alTratarDeAgregarUnUsuarioExistenteDeberiaDarFalse_TestE10CreateTestEv
FN:484,_ZN7testing8internal15TestFactoryImplI67CredencialesDeUsuariosTest_agregarUnNuevoUsuarioDeberiaDarTrue_TestE10CreateTestEv
FN:484,_ZN7testing8internal15TestFactoryImplI90CredencialesDeUsuariosTest_testAlPreguntarSiExisteUnUsuarioInexistenteDeberiaDarFalse_TestE10CreateTestEv
FN:484,_ZN7testing8internal15TestFactoryImplI87CredencialesDeUsuariosTest_testAlPreguntarSiExisteUnUsuarioExistenteDeberiaDarTrue_TestE10CreateTestEv
FN:484,_ZN7testing8internal15TestFactoryImplI70CredencialesDeUsuariosTest_testValidarCredencialesCorrectasDaTrue_TestE10CreateTestEv
FN:484,_ZN7testing8internal15TestFactoryImplI73CredencialesDeUsuariosTest_testValidarCredencialesIncorrectasDaFalse_TestE10CreateTestEv
FN:504,_ZN7testing8internal12CodeLocationD2Ev
FN:505,_ZN7testing8internal12CodeLocationC2ERKSsi
FNDA:60,_ZN7testing8internal9GetTypeIdI26CredencialesDeUsuariosTestEEPKvv
FNDA:0,_ZN7testing8internal15TestFactoryBaseD0Ev
FNDA:0,_ZN7testing8internal15TestFactoryBaseD2Ev
FNDA:0,_ZN7testing8internal15TestFactoryBaseC2Ev
FNDA:10,_ZN7testing8internal15TestFactoryImplI67CredencialesDeUsuariosTest_agregarUnNuevoUsuarioDeberiaDarTrue_TestED0Ev
FNDA:10,_ZN7testing8internal15TestFactoryImplI67CredencialesDeUsuariosTest_agregarUnNuevoUsuarioDeberiaDarTrue_TestED2Ev
FNDA:10,_ZN7testing8internal15TestFactoryImplI82CredencialesDeUsuariosTest_alTratarDeAgregarUnUsuarioExistenteDeberiaDarFalse_TestED0Ev
FNDA:10,_ZN7testing8internal15TestFactoryImplI82CredencialesDeUsuariosTest_alTratarDeAgregarUnUsuarioExistenteDeberiaDarFalse_TestED2Ev
FNDA:10,_ZN7testing8internal15TestFactoryImplI87CredencialesDeUsuariosTest_testAlPreguntarSiExisteUnUsuarioExistenteDeberiaDarTrue_TestED0Ev
FNDA:10,_ZN7testing8internal15TestFactoryImplI87CredencialesDeUsuariosTest_testAlPreguntarSiExisteUnUsuarioExistenteDeberiaDarTrue_TestED2Ev
FNDA:10,_ZN7testing8internal15TestFactoryImplI90CredencialesDeUsuariosTest_testAlPreguntarSiExisteUnUsuarioInexistenteDeberiaDarFalse_TestED0Ev
FNDA:10,_ZN7testing8internal15TestFactoryImplI90CredencialesDeUsuariosTest_testAlPreguntarSiExisteUnUsuarioInexistenteDeberiaDarFalse_TestED2Ev
FNDA:10,_ZN7testing8internal15TestFactoryImplI70CredencialesDeUsuariosTest_testValidarCredencialesCorrectasDaTrue_TestED0Ev
FNDA:10,_ZN7testing8internal15TestFactoryImplI70CredencialesDeUsuariosTest_testValidarCredencialesCorrectasDaTrue_TestED2Ev
FNDA:10,_ZN7testing8internal15TestFactoryImplI73CredencialesDeUsuariosTest_testValidarCredencialesIncorrectasDaFalse_TestED0Ev
FNDA:10,_ZN7testing8internal15TestFactoryImplI73CredencialesDeUsuariosTest_testValidarCredencialesIncorrectasDaFalse_TestED2Ev
FNDA:10,_ZN7testing8internal15TestFactoryImplI73CredencialesDeUsuariosTest_testValidarCredencialesIncorrectasDaFalse_TestEC2Ev
FNDA:10,_ZN7testing8internal15TestFactoryImplI70CredencialesDeUsuariosTest_testValidarCredencialesCorrectasDaTrue_TestEC2Ev
FNDA:10,_ZN7testing8internal15TestFactoryImplI90CredencialesDeUsuariosTest_testAlPreguntarSiExisteUnUsuarioInexistenteDeberiaDarFalse_TestEC2Ev
FNDA:10,_ZN7testing8internal15TestFactoryImplI87CredencialesDeUsuariosTest_testAlPreguntarSiExisteUnUsuarioExistenteDeberiaDarTrue_TestEC2Ev
FNDA:10,_ZN7testing8internal15TestFactoryImplI82CredencialesDeUsuariosTest_alTratarDeAgregarUnUsuarioExistenteDeberiaDarFalse_TestEC2Ev
FNDA:10,_ZN7testing8internal15TestFactoryImplI67CredencialesDeUsuariosTest_agregarUnNuevoUsuarioDeberiaDarTrue_TestEC2Ev
FNDA:10,_ZN7testing8internal15TestFactoryImplI67CredencialesDeUsuariosTest_agregarUnNuevoUsuarioDeberiaDarTrue_TestE10CreateTestEv
FNDA:10,_ZN7testing8internal15TestFactoryImplI82CredencialesDeUsuariosTest_alTratarDeAgregarUnUsuarioExistenteDeberiaDarFalse_TestE10CreateTestEv
FNDA:10,_ZN7testing8internal15TestFactoryImplI87CredencialesDeUsuariosTest_testAlPreguntarSiExisteUnUsuarioExistenteDeberiaDarTrue_TestE10CreateTestEv
FNDA:10,_ZN7testing8internal15TestFactoryImplI90CredencialesDeUsuariosTest_testAlPreguntarSiExisteUnUsuarioInexistenteDeberiaDarFalse_TestE10CreateTestEv
FNDA:10,_ZN7testing8internal15TestFactoryImplI70CredencialesDeUsuariosTest_testValidarCredencialesCorrectasDaTrue_TestE10CreateTestEv
FNDA:10,_ZN7testing8internal15TestFactoryImplI73CredencialesDeUsuariosTest_testValidarCredencialesIncorrectasDaFalse_TestE10CreateTestEv
FNDA:0,_ZN7testing8internal12CodeLocationD2Ev
FNDA:0,_ZN7testing8internal12CodeLocationC2ERKSsi
FNF:30
FNH:25
DA:447,60
DA:452,60
DA:466,0
DA:473,0
DA:482,180
DA:484,60
DA:504,0
DA:505,0
LF:8
LH:4
end_of_record
SF:/usr/local/include/gtest/internal/gtest-port.h
FN:1119,_ZN7testing8internal10scoped_ptrISsEC2EPSs
FN:1120,_ZN7testing8internal10scoped_ptrISt18basic_stringstreamIcSt11char_traitsIcESaIcEEED2Ev
FN:1120,_ZN7testing8internal10scoped_ptrISsED2Ev
FN:1132,_ZN7testing8internal10scoped_ptrISt18basic_stringstreamIcSt11char_traitsIcESaIcEEE5resetEPS6_
FN:1132,_ZN7testing8internal10scoped_ptrISsE5resetEPSs
FNDA:0,_ZN7testing8internal10scoped_ptrISsEC2EPSs
FNDA:0,_ZN7testing8internal10scoped_ptrISsED2Ev
FNDA:0,_ZN7testing8internal10scoped_ptrISt18basic_stringstreamIcSt11char_traitsIcESaIcEEED2Ev
FNDA:0,_ZN7testing8internal10scoped_ptrISt18basic_stringstreamIcSt11char_traitsIcESaIcEEE5resetEPS6_
FNDA:0,_ZN7testing8internal10scoped_ptrISsE5resetEPSs
FNF:5
FNH:0
DA:1119,0
DA:1120,0
DA:1132,0
DA:1133,0
DA:1134,0
DA:1135,0
DA:1137,0
DA:1139,0
LF:8
LH:0
end_of_record
TN:
SF:/home/diego/Desktop/taller2-appserver/Appserver/src/external/json/json.h
FN:603,_ZN4Json12RuntimeErrorD2Ev
FN:603,_ZN4Json12RuntimeErrorD0Ev
FN:614,_ZN4Json10LogicErrorD2Ev
FN:614,_ZN4Json10LogicErrorD0Ev
FN:666,_ZN4Json12StaticStringC2EPKc
FN:670,_ZNK4Json12StaticString5c_strEv
FN:1159,_ZN4Json12PathArgumentD2Ev
FN:1159,_ZN4Json12PathArgumentC2EOS0_
FN:1159,_ZN4Json12PathArgumentC2ERKS0_
FN:1458,_ZN4Json6Reader15StructuredErrorC2EOS1_
FN:1458,_ZN4Json6Reader15StructuredErrorD2Ev
FN:1458,_ZN4Json6Reader15StructuredErrorC2ERKS1_
FN:1458,_ZN4Json6Reader15StructuredErrorC2Ev
FN:1597,_ZN4Json6Reader9ErrorInfoD2Ev
FN:1597,_ZN4Json6Reader9ErrorInfoC2ERKS1_
FN:1597,_ZN4Json6Reader9ErrorInfoC2Ev
FN:1661,_ZN4Json10CharReaderC2Ev
FN:1663,_ZN4Json10CharReaderD2Ev
FN:1663,_ZN4Json10CharReaderD0Ev
FN:1685,_ZN4Json10CharReader7FactoryC2Ev
FN:1687,_ZN4Json10CharReader7FactoryD2Ev
FN:1687,_ZN4Json10CharReader7FactoryD0Ev
FN:1888,_ZN4Json12StreamWriter7FactoryC2Ev
FN:1973,_ZN4Json6WriterC2Ev
FN:1993,_ZN4Json10FastWriterD0Ev
FN:1993,_ZN4Json10FastWriterD2Ev
FN:2045,_ZN4Json12StyledWriterD2Ev
FN:2045,_ZN4Json12StyledWriterD0Ev
FNDA:0,_ZN4Json12RuntimeErrorD0Ev
FNDA:0,_ZN4Json12RuntimeErrorD2Ev
FNDA:0,_ZN4Json10LogicErrorD0Ev
FNDA:0,_ZN4Json10LogicErrorD2Ev
FNDA:0,_ZN4Json12StaticStringC2EPKc
FNDA:0,_ZNK4Json12StaticString5c_strEv
FNDA:0,_ZN4Json12PathArgumentC2EOS0_
FNDA:0,_ZN4Json12PathArgumentC2ERKS0_
FNDA:0,_ZN4Json12PathArgumentD2Ev
FNDA:0,_ZN4Json6Reader15StructuredErrorC2EOS1_
FNDA:0,_ZN4Json6Reader15StructuredErrorC2ERKS1_
FNDA:0,_ZN4Json6Reader15StructuredErrorD2Ev
FNDA:0,_ZN4Json6Reader15StructuredErrorC2Ev
FNDA:60,_ZN4Json6Reader9ErrorInfoC2ERKS1_
FNDA:0,_ZN4Json6Reader9ErrorInfoD2Ev
FNDA:60,_ZN4Json6Reader9ErrorInfoC2Ev
FNDA:0,_ZN4Json10CharReaderC2Ev
FNDA:0,_ZN4Json10CharReaderD0Ev
FNDA:0,_ZN4Json10CharReaderD2Ev
FNDA:0,_ZN4Json10CharReader7FactoryC2Ev
FNDA:0,_ZN4Json10CharReader7FactoryD0Ev
FNDA:0,_ZN4Json10CharReader7FactoryD2Ev
FNDA:0,_ZN4Json12StreamWriter7FactoryC2Ev
FNDA:940,_ZN4Json6WriterC2Ev
FNDA:0,_ZN4Json10FastWriterD0Ev
FNDA:0,_ZN4Json10FastWriterD2Ev
FNDA:0,_ZN4Json12StyledWriterD0Ev
FNDA:0,_ZN4Json12StyledWriterD2Ev
FNF:28
FNH:3
DA:603,0
DA:614,0
DA:666,0
DA:670,0
DA:1159,0
DA:1458,0
DA:1597,120
DA:1661,0
DA:1663,0
DA:1685,0
DA:1687,0
DA:1888,0
DA:1973,940
DA:1993,0
DA:2045,0
LF:15
LH:2
end_of_record
SF:/home/diego/Desktop/taller2-appserver/Appserver/src/external/json/jsoncpp.cpp
FN:104,_ZN4JsonL15codePointToUTF8Ej
FN:133,_ZN4JsonL18isControlCharacterEc
FN:149,_ZN4JsonL12uintToStringEyRPc
FN:162,_ZN4JsonL16fixNumericLocaleEPcS0_
FN:248,_ZN4Json8FeaturesC2Ev
FN:252,_ZN4Json8Features3allEv
FN:254,_ZN4Json8Features10strictModeEv
FN:266,_ZN4JsonL15containsNewLineEPKcS1_
FN:276,_ZN4Json6ReaderC2Ev
FN:281,_ZN4Json6ReaderC2ERKNS_8FeaturesE
FN:287,_ZN4Json6Reader5parseERKSsRNS_5ValueEb
FN:295,_ZN4Json6Reader5parseERSiRNS_5ValueEb
FN:308,_ZN4Json6Reader5parseEPKcS2_RNS_5ValueEb
FN:350,_ZN4Json6Reader9readValueEv
FN:434,_ZN4Json6Reader17skipCommentTokensERNS0_5TokenE
FN:444,_ZN4Json6Reader9readTokenERNS0_5TokenE
FN:515,_ZN4Json6Reader10skipSpacesEv
FN:525,_ZN4Json6Reader5matchEPKci
FN:536,_ZN4Json6Reader11readCommentEv
FN:559,_ZN4JsonL12normalizeEOLEPKcS1_
FN:579,_ZN4Json6Reader10addCommentEPKcS2_NS_16CommentPlacementE
FN:590,_ZN4Json6Reader17readCStyleCommentEv
FN:599,_ZN4Json6Reader19readCppStyleCommentEv
FN:615,_ZN4Json6Reader10readNumberEv
FN:637,_ZN4Json6Reader10readStringEv
FN:649,_ZN4Json6Reader10readObjectERNS0_5TokenE
FN:705,_ZN4Json6Reader9readArrayERNS0_5TokenE
FN:743,_ZN4Json6Reader12decodeNumberERNS0_5TokenE
FN:753,_ZN4Json6Reader12decodeNumberERNS0_5TokenERNS_5ValueE
FN:795,_ZN4Json6Reader12decodeDoubleERNS0_5TokenE
FN:805,_ZN4Json6Reader12decodeDoubleERNS0_5TokenERNS_5ValueE
FN:817,_ZN4Json6Reader12decodeStringERNS0_5TokenE
FN:828,_ZN4Json6Reader12decodeStringERNS0_5TokenERSs
FN:881,_ZN4Json6Reader22decodeUnicodeCodePointERNS0_5TokenERPKcS4_Rj
FN:910,_ZN4Json6Reader27decodeUnicodeEscapeSequenceERNS0_5TokenERPKcS4_Rj
FN:940,_ZN4Json6Reader8addErrorERKSsRNS0_5TokenEPKc
FN:949,_ZN4Json6Reader16recoverFromErrorENS0_9TokenTypeE
FN:962,_ZN4Json6Reader18addErrorAndRecoverERKSsRNS0_5TokenENS0_9TokenTypeE
FN:969,_ZN4Json6Reader12currentValueEv
FN:971,_ZN4Json6Reader11getNextCharEv
FN:977,_ZNK4Json6Reader24getLocationLineAndColumnEPKcRiS3_
FN:1000,_ZNK4Json6Reader24getLocationLineAndColumnEPKc
FN:1009,_ZNK4Json6Reader24getFormatedErrorMessagesEv
FN:1013,_ZNK4Json6Reader25getFormattedErrorMessagesEv
FN:1029,_ZNK4Json6Reader19getStructuredErrorsEv
FN:1044,_ZN4Json6Reader9pushErrorERKNS_5ValueERKSs
FN:1061,_ZN4Json6Reader9pushErrorERKNS_5ValueERKSsS3_
FN:1079,_ZNK4Json6Reader4goodEv
FN:1101,_ZN4Json11OurFeatures3allEv
FN:1107,_ZN4Json9OurReaderD2Ev
FN:1111,_ZN4Json9OurReader15StructuredErrorC2ERKS1_
FN:1111,_ZN4Json9OurReader15StructuredErrorC2EOS1_
FN:1111,_ZN4Json9OurReader15StructuredErrorC2Ev
FN:1111,_ZN4Json9OurReader15StructuredErrorD2Ev
FN:1159,_ZN4Json9OurReader9ErrorInfoD2Ev
FN:1159,_ZN4Json9OurReader9ErrorInfoC2Ev
FN:1159,_ZN4Json9OurReader9ErrorInfoC2ERKS1_
FN:1226,_ZN4Json9OurReaderC2ERKNS_11OurFeaturesE
FN:1233,_ZN4Json9OurReader5parseEPKcS2_RNS_5ValueEb
FN:1281,_ZN4Json9OurReader9readValueEv
FN:1384,_ZN4Json9OurReader17skipCommentTokensERNS0_5TokenE
FN:1394,_ZN4Json9OurReader9readTokenERNS0_5TokenE
FN:1494,_ZN4Json9OurReader10skipSpacesEv
FN:1504,_ZN4Json9OurReader5matchEPKci
FN:1515,_ZN4Json9OurReader11readCommentEv
FN:1539,_ZN4Json9OurReader10addCommentEPKcS2_NS_16CommentPlacementE
FN:1550,_ZN4Json9OurReader17readCStyleCommentEv
FN:1559,_ZN4Json9OurReader19readCppStyleCommentEv
FN:1575,_ZN4Json9OurReader10readNumberEb
FN:1601,_ZN4Json9OurReader10readStringEv
FN:1614,_ZN4Json9OurReader21readStringSingleQuoteEv
FN:1626,_ZN4Json9OurReader10readObjectERNS0_5TokenE
FN:1688,_ZN4Json9OurReader9readArrayERNS0_5TokenE
FN:1726,_ZN4Json9OurReader12decodeNumberERNS0_5TokenE
FN:1736,_ZN4Json9OurReader12decodeNumberERNS0_5TokenERNS_5ValueE
FN:1776,_ZN4Json9OurReader12decodeDoubleERNS0_5TokenE
FN:1786,_ZN4Json9OurReader12decodeDoubleERNS0_5TokenERNS_5ValueE
FN:1823,_ZN4Json9OurReader12decodeStringERNS0_5TokenE
FN:1834,_ZN4Json9OurReader12decodeStringERNS0_5TokenERSs
FN:1887,_ZN4Json9OurReader22decodeUnicodeCodePointERNS0_5TokenERPKcS4_Rj
FN:1916,_ZN4Json9OurReader27decodeUnicodeEscapeSequenceERNS0_5TokenERPKcS4_Rj
FN:1946,_ZN4Json9OurReader8addErrorERKSsRNS0_5TokenEPKc
FN:1955,_ZN4Json9OurReader16recoverFromErrorENS0_9TokenTypeE
FN:1968,_ZN4Json9OurReader18addErrorAndRecoverERKSsRNS0_5TokenENS0_9TokenTypeE
FN:1975,_ZN4Json9OurReader12currentValueEv
FN:1977,_ZN4Json9OurReader11getNextCharEv
FN:1983,_ZNK4Json9OurReader24getLocationLineAndColumnEPKcRiS3_
FN:2006,_ZNK4Json9OurReader24getLocationLineAndColumnEPKc
FN:2014,_ZNK4Json9OurReader25getFormattedErrorMessagesEv
FN:2030,_ZNK4Json9OurReader19getStructuredErrorsEv
FN:2045,_ZN4Json9OurReader9pushErrorERKNS_5ValueERKSs
FN:2062,_ZN4Json9OurReader9pushErrorERKNS_5ValueERKSsS3_
FN:2080,_ZNK4Json9OurReader4goodEv
FN:2085,_ZN4Json13OurCharReaderD2Ev
FN:2085,_ZN4Json13OurCharReaderD0Ev
FN:2089,_ZN4Json13OurCharReaderC2EbRKNS_11OurFeaturesE
FN:2095,_ZN4Json13OurCharReader5parseEPKcS2_PNS_5ValueEPSs
FN:2106,_ZN4Json17CharReaderBuilderC2Ev
FN:2110,_ZN4Json17CharReaderBuilderD2Ev
FN:2110,_ZN4Json17CharReaderBuilderD0Ev
FN:2112,_ZNK4Json17CharReaderBuilder13newCharReaderEv
FN:2127,_ZN4JsonL18getValidReaderKeysEPSt3setISsSt4lessISsESaISsEE
FN:2141,_ZNK4Json17CharReaderBuilder8validateEPNS_5ValueE
FN:2158,_ZN4Json17CharReaderBuilderixESs
FN:2163,_ZN4Json17CharReaderBuilder10strictModeEPNS_5ValueE
FN:2178,_ZN4Json17CharReaderBuilder11setDefaultsEPNS_5ValueE
FN:2197,_ZN4Json15parseFromStreamERKNS_10CharReader7FactoryERSiPNS_5ValueEPSs
FN:2211,_ZN4JsonrsERSiRNS_5ValueE
FN:2257,_ZN4Json17ValueIteratorBaseC2Ev
FN:2261,_ZN4Json17ValueIteratorBaseC2ERKSt17_Rb_tree_iteratorISt4pairIKNS_5Value8CZStringES3_EE
FN:2265,_ZNK4Json17ValueIteratorBase5derefEv
FN:2269,_ZN4Json17ValueIteratorBase9incrementEv
FN:2273,_ZN4Json17ValueIteratorBase9decrementEv
FN:2278,_ZNK4Json17ValueIteratorBase15computeDistanceERKS0_
FN:2305,_ZNK4Json17ValueIteratorBase7isEqualERKS0_
FN:2312,_ZN4Json17ValueIteratorBase4copyERKS0_
FN:2317,_ZNK4Json17ValueIteratorBase3keyEv
FN:2327,_ZNK4Json17ValueIteratorBase5indexEv
FN:2334,_ZNK4Json17ValueIteratorBase4nameEv
FN:2342,_ZNK4Json17ValueIteratorBase10memberNameEv
FN:2347,_ZNK4Json17ValueIteratorBase10memberNameEPPKc
FN:2365,_ZN4Json18ValueConstIteratorC2Ev
FN:2367,_ZN4Json18ValueConstIteratorC2ERKSt17_Rb_tree_iteratorISt4pairIKNS_5Value8CZStringES3_EE
FN:2371,_ZN4Json18ValueConstIteratorC2ERKNS_13ValueIteratorE
FN:2374,_ZN4Json18ValueConstIteratoraSERKNS_17ValueIteratorBaseE
FN:2388,_ZN4Json13ValueIteratorC2Ev
FN:2390,_ZN4Json13ValueIteratorC2ERKSt17_Rb_tree_iteratorISt4pairIKNS_5Value8CZStringES3_EE
FN:2393,_ZN4Json13ValueIteratorC2ERKNS_18ValueConstIteratorE
FN:2398,_ZN4Json13ValueIteratorC2ERKS0_
FN:2401,_ZN4Json13ValueIteratoraSERKS0_
FN:2456,_Z41__static_initialization_and_destruction_0ii
FN:2477,_ZN4JsonL7InRangeIxxEEbdT_T0_
FN:2477,_ZN4JsonL7InRangeIiyEEbdT_T0_
FN:2477,_ZN4JsonL7InRangeIiiEEbdT_T0_
FN:2477,_ZN4JsonL7InRangeIijEEbdT_T0_
FN:2505,_ZN4JsonL20duplicateStringValueEPKcm
FN:2526,_ZN4JsonL29duplicateAndPrefixStringValueEPKcj
FN:2547,_ZN4JsonL20decodePrefixedStringEbPKcPjPS1_
FN:2577,_ZN4JsonL26releasePrefixedStringValueEPc
FN:2580,_ZN4JsonL18releaseStringValueEPcj
FN:2601,_ZN4Json9ExceptionC2ERKSs
FN:2604,_ZN4Json9ExceptionD0Ev
FN:2604,_ZN4Json9ExceptionD2Ev
FN:2606,_ZNK4Json9Exception4whatEv
FN:2610,_ZN4Json12RuntimeErrorC2ERKSs
FN:2613,_ZN4Json10LogicErrorC2ERKSs
FN:2616,_ZN4Json17throwRuntimeErrorERKSs
FN:2620,_ZN4Json15throwLogicErrorERKSs
FN:2633,_ZN4Json5Value11CommentInfoC2Ev
FN:2636,_ZN4Json5Value11CommentInfoD2Ev
FN:2641,_ZN4Json5Value11CommentInfo10setCommentEPKcm
FN:2665,_ZN4Json5Value8CZStringC2Ej
FN:2667,_ZN4Json5Value8CZStringC2EPKcjNS1_17DuplicationPolicyE
FN:2674,_ZN4Json5Value8CZStringC2ERKS1_
FN:2686,_ZN4Json5Value8CZStringC2EOS1_
FN:2692,_ZN4Json5Value8CZStringD2Ev
FN:2698,_ZN4Json5Value8CZString4swapERS1_
FN:2703,_ZN4Json5Value8CZStringaSES1_
FN:2708,_ZNK4Json5Value8CZStringltERKS1_
FN:2722,_ZNK4Json5Value8CZStringeqERKS1_
FN:2734,_ZNK4Json5Value8CZString5indexEv
FN:2737,_ZNK4Json5Value8CZString4dataEv
FN:2738,_ZNK4Json5Value8CZString6lengthEv
FN:2739,_ZNK4Json5Value8CZString14isStaticStringEv
FN:2753,_ZN4Json5ValueC2ENS_9ValueTypeE
FN:2780,_ZN4Json5ValueC2Ei
FN:2785,_ZN4Json5ValueC2Ej
FN:2790,_ZN4Json5ValueC2Ex
FN:2794,_ZN4Json5ValueC2Ey
FN:2800,_ZN4Json5ValueC2Ed
FN:2805,_ZN4Json5ValueC2EPKc
FN:2810,_ZN4Json5ValueC2EPKcS2_
FN:2816,_ZN4Json5ValueC2ERKSs
FN:2822,_ZN4Json5ValueC2ERKNS_12StaticStringE
FN:2834,_ZN4Json5ValueC2Eb
FN:2839,_ZN4Json5ValueC2ERKS0_
FN:2885,_ZN4Json5ValueC2EOS0_
FN:2891,_ZN4Json5ValueD2Ev
FN:2917,_ZN4Json5ValueaSES0_
FN:2922,_ZN4Json5Value11swapPayloadERS0_
FN:2932,_ZN4Json5Value4swapERS0_
FN:2939,_ZNK4Json5Value4typeEv
FN:2941,_ZNK4Json5Value7compareERKS0_
FN:2949,_ZNK4Json5ValueltERKS0_
FN:2996,_ZNK4Json5ValueleERKS0_
FN:2998,_ZNK4Json5ValuegeERKS0_
FN:3000,_ZNK4Json5ValuegtERKS0_
FN:3002,_ZNK4Json5ValueeqERKS0_
FN:3047,_ZNK4Json5ValueneERKS0_
FN:3049,_ZNK4Json5Value9asCStringEv
FN:3071,_ZNK4Json5Value9getStringEPPKcS3_
FN:3080,_ZNK4Json5Value8asStringEv
FN:3115,_ZNK4Json5Value5asIntEv
FN:3137,_ZNK4Json5Value6asUIntEv
FN:3161,_ZNK4Json5Value7asInt64Ev
FN:3182,_ZNK4Json5Value8asUInt64Ev
FN:3204,_ZNK4Json5Value12asLargestIntEv
FN:3212,_ZNK4Json5Value13asLargestUIntEv
FN:3220,_ZNK4Json5Value8asDoubleEv
FN:3242,_ZNK4Json5Value7asFloatEv
FN:3265,_ZNK4Json5Value6asBoolEv
FN:3284,_ZNK4Json5Value15isConvertibleToENS_9ValueTypeE
FN:3318,_ZNK4Json5Value4sizeEv
FN:3341,_ZNK4Json5Value5emptyEv
FN:3348,_ZNK4Json5ValuentEv
FN:3350,_ZN4Json5Value5clearEv
FN:3366,_ZN4Json5Value6resizeEj
FN:3384,_ZN4Json5ValueixEj
FN:3400,_ZN4Json5ValueixEi
FN:3407,_ZNK4Json5ValueixEj
FN:3420,_ZNK4Json5ValueixEi
FN:3427,_ZN4Json5Value9initBasicENS_9ValueTypeEb
FN:3438,_ZN4Json5Value16resolveReferenceEPKc
FN:3457,_ZN4Json5Value16resolveReferenceEPKcS2_
FN:3476,_ZNK4Json5Value3getEjRKS0_
FN:3481,_ZNK4Json5Value12isValidIndexEj
FN:3483,_ZNK4Json5Value4findEPKcS2_
FN:3494,_ZNK4Json5ValueixEPKc
FN:3500,_ZNK4Json5ValueixERKSs
FN:3507,_ZN4Json5ValueixEPKc
FN:3511,_ZN4Json5ValueixERKSs
FN:3515,_ZN4Json5ValueixERKNS_12StaticStringE
FN:3531,_ZN4Json5Value6appendERKS0_
FN:3533,_ZNK4Json5Value3getEPKcS2_RKS0_
FN:3538,_ZNK4Json5Value3getEPKcRKS0_
FN:3542,_ZNK4Json5Value3getERKSsRKS0_
FN:3548,_ZN4Json5Value12removeMemberEPKcS2_PS0_
FN:3561,_ZN4Json5Value12removeMemberEPKcPS0_
FN:3565,_ZN4Json5Value12removeMemberERKSsPS0_
FN:3569,_ZN4Json5Value12removeMemberEPKc
FN:3580,_ZN4Json5Value12removeMemberERKSs
FN:3585,_ZN4Json5Value11removeIndexEjPS0_
FN:3615,_ZNK4Json5Value8isMemberEPKcS2_
FN:3620,_ZNK4Json5Value8isMemberEPKc
FN:3624,_ZNK4Json5Value8isMemberERKSs
FN:3635,_ZNK4Json5Value14getMemberNamesEv
FN:3677,_ZN4JsonL10IsIntegralEd
FN:3682,_ZNK4Json5Value6isNullEv
FN:3684,_ZNK4Json5Value6isBoolEv
FN:3686,_ZNK4Json5Value5isIntEv
FN:3701,_ZNK4Json5Value6isUIntEv
FN:3716,_ZNK4Json5Value7isInt64Ev
FN:3736,_ZNK4Json5Value8isUInt64Ev
FN:3756,_ZNK4Json5Value10isIntegralEv
FN:3764,_ZNK4Json5Value8isDoubleEv
FN:3766,_ZNK4Json5Value9isNumericEv
FN:3768,_ZNK4Json5Value8isStringEv
FN:3770,_ZNK4Json5Value7isArrayEv
FN:3772,_ZNK4Json5Value8isObjectEv
FN:3774,_ZN4Json5Value10setCommentEPKcmNS_16CommentPlacementE
FN:3784,_ZN4Json5Value10setCommentEPKcNS_16CommentPlacementE
FN:3788,_ZN4Json5Value10setCommentERKSsNS_16CommentPlacementE
FN:3792,_ZNK4Json5Value10hasCommentENS_16CommentPlacementE
FN:3796,_ZNK4Json5Value10getCommentENS_16CommentPlacementE
FN:3802,_ZN4Json5Value14setOffsetStartEl
FN:3804,_ZN4Json5Value14setOffsetLimitEl
FN:3806,_ZNK4Json5Value14getOffsetStartEv
FN:3808,_ZNK4Json5Value14getOffsetLimitEv
FN:3810,_ZNK4Json5Value14toStyledStringEv
FN:3815,_ZNK4Json5Value5beginEv
FN:3828,_ZNK4Json5Value3endEv
FN:3841,_ZN4Json5Value5beginEv
FN:3854,_ZN4Json5Value3endEv
FN:3870,_ZN4Json12PathArgumentC2Ev
FN:3872,_ZN4Json12PathArgumentC2Ej
FN:3875,_ZN4Json12PathArgumentC2EPKc
FN:3878,_ZN4Json12PathArgumentC2ERKSs
FN:3884,_ZN4Json4PathC2ERKSsRKNS_12PathArgumentES5_S5_S5_S5_
FN:3899,_ZN4Json4Path8makePathERKSsRKSt6vectorIPKNS_12PathArgumentESaIS6_EE
FN:3930,_ZN4Json4Path12addPathInArgERKSsRKSt6vectorIPKNS_12PathArgumentESaIS6_EERN9__gnu_cxx17__normal_iteratorIPKS6_S8_EENS4_4KindE
FN:3943,_ZN4Json4Path11invalidPathERKSsi
FN:3947,_ZNK4Json4Path7resolveERKNS_5ValueE
FN:3970,_ZNK4Json4Path7resolveERKNS_5ValueES3_
FN:3989,_ZNK4Json4Path4makeERNS_5ValueE
FN:4106,_ZN4JsonL24containsControlCharacterEPKc
FN:4114,_ZN4JsonL25containsControlCharacter0EPKcj
FN:4124,_ZN4Json13valueToStringEx
FN:4140,_ZN4Json13valueToStringEy
FN:4150,_ZN4Json13valueToStringEi
FN:4154,_ZN4Json13valueToStringEj
FN:4160,_ZN4Json13valueToStringEdbj
FN:4190,_ZN4Json13valueToStringEd
FN:4192,_ZN4Json13valueToStringEb
FN:4194,_ZN4Json19valueToQuotedStringEPKc
FN:4257,_ZN4JsonL8strnpbrkEPKcS1_m
FN:4271,_ZN4JsonL20valueToQuotedStringNEPKcj
FN:4336,_ZN4Json6WriterD0Ev
FN:4336,_ZN4Json6WriterD2Ev
FN:4341,_ZN4Json10FastWriterC2Ev
FN:4345,_ZN4Json10FastWriter23enableYAMLCompatibilityEv
FN:4347,_ZN4Json10FastWriter20dropNullPlaceholdersEv
FN:4349,_ZN4Json10FastWriter18omitEndingLineFeedEv
FN:4351,_ZN4Json10FastWriter5writeERKNS_5ValueE
FN:4359,_ZN4Json10FastWriter10writeValueERKNS_5ValueE
FN:4416,_ZN4Json12StyledWriterC2Ev
FN:4419,_ZN4Json12StyledWriter5writeERKNS_5ValueE
FN:4430,_ZN4Json12StyledWriter10writeValueERKNS_5ValueE
FN:4489,_ZN4Json12StyledWriter15writeArrayValueERKNS_5ValueE
FN:4532,_ZN4Json12StyledWriter14isMultineArrayERKNS_5ValueE
FN:4559,_ZN4Json12StyledWriter9pushValueERKSs
FN:4566,_ZN4Json12StyledWriter11writeIndentEv
FN:4577,_ZN4Json12StyledWriter15writeWithIndentERKSs
FN:4582,_ZN4Json12StyledWriter6indentEv
FN:4584,_ZN4Json12StyledWriter8unindentEv
FN:4589,_ZN4Json12StyledWriter23writeCommentBeforeValueERKNS_5ValueE
FN:4609,_ZN4Json12StyledWriter32writeCommentAfterValueOnSameLineERKNS_5ValueE
FN:4620,_ZN4Json12StyledWriter18hasCommentForValueERKNS_5ValueE
FN:4629,_ZN4Json18StyledStreamWriterC2ESs
FN:4633,_ZN4Json18StyledStreamWriter5writeERSoRKNS_5ValueE
FN:4647,_ZN4Json18StyledStreamWriter10writeValueERKNS_5ValueE
FN:4706,_ZN4Json18StyledStreamWriter15writeArrayValueERKNS_5ValueE
FN:4751,_ZN4Json18StyledStreamWriter14isMultineArrayERKNS_5ValueE
FN:4778,_ZN4Json18StyledStreamWriter9pushValueERKSs
FN:4785,_ZN4Json18StyledStreamWriter11writeIndentEv
FN:4793,_ZN4Json18StyledStreamWriter15writeWithIndentERKSs
FN:4799,_ZN4Json18StyledStreamWriter6indentEv
FN:4801,_ZN4Json18StyledStreamWriter8unindentEv
FN:4806,_ZN4Json18StyledStreamWriter23writeCommentBeforeValueERKNS_5ValueE
FN:4824,_ZN4Json18StyledStreamWriter32writeCommentAfterValueOnSameLineERKNS_5ValueE
FN:4835,_ZN4Json18StyledStreamWriter18hasCommentForValueERKNS_5ValueE
FN:4854,_ZN4Json23BuiltStyledStreamWriterD0Ev
FN:4854,_ZN4Json23BuiltStyledStreamWriterD2Ev
FN:4893,_ZN4Json23BuiltStyledStreamWriterC2ERKSsNS_12CommentStyle4EnumES2_S2_S2_bj
FN:4913,_ZN4Json23BuiltStyledStreamWriter5writeERKNS_5ValueEPSo
FN:4928,_ZN4Json23BuiltStyledStreamWriter10writeValueERKNS_5ValueE
FN:4987,_ZN4Json23BuiltStyledStreamWriter15writeArrayValueERKNS_5ValueE
FN:5034,_ZN4Json23BuiltStyledStreamWriter14isMultineArrayERKNS_5ValueE
FN:5061,_ZN4Json23BuiltStyledStreamWriter9pushValueERKSs
FN:5068,_ZN4Json23BuiltStyledStreamWriter11writeIndentEv
FN:5080,_ZN4Json23BuiltStyledStreamWriter15writeWithIndentERKSs
FN:5086,_ZN4Json23BuiltStyledStreamWriter6indentEv
FN:5088,_ZN4Json23BuiltStyledStreamWriter8unindentEv
FN:5093,_ZN4Json23BuiltStyledStreamWriter23writeCommentBeforeValueERKNS_5ValueE
FN:5112,_ZN4Json23BuiltStyledStreamWriter32writeCommentAfterValueOnSameLineERKNS_5ValueE
FN:5124,_ZN4Json23BuiltStyledStreamWriter18hasCommentForValueERKNS_5ValueE
FN:5133,_ZN4Json12StreamWriterC2Ev
FN:5137,_ZN4Json12StreamWriterD2Ev
FN:5137,_ZN4Json12StreamWriterD0Ev
FN:5140,_ZN4Json12StreamWriter7FactoryD0Ev
FN:5140,_ZN4Json12StreamWriter7FactoryD2Ev
FN:5142,_ZN4Json19StreamWriterBuilderC2Ev
FN:5146,_ZN4Json19StreamWriterBuilderD0Ev
FN:5146,_ZN4Json19StreamWriterBuilderD2Ev
FN:5148,_ZNK4Json19StreamWriterBuilder15newStreamWriterEv
FN:5180,_ZN4JsonL18getValidWriterKeysEPSt3setISsSt4lessISsESaISsEE
FN:5190,_ZNK4Json19StreamWriterBuilder8validateEPNS_5ValueE
FN:5207,_ZN4Json19StreamWriterBuilderixESs
FN:5212,_ZN4Json19StreamWriterBuilder11setDefaultsEPNS_5ValueE
FN:5224,_ZN4Json11writeStringERKNS_12StreamWriter7FactoryERKNS_5ValueE
FN:5231,_ZN4JsonlsERSoRKNS_5ValueE
FN:5238,_GLOBAL__sub_I__ZN4Json8FeaturesC2Ev
FNDA:0,_ZN4JsonL15codePointToUTF8Ej
FNDA:89850,_ZN4JsonL18isControlCharacterEc
FNDA:110,_ZN4JsonL12uintToStringEyRPc
FNDA:0,_ZN4JsonL16fixNumericLocaleEPcS0_
FNDA:250,_ZN4Json8FeaturesC2Ev
FNDA:250,_ZN4Json8Features3allEv
FNDA:0,_ZN4Json8Features10strictModeEv
FNDA:0,_ZN4JsonL15containsNewLineEPKcS1_
FNDA:250,_ZN4Json6ReaderC2Ev
FNDA:0,_ZN4Json6ReaderC2ERKNS_8FeaturesE
FNDA:250,_ZN4Json6Reader5parseERKSsRNS_5ValueEb
FNDA:0,_ZN4Json6Reader5parseERSiRNS_5ValueEb
FNDA:250,_ZN4Json6Reader5parseEPKcS2_RNS_5ValueEb
FNDA:1810,_ZN4Json6Reader9readValueEv
FNDA:2060,_ZN4Json6Reader17skipCommentTokensERNS0_5TokenE
FNDA:5700,_ZN4Json6Reader9readTokenERNS0_5TokenE
FNDA:5890,_ZN4Json6Reader10skipSpacesEv
FNDA:0,_ZN4Json6Reader5matchEPKci
FNDA:0,_ZN4Json6Reader11readCommentEv
FNDA:0,_ZN4JsonL12normalizeEOLEPKcS1_
FNDA:0,_ZN4Json6Reader10addCommentEPKcS2_NS_16CommentPlacementE
FNDA:0,_ZN4Json6Reader17readCStyleCommentEv
FNDA:0,_ZN4Json6Reader19readCppStyleCommentEv
FNDA:0,_ZN4Json6Reader10readNumberEv
FNDA:2080,_ZN4Json6Reader10readStringEv
FNDA:520,_ZN4Json6Reader10readObjectERNS0_5TokenE
FNDA:190,_ZN4Json6Reader9readArrayERNS0_5TokenE
FNDA:0,_ZN4Json6Reader12decodeNumberERNS0_5TokenE
FNDA:0,_ZN4Json6Reader12decodeNumberERNS0_5TokenERNS_5ValueE
FNDA:0,_ZN4Json6Reader12decodeDoubleERNS0_5TokenE
FNDA:0,_ZN4Json6Reader12decodeDoubleERNS0_5TokenERNS_5ValueE
FNDA:1040,_ZN4Json6Reader12decodeStringERNS0_5TokenE
FNDA:2080,_ZN4Json6Reader12decodeStringERNS0_5TokenERSs
FNDA:0,_ZN4Json6Reader22decodeUnicodeCodePointERNS0_5TokenERPKcS4_Rj
FNDA:0,_ZN4Json6Reader27decodeUnicodeEscapeSequenceERNS0_5TokenERPKcS4_Rj
FNDA:60,_ZN4Json6Reader8addErrorERKSsRNS0_5TokenEPKc
FNDA:0,_ZN4Json6Reader16recoverFromErrorENS0_9TokenTypeE
FNDA:0,_ZN4Json6Reader18addErrorAndRecoverERKSsRNS0_5TokenENS0_9TokenTypeE
FNDA:8680,_ZN4Json6Reader12currentValueEv
FNDA:73300,_ZN4Json6Reader11getNextCharEv
FNDA:0,_ZNK4Json6Reader24getLocationLineAndColumnEPKcRiS3_
FNDA:0,_ZNK4Json6Reader24getLocationLineAndColumnEPKc
FNDA:0,_ZNK4Json6Reader24getFormatedErrorMessagesEv
FNDA:0,_ZNK4Json6Reader25getFormattedErrorMessagesEv
FNDA:0,_ZNK4Json6Reader19getStructuredErrorsEv
FNDA:0,_ZN4Json6Reader9pushErrorERKNS_5ValueERKSs
FNDA:0,_ZN4Json6Reader9pushErrorERKNS_5ValueERKSsS3_
FNDA:0,_ZNK4Json6Reader4goodEv
FNDA:0,_ZN4Json11OurFeatures3allEv
FNDA:0,_ZN4Json9OurReaderD2Ev
FNDA:0,_ZN4Json9OurReader15StructuredErrorC2EOS1_
FNDA:0,_ZN4Json9OurReader15StructuredErrorC2ERKS1_
FNDA:0,_ZN4Json9OurReader15StructuredErrorD2Ev
FNDA:0,_ZN4Json9OurReader15StructuredErrorC2Ev
FNDA:0,_ZN4Json9OurReader9ErrorInfoC2ERKS1_
FNDA:0,_ZN4Json9OurReader9ErrorInfoD2Ev
FNDA:0,_ZN4Json9OurReader9ErrorInfoC2Ev
FNDA:0,_ZN4Json9OurReaderC2ERKNS_11OurFeaturesE
FNDA:0,_ZN4Json9OurReader5parseEPKcS2_RNS_5ValueEb
FNDA:0,_ZN4Json9OurReader9readValueEv
FNDA:0,_ZN4Json9OurReader17skipCommentTokensERNS0_5TokenE
FNDA:0,_ZN4Json9OurReader9readTokenERNS0_5TokenE
FNDA:0,_ZN4Json9OurReader10skipSpacesEv
FNDA:0,_ZN4Json9OurReader5matchEPKci
FNDA:0,_ZN4Json9OurReader11readCommentEv
FNDA:0,_ZN4Json9OurReader10addCommentEPKcS2_NS_16CommentPlacementE
FNDA:0,_ZN4Json9OurReader17readCStyleCommentEv
FNDA:0,_ZN4Json9OurReader19readCppStyleCommentEv
FNDA:0,_ZN4Json9OurReader10readNumberEb
FNDA:0,_ZN4Json9OurReader10readStringEv
FNDA:0,_ZN4Json9OurReader21readStringSingleQuoteEv
FNDA:0,_ZN4Json9OurReader10readObjectERNS0_5TokenE
FNDA:0,_ZN4Json9OurReader9readArrayERNS0_5TokenE
FNDA:0,_ZN4Json9OurReader12decodeNumberERNS0_5TokenE
FNDA:0,_ZN4Json9OurReader12decodeNumberERNS0_5TokenERNS_5ValueE
FNDA:0,_ZN4Json9OurReader12decodeDoubleERNS0_5TokenE
FNDA:0,_ZN4Json9OurReader12decodeDoubleERNS0_5TokenERNS_5ValueE
FNDA:0,_ZN4Json9OurReader12decodeStringERNS0_5TokenE
FNDA:0,_ZN4Json9OurReader12decodeStringERNS0_5TokenERSs
FNDA:0,_ZN4Json9OurReader22decodeUnicodeCodePointERNS0_5TokenERPKcS4_Rj
FNDA:0,_ZN4Json9OurReader27decodeUnicodeEscapeSequenceERNS0_5TokenERPKcS4_Rj
FNDA:0,_ZN4Json9OurReader8addErrorERKSsRNS0_5TokenEPKc
FNDA:0,_ZN4Json9OurReader16recoverFromErrorENS0_9TokenTypeE
FNDA:0,_ZN4Json9OurReader18addErrorAndRecoverERKSsRNS0_5TokenENS0_9TokenTypeE
FNDA:0,_ZN4Json9OurReader12currentValueEv
FNDA:0,_ZN4Json9OurReader11getNextCharEv
FNDA:0,_ZNK4Json9OurReader24getLocationLineAndColumnEPKcRiS3_
FNDA:0,_ZNK4Json9OurReader24getLocationLineAndColumnEPKc
FNDA:0,_ZNK4Json9OurReader25getFormattedErrorMessagesEv
FNDA:0,_ZNK4Json9OurReader19getStructuredErrorsEv
FNDA:0,_ZN4Json9OurReader9pushErrorERKNS_5ValueERKSs
FNDA:0,_ZN4Json9OurReader9pushErrorERKNS_5ValueERKSsS3_
FNDA:0,_ZNK4Json9OurReader4goodEv
FNDA:0,_ZN4Json13OurCharReaderD0Ev
FNDA:0,_ZN4Json13OurCharReaderD2Ev
FNDA:0,_ZN4Json13OurCharReaderC2EbRKNS_11OurFeaturesE
FNDA:0,_ZN4Json13OurCharReader5parseEPKcS2_PNS_5ValueEPSs
FNDA:0,_ZN4Json17CharReaderBuilderC2Ev
FNDA:0,_ZN4Json17CharReaderBuilderD0Ev
FNDA:0,_ZN4Json17CharReaderBuilderD2Ev
FNDA:0,_ZNK4Json17CharReaderBuilder13newCharReaderEv
FNDA:0,_ZN4JsonL18getValidReaderKeysEPSt3setISsSt4lessISsESaISsEE
FNDA:0,_ZNK4Json17CharReaderBuilder8validateEPNS_5ValueE
FNDA:0,_ZN4Json17CharReaderBuilderixESs
FNDA:0,_ZN4Json17CharReaderBuilder10strictModeEPNS_5ValueE
FNDA:0,_ZN4Json17CharReaderBuilder11setDefaultsEPNS_5ValueE
FNDA:0,_ZN4Json15parseFromStreamERKNS_10CharReader7FactoryERSiPNS_5ValueEPSs
FNDA:0,_ZN4JsonrsERSiRNS_5ValueE
FNDA:0,_ZN4Json17ValueIteratorBaseC2Ev
FNDA:0,_ZN4Json17ValueIteratorBaseC2ERKSt17_Rb_tree_iteratorISt4pairIKNS_5Value8CZStringES3_EE
FNDA:0,_ZNK4Json17ValueIteratorBase5derefEv
FNDA:0,_ZN4Json17ValueIteratorBase9incrementEv
FNDA:0,_ZN4Json17ValueIteratorBase9decrementEv
FNDA:0,_ZNK4Json17ValueIteratorBase15computeDistanceERKS0_
FNDA:0,_ZNK4Json17ValueIteratorBase7isEqualERKS0_
FNDA:0,_ZN4Json17ValueIteratorBase4copyERKS0_
FNDA:0,_ZNK4Json17ValueIteratorBase3keyEv
FNDA:0,_ZNK4Json17ValueIteratorBase5indexEv
FNDA:0,_ZNK4Json17ValueIteratorBase4nameEv
FNDA:0,_ZNK4Json17ValueIteratorBase10memberNameEv
FNDA:0,_ZNK4Json17ValueIteratorBase10memberNameEPPKc
FNDA:0,_ZN4Json18ValueConstIteratorC2Ev
FNDA:0,_ZN4Json18ValueConstIteratorC2ERKSt17_Rb_tree_iteratorISt4pairIKNS_5Value8CZStringES3_EE
FNDA:0,_ZN4Json18ValueConstIteratorC2ERKNS_13ValueIteratorE
FNDA:0,_ZN4Json18ValueConstIteratoraSERKNS_17ValueIteratorBaseE
FNDA:0,_ZN4Json13ValueIteratorC2Ev
FNDA:0,_ZN4Json13ValueIteratorC2ERKSt17_Rb_tree_iteratorISt4pairIKNS_5Value8CZStringES3_EE
FNDA:0,_ZN4Json13ValueIteratorC2ERKNS_18ValueConstIteratorE
FNDA:0,_ZN4Json13ValueIteratorC2ERKS0_
FNDA:0,_ZN4Json13ValueIteratoraSERKS0_
FNDA:0,_ZN4JsonL7InRangeIiyEEbdT_T0_
FNDA:0,_ZN4JsonL7InRangeIxxEEbdT_T0_
FNDA:0,_ZN4JsonL7InRangeIijEEbdT_T0_
FNDA:0,_ZN4JsonL7InRangeIiiEEbdT_T0_
FNDA:6300,_ZN4JsonL20duplicateStringValueEPKcm
FNDA:5640,_ZN4JsonL29duplicateAndPrefixStringValueEPKcj
FNDA:5530,_ZN4JsonL20decodePrefixedStringEbPKcPjPS1_
FNDA:5640,_ZN4JsonL26releasePrefixedStringValueEPc
FNDA:6300,_ZN4JsonL18releaseStringValueEPcj
FNDA:0,_ZN4Json9ExceptionC2ERKSs
FNDA:0,_ZN4Json9ExceptionD0Ev
FNDA:0,_ZN4Json9ExceptionD2Ev
FNDA:0,_ZNK4Json9Exception4whatEv
FNDA:0,_ZN4Json12RuntimeErrorC2ERKSs
FNDA:0,_ZN4Json10LogicErrorC2ERKSs
FNDA:0,_ZN4Json17throwRuntimeErrorERKSs
FNDA:0,_ZN4Json15throwLogicErrorERKSs
FNDA:0,_ZN4Json5Value11CommentInfoC2Ev
FNDA:0,_ZN4Json5Value11CommentInfoD2Ev
FNDA:0,_ZN4Json5Value11CommentInfo10setCommentEPKcm
FNDA:2400,_ZN4Json5Value8CZStringC2Ej
FNDA:3240,_ZN4Json5Value8CZStringC2EPKcjNS1_17DuplicationPolicyE
FNDA:9120,_ZN4Json5Value8CZStringC2ERKS1_
FNDA:0,_ZN4Json5Value8CZStringC2EOS1_
FNDA:14760,_ZN4Json5Value8CZStringD2Ev
FNDA:0,_ZN4Json5Value8CZString4swapERS1_
FNDA:0,_ZN4Json5Value8CZStringaSES1_
FNDA:11850,_ZNK4Json5Value8CZStringltERKS1_
FNDA:1300,_ZNK4Json5Value8CZStringeqERKS1_
FNDA:1330,_ZNK4Json5Value8CZString5indexEv
FNDA:940,_ZNK4Json5Value8CZString4dataEv
FNDA:940,_ZNK4Json5Value8CZString6lengthEv
FNDA:0,_ZNK4Json5Value8CZString14isStaticStringEv
FNDA:3750,_ZN4Json5ValueC2ENS_9ValueTypeE
FNDA:60,_ZN4Json5ValueC2Ei
FNDA:0,_ZN4Json5ValueC2Ej
FNDA:0,_ZN4Json5ValueC2Ex
FNDA:0,_ZN4Json5ValueC2Ey
FNDA:0,_ZN4Json5ValueC2Ed
FNDA:0,_ZN4Json5ValueC2EPKc
FNDA:0,_ZN4Json5ValueC2EPKcS2_
FNDA:1820,_ZN4Json5ValueC2ERKSs
FNDA:0,_ZN4Json5ValueC2ERKNS_12StaticStringE
FNDA:0,_ZN4Json5ValueC2Eb
FNDA:11250,_ZN4Json5ValueC2ERKS0_
FNDA:0,_ZN4Json5ValueC2EOS0_
FNDA:16880,_ZN4Json5ValueD2Ev
FNDA:3500,_ZN4Json5ValueaSES0_
FNDA:5250,_ZN4Json5Value11swapPayloadERS0_
FNDA:3500,_ZN4Json5Value4swapERS0_
FNDA:2540,_ZNK4Json5Value4typeEv
FNDA:0,_ZNK4Json5Value7compareERKS0_
FNDA:0,_ZNK4Json5ValueltERKS0_
FNDA:0,_ZNK4Json5ValueleERKS0_
FNDA:0,_ZNK4Json5ValuegeERKS0_
FNDA:0,_ZNK4Json5ValuegtERKS0_
FNDA:0,_ZNK4Json5ValueeqERKS0_
FNDA:0,_ZNK4Json5ValueneERKS0_
FNDA:0,_ZNK4Json5Value9asCStringEv
FNDA:1710,_ZNK4Json5Value9getStringEPPKcS3_
FNDA:0,_ZNK4Json5Value8asStringEv
FNDA:0,_ZNK4Json5Value5asIntEv
FNDA:0,_ZNK4Json5Value6asUIntEv
FNDA:110,_ZNK4Json5Value7asInt64Ev
FNDA:0,_ZNK4Json5Value8asUInt64Ev
FNDA:110,_ZNK4Json5Value12asLargestIntEv
FNDA:0,_ZNK4Json5Value13asLargestUIntEv
FNDA:0,_ZNK4Json5Value8asDoubleEv
FNDA:0,_ZNK4Json5Value7asFloatEv
FNDA:0,_ZNK4Json5Value6asBoolEv
FNDA:0,_ZNK4Json5Value15isConvertibleToENS_9ValueTypeE
FNDA:1540,_ZNK4Json5Value4sizeEv
FNDA:0,_ZNK4Json5Value5emptyEv
FNDA:0,_ZNK4Json5ValuentEv
FNDA:0,_ZN4Json5Value5clearEv
FNDA:0,_ZN4Json5Value6resizeEj
FNDA:1740,_ZN4Json5ValueixEj
FNDA:1220,_ZN4Json5ValueixEi
FNDA:660,_ZNK4Json5ValueixEj
FNDA:0,_ZNK4Json5ValueixEi
FNDA:5630,_ZN4Json5Value9initBasicENS_9ValueTypeEb
FNDA:0,_ZN4Json5Value16resolveReferenceEPKc
FNDA:2300,_ZN4Json5Value16resolveReferenceEPKcS2_
FNDA:0,_ZNK4Json5Value3getEjRKS0_
FNDA:0,_ZNK4Json5Value12isValidIndexEj
FNDA:940,_ZNK4Json5Value4findEPKcS2_
FNDA:0,_ZNK4Json5ValueixEPKc
FNDA:940,_ZNK4Json5ValueixERKSs
FNDA:0,_ZN4Json5ValueixEPKc
FNDA:2300,_ZN4Json5ValueixERKSs
FNDA:0,_ZN4Json5ValueixERKNS_12StaticStringE
FNDA:520,_ZN4Json5Value6appendERKS0_
FNDA:0,_ZNK4Json5Value3getEPKcS2_RKS0_
FNDA:0,_ZNK4Json5Value3getEPKcRKS0_
FNDA:0,_ZNK4Json5Value3getERKSsRKS0_
FNDA:0,_ZN4Json5Value12removeMemberEPKcS2_PS0_
FNDA:0,_ZN4Json5Value12removeMemberEPKcPS0_
FNDA:0,_ZN4Json5Value12removeMemberERKSsPS0_
FNDA:0,_ZN4Json5Value12removeMemberEPKc
FNDA:0,_ZN4Json5Value12removeMemberERKSs
FNDA:0,_ZN4Json5Value11removeIndexEjPS0_
FNDA:0,_ZNK4Json5Value8isMemberEPKcS2_
FNDA:0,_ZNK4Json5Value8isMemberEPKc
FNDA:0,_ZNK4Json5Value8isMemberERKSs
FNDA:470,_ZNK4Json5Value14getMemberNamesEv
FNDA:0,_ZN4JsonL10IsIntegralEd
FNDA:0,_ZNK4Json5Value6isNullEv
FNDA:0,_ZNK4Json5Value6isBoolEv
FNDA:0,_ZNK4Json5Value5isIntEv
FNDA:0,_ZNK4Json5Value6isUIntEv
FNDA:0,_ZNK4Json5Value7isInt64Ev
FNDA:0,_ZNK4Json5Value8isUInt64Ev
FNDA:0,_ZNK4Json5Value10isIntegralEv
FNDA:0,_ZNK4Json5Value8isDoubleEv
FNDA:0,_ZNK4Json5Value9isNumericEv
FNDA:0,_ZNK4Json5Value8isStringEv
FNDA:0,_ZNK4Json5Value7isArrayEv
FNDA:0,_ZNK4Json5Value8isObjectEv
FNDA:0,_ZN4Json5Value10setCommentEPKcmNS_16CommentPlacementE
FNDA:0,_ZN4Json5Value10setCommentEPKcNS_16CommentPlacementE
FNDA:0,_ZN4Json5Value10setCommentERKSsNS_16CommentPlacementE
FNDA:0,_ZNK4Json5Value10hasCommentENS_16CommentPlacementE
FNDA:0,_ZNK4Json5Value10getCommentENS_16CommentPlacementE
FNDA:1810,_ZN4Json5Value14setOffsetStartEl
FNDA:1810,_ZN4Json5Value14setOffsetLimitEl
FNDA:0,_ZNK4Json5Value14getOffsetStartEv
FNDA:0,_ZNK4Json5Value14getOffsetLimitEv
FNDA:0,_ZNK4Json5Value14toStyledStringEv
FNDA:0,_ZNK4Json5Value5beginEv
FNDA:0,_ZNK4Json5Value3endEv
FNDA:0,_ZN4Json5Value5beginEv
FNDA:0,_ZN4Json5Value3endEv
FNDA:0,_ZN4Json12PathArgumentC2Ev
FNDA:0,_ZN4Json12PathArgumentC2Ej
FNDA:0,_ZN4Json12PathArgumentC2EPKc
FNDA:0,_ZN4Json12PathArgumentC2ERKSs
FNDA:0,_ZN4Json4PathC2ERKSsRKNS_12PathArgumentES5_S5_S5_S5_
FNDA:0,_ZN4Json4Path8makePathERKSsRKSt6vectorIPKNS_12PathArgumentESaIS6_EE
FNDA:0,_ZN4Json4Path12addPathInArgERKSsRKSt6vectorIPKNS_12PathArgumentESaIS6_EERN9__gnu_cxx17__normal_iteratorIPKS6_S8_EENS4_4KindE
FNDA:0,_ZN4Json4Path11invalidPathERKSsi
FNDA:0,_ZNK4Json4Path7resolveERKNS_5ValueE
FNDA:0,_ZNK4Json4Path7resolveERKNS_5ValueES3_
FNDA:0,_ZNK4Json4Path4makeERNS_5ValueE
FNDA:0,_ZN4JsonL24containsControlCharacterEPKc
FNDA:2650,_ZN4JsonL25containsControlCharacter0EPKcj
FNDA:110,_ZN4Json13valueToStringEx
FNDA:0,_ZN4Json13valueToStringEy
FNDA:0,_ZN4Json13valueToStringEi
FNDA:0,_ZN4Json13valueToStringEj
FNDA:0,_ZN4Json13valueToStringEdbj
FNDA:0,_ZN4Json13valueToStringEd
FNDA:0,_ZN4Json13valueToStringEb
FNDA:0,_ZN4Json19valueToQuotedStringEPKc
FNDA:2650,_ZN4JsonL8strnpbrkEPKcS1_m
FNDA:2650,_ZN4JsonL20valueToQuotedStringNEPKcj
FNDA:0,_ZN4Json6WriterD0Ev
FNDA:940,_ZN4Json6WriterD2Ev
FNDA:940,_ZN4Json10FastWriterC2Ev
FNDA:0,_ZN4Json10FastWriter23enableYAMLCompatibilityEv
FNDA:0,_ZN4Json10FastWriter20dropNullPlaceholdersEv
FNDA:0,_ZN4Json10FastWriter18omitEndingLineFeedEv
FNDA:940,_ZN4Json10FastWriter5writeERKNS_5ValueE
FNDA:2540,_ZN4Json10FastWriter10writeValueERKNS_5ValueE
FNDA:0,_ZN4Json12StyledWriterC2Ev
FNDA:0,_ZN4Json12StyledWriter5writeERKNS_5ValueE
FNDA:0,_ZN4Json12StyledWriter10writeValueERKNS_5ValueE
FNDA:0,_ZN4Json12StyledWriter15writeArrayValueERKNS_5ValueE
FNDA:0,_ZN4Json12StyledWriter14isMultineArrayERKNS_5ValueE
FNDA:0,_ZN4Json12StyledWriter9pushValueERKSs
FNDA:0,_ZN4Json12StyledWriter11writeIndentEv
FNDA:0,_ZN4Json12StyledWriter15writeWithIndentERKSs
FNDA:0,_ZN4Json12StyledWriter6indentEv
FNDA:0,_ZN4Json12StyledWriter8unindentEv
FNDA:0,_ZN4Json12StyledWriter23writeCommentBeforeValueERKNS_5ValueE
FNDA:0,_ZN4Json12StyledWriter32writeCommentAfterValueOnSameLineERKNS_5ValueE
FNDA:0,_ZN4Json12StyledWriter18hasCommentForValueERKNS_5ValueE
FNDA:0,_ZN4Json18StyledStreamWriterC2ESs
FNDA:0,_ZN4Json18StyledStreamWriter5writeERSoRKNS_5ValueE
FNDA:0,_ZN4Json18StyledStreamWriter10writeValueERKNS_5ValueE
FNDA:0,_ZN4Json18StyledStreamWriter15writeArrayValueERKNS_5ValueE
FNDA:0,_ZN4Json18StyledStreamWriter14isMultineArrayERKNS_5ValueE
FNDA:0,_ZN4Json18StyledStreamWriter9pushValueERKSs
FNDA:0,_ZN4Json18StyledStreamWriter11writeIndentEv
FNDA:0,_ZN4Json18StyledStreamWriter15writeWithIndentERKSs
FNDA:0,_ZN4Json18StyledStreamWriter6indentEv
FNDA:0,_ZN4Json18StyledStreamWriter8unindentEv
FNDA:0,_ZN4Json18StyledStreamWriter23writeCommentBeforeValueERKNS_5ValueE
FNDA:0,_ZN4Json18StyledStreamWriter32writeCommentAfterValueOnSameLineERKNS_5ValueE
FNDA:0,_ZN4Json18StyledStreamWriter18hasCommentForValueERKNS_5ValueE
FNDA:0,_ZN4Json23BuiltStyledStreamWriterD0Ev
FNDA:0,_ZN4Json23BuiltStyledStreamWriterD2Ev
FNDA:0,_ZN4Json23BuiltStyledStreamWriterC2ERKSsNS_12CommentStyle4EnumES2_S2_S2_bj
FNDA:0,_ZN4Json23BuiltStyledStreamWriter5writeERKNS_5ValueEPSo
FNDA:0,_ZN4Json23BuiltStyledStreamWriter10writeValueERKNS_5ValueE
FNDA:0,_ZN4Json23BuiltStyledStreamWriter15writeArrayValueERKNS_5ValueE
FNDA:0,_ZN4Json23BuiltStyledStreamWriter14isMultineArrayERKNS_5ValueE
FNDA:0,_ZN4Json23BuiltStyledStreamWriter9pushValueERKSs
FNDA:0,_ZN4Json23BuiltStyledStreamWriter11writeIndentEv
FNDA:0,_ZN4Json23BuiltStyledStreamWriter15writeWithIndentERKSs
FNDA:0,_ZN4Json23BuiltStyledStreamWriter6indentEv
FNDA:0,_ZN4Json23BuiltStyledStreamWriter8unindentEv
FNDA:0,_ZN4Json23BuiltStyledStreamWriter23writeCommentBeforeValueERKNS_5ValueE
FNDA:0,_ZN4Json23BuiltStyledStreamWriter32writeCommentAfterValueOnSameLineERKNS_5ValueE
FNDA:0,_ZN4Json23BuiltStyledStreamWriter18hasCommentForValueERKNS_5ValueE
FNDA:0,_ZN4Json12StreamWriterC2Ev
FNDA:0,_ZN4Json12StreamWriterD0Ev
FNDA:0,_ZN4Json12StreamWriterD2Ev
FNDA:0,_ZN4Json12StreamWriter7FactoryD0Ev
FNDA:0,_ZN4Json12StreamWriter7FactoryD2Ev
FNDA:0,_ZN4Json19StreamWriterBuilderC2Ev
FNDA:0,_ZN4Json19StreamWriterBuilderD0Ev
FNDA:0,_ZN4Json19StreamWriterBuilderD2Ev
FNDA:0,_ZNK4Json19StreamWriterBuilder15newStreamWriterEv
FNDA:0,_ZN4JsonL18getValidWriterKeysEPSt3setISsSt4lessISsESaISsEE
FNDA:0,_ZNK4Json19StreamWriterBuilder8validateEPNS_5ValueE
FNDA:0,_ZN4Json19StreamWriterBuilderixESs
FNDA:0,_ZN4Json19StreamWriterBuilder11setDefaultsEPNS_5ValueE
FNDA:0,_ZN4Json11writeStringERKNS_12StreamWriter7FactoryERKNS_5ValueE
FNDA:0,_ZN4JsonlsERSoRKNS_5ValueE
FNDA:10,_GLOBAL__sub_I__ZN4Json8FeaturesC2Ev
FNDA:10,_Z41__static_initialization_and_destruction_0ii
FNF:351
FNH:68
DA:104,0
DA:105,0
DA:109,0
DA:110,0
DA:111,0
DA:112,0
DA:113,0
DA:114,0
DA:115,0
DA:116,0
DA:117,0
DA:118,0
DA:119,0
DA:120,0
DA:121,0
DA:122,0
DA:123,0
DA:124,0
DA:125,0
DA:126,0
DA:129,0
DA:133,89850
DA:149,110
DA:150,110
DA:151,110
DA:152,110
DA:153,110
DA:155,110
DA:162,0
DA:163,0
DA:164,0
DA:165,0
DA:167,0
DA:169,0
DA:248,250
DA:250,250
DA:252,250
DA:254,0
DA:255,0
DA:256,0
DA:257,0
DA:258,0
DA:259,0
DA:260,0
DA:266,0
DA:267,0
DA:268,0
DA:269,0
DA:270,0
DA:276,250
DA:279,250
DA:281,0
DA:283,0
DA:284,0
DA:287,250
DA:288,250
DA:289,250
DA:290,250
DA:291,250
DA:292,250
DA:295,0
DA:303,0
DA:304,0
DA:305,0
DA:308,250
DA:312,250
DA:313,0
DA:316,250
DA:317,250
DA:318,250
DA:319,250
DA:320,250
DA:321,250
DA:322,250
DA:323,250
DA:324,500
DA:325,0
DA:326,250
DA:328,250
DA:329,250
DA:331,250
DA:332,250
DA:333,0
DA:334,250
DA:335,0
DA:338,0
DA:339,0
DA:340,0
DA:343,0
DA:344,0
DA:347,250
DA:350,1810
DA:355,1810
DA:356,1810
DA:359,1810
DA:360,1810
DA:362,1810
DA:363,0
DA:364,0
DA:367,1810
DA:369,520
DA:370,520
DA:371,520
DA:373,190
DA:374,190
DA:375,190
DA:377,0
DA:378,0
DA:380,1040
DA:381,1040
DA:384,0
DA:385,0
DA:386,0
DA:387,0
DA:389,0
DA:392,0
DA:393,0
DA:394,0
DA:395,0
DA:397,0
DA:400,0
DA:401,0
DA:402,0
DA:403,0
DA:405,0
DA:409,0
DA:412,0
DA:413,0
DA:414,0
DA:415,0
DA:416,0
DA:417,0
DA:420,60
DA:421,60
DA:422,60
DA:425,1750
DA:426,1750
DA:427,1750
DA:430,1750
DA:431,1750
DA:434,2060
DA:435,2060
DA:436,2060
DA:437,2060
DA:438,2060
DA:440,0
DA:442,2060
DA:444,5700
DA:445,5700
DA:446,5700
DA:447,5700
DA:448,5700
DA:449,5700
DA:451,520
DA:452,520
DA:454,520
DA:455,520
DA:457,190
DA:458,190
DA:460,190
DA:461,190
DA:463,2080
DA:464,2080
DA:465,2080
DA:467,0
DA:468,0
DA:469,0
DA:481,0
DA:482,0
DA:483,0
DA:485,0
DA:486,0
DA:487,0
DA:489,0
DA:490,0
DA:491,0
DA:493,0
DA:494,0
DA:495,0
DA:497,850
DA:498,850
DA:500,1040
DA:501,1040
DA:503,310
DA:504,310
DA:506,0
DA:507,0
DA:509,5700
DA:510,0
DA:511,5700
DA:512,5700
DA:515,5890
DA:516,11970
DA:517,5770
DA:518,5770
DA:519,190
DA:523,5890
DA:525,0
DA:526,0
DA:527,0
DA:528,0
DA:529,0
DA:530,0
DA:531,0
DA:532,0
DA:533,0
DA:536,0
DA:537,0
DA:538,0
DA:539,0
DA:540,0
DA:541,0
DA:542,0
DA:543,0
DA:544,0
DA:545,0
DA:547,0
DA:548,0
DA:549,0
DA:550,0
DA:551,0
DA:554,0
DA:556,0
DA:559,0
DA:560,0
DA:561,0
DA:562,0
DA:563,0
DA:564,0
DA:565,0
DA:566,0
DA:568,0
DA:570,0
DA:572,0
DA:575,0
DA:579,0
DA:580,0
DA:581,0
DA:582,0
DA:583,0
DA:584,0
DA:586,0
DA:587,0
DA:588,0
DA:590,0
DA:591,0
DA:592,0
DA:593,0
DA:594,0
DA:596,0
DA:599,0
DA:600,0
DA:601,0
DA:602,0
DA:603,0
DA:604,0
DA:606,0
DA:607,0
DA:609,0
DA:612,0
DA:615,0
DA:616,0
DA:617,0
DA:619,0
DA:620,0
DA:622,0
DA:623,0
DA:624,0
DA:625,0
DA:628,0
DA:629,0
DA:630,0
DA:631,0
DA:632,0
DA:633,0
DA:635,0
DA:637,2080
DA:638,2080
DA:639,69680
DA:640,67600
DA:641,67600
DA:642,0
DA:643,67600
DA:644,2080
DA:646,2080
DA:649,520
DA:651,520
DA:652,1040
DA:653,520
DA:654,520
DA:655,520
DA:656,1040
DA:657,2080
DA:658,0
DA:659,1040
DA:660,0
DA:661,1040
DA:662,520
DA:663,1040
DA:664,1040
DA:665,1040
DA:666,0
DA:667,0
DA:668,0
DA:669,0
DA:670,0
DA:671,0
DA:677,1040
DA:679,0
DA:681,1040
DA:682,1040
DA:683,1040
DA:684,1040
DA:685,1040
DA:686,0
DA:689,2080
DA:690,1560
DA:691,0
DA:693,0
DA:695,1040
DA:696,2080
DA:697,0
DA:698,1040
DA:699,520
DA:702,520
DA:705,190
DA:706,190
DA:707,190
DA:708,190
DA:709,190
DA:710,190
DA:713,0
DA:714,0
DA:716,190
DA:718,520
DA:719,520
DA:720,520
DA:721,520
DA:722,520
DA:723,0
DA:727,520
DA:728,1040
DA:729,0
DA:732,520
DA:733,520
DA:735,0
DA:737,520
DA:738,190
DA:739,330
DA:740,380
DA:743,0
DA:744,0
DA:745,0
DA:746,0
DA:747,0
DA:748,0
DA:749,0
DA:750,0
DA:753,0
DA:757,0
DA:758,0
DA:759,0
DA:760,0
DA:763,0
DA:764,0
DA:765,0
DA:766,0
DA:767,0
DA:768,0
DA:769,0
DA:770,0
DA:771,0
DA:772,0
DA:777,0
DA:778,0
DA:779,0
DA:782,0
DA:784,0
DA:785,0
DA:786,0
DA:787,0
DA:788,0
DA:789,0
DA:791,0
DA:792,0
DA:795,0
DA:796,0
DA:797,0
DA:798,0
DA:799,0
DA:800,0
DA:801,0
DA:802,0
DA:805,0
DA:806,0
DA:807,0
DA:808,0
DA:809,0
DA:810,0
DA:812,0
DA:813,0
DA:814,0
DA:817,1040
DA:818,1040
DA:819,1040
DA:820,0
DA:821,2080
DA:822,1040
DA:823,1040
DA:824,1040
DA:825,2080
DA:828,2080
DA:829,2080
DA:830,2080
DA:831,2080
DA:832,69680
DA:833,65520
DA:834,65520
DA:835,0
DA:836,65520
DA:837,0
DA:838,0
DA:839,0
DA:840,0
DA:842,0
DA:843,0
DA:845,0
DA:846,0
DA:848,0
DA:849,0
DA:851,0
DA:852,0
DA:854,0
DA:855,0
DA:857,0
DA:858,0
DA:860,0
DA:861,0
DA:863,0
DA:864,0
DA:867,0
DA:868,0
DA:869,0
DA:870,0
DA:872,0
DA:875,65520
DA:878,2080
DA:881,0
DA:886,0
DA:887,0
DA:888,0
DA:890,0
DA:894,0
DA:896,0
DA:897,0
DA:898,0
DA:900,0
DA:905,0
DA:907,0
DA:910,0
DA:914,0
DA:918,0
DA:919,0
DA:920,0
DA:921,0
DA:922,0
DA:923,0
DA:924,0
DA:925,0
DA:926,0
DA:927,0
DA:928,0
DA:933,0
DA:935,0
DA:936,0
DA:940,60
DA:941,60
DA:942,60
DA:943,60
DA:944,60
DA:945,60
DA:946,60
DA:949,0
DA:950,0
DA:953,0
DA:954,0
DA:955,0
DA:958,0
DA:959,0
DA:962,0
DA:965,0
DA:966,0
DA:969,8680
DA:971,73300
DA:972,73300
DA:973,310
DA:974,72990
DA:977,0
DA:980,0
DA:981,0
DA:982,0
DA:983,0
DA:984,0
DA:985,0
DA:986,0
DA:987,0
DA:988,0
DA:989,0
DA:990,0
DA:991,0
DA:992,0
DA:996,0
DA:997,0
DA:998,0
DA:1000,0
DA:1002,0
DA:1004,0
DA:1005,0
DA:1009,0
DA:1010,0
DA:1013,0
DA:1014,0
DA:1015,0
DA:1016,0
DA:1018,0
DA:1020,0
DA:1021,0
DA:1022,0
DA:1024,0
DA:1026,0
DA:1029,0
DA:1030,0
DA:1031,0
DA:1032,0
DA:1034,0
DA:1035,0
DA:1036,0
DA:1037,0
DA:1038,0
DA:1039,0
DA:1040,0
DA:1041,0
DA:1044,0
DA:1045,0
DA:1046,0
DA:1047,0
DA:1048,0
DA:1050,0
DA:1051,0
DA:1052,0
DA:1053,0
DA:1054,0
DA:1055,0
DA:1056,0
DA:1057,0
DA:1058,0
DA:1061,0
DA:1062,0
DA:1063,0
DA:1064,0
DA:1065,0
DA:1066,0
DA:1068,0
DA:1069,0
DA:1070,0
DA:1071,0
DA:1072,0
DA:1073,0
DA:1074,0
DA:1075,0
DA:1076,0
DA:1079,0
DA:1080,0
DA:1101,0
DA:1107,0
DA:1111,0
DA:1159,0
DA:1226,0
DA:1230,0
DA:1231,0
DA:1233,0
DA:1237,0
DA:1238,0
DA:1241,0
DA:1242,0
DA:1243,0
DA:1244,0
DA:1245,0
DA:1246,0
DA:1247,0
DA:1248,0
DA:1249,0
DA:1250,0
DA:1251,0
DA:1253,0
DA:1254,0
DA:1256,0
DA:1257,0
DA:1258,0
DA:1259,0
DA:1260,0
DA:1263,0
DA:1264,0
DA:1265,0
DA:1266,0
DA:1269,0
DA:1270,0
DA:1271,0
DA:1274,0
DA:1275,0
DA:1278,0
DA:1281,0
DA:1282,0
DA:1283,0
DA:1285,0
DA:1286,0
DA:1288,0
DA:1289,0
DA:1290,0
DA:1293,0
DA:1295,0
DA:1296,0
DA:1297,0
DA:1299,0
DA:1300,0
DA:1301,0
DA:1303,0
DA:1304,0
DA:1306,0
DA:1307,0
DA:1310,0
DA:1311,0
DA:1312,0
DA:1313,0
DA:1315,0
DA:1318,0
DA:1319,0
DA:1320,0
DA:1321,0
DA:1323,0
DA:1326,0
DA:1327,0
DA:1328,0
DA:1329,0
DA:1331,0
DA:1334,0
DA:1335,0
DA:1336,0
DA:1337,0
DA:1339,0
DA:1342,0
DA:1343,0
DA:1344,0
DA:1345,0
DA:1347,0
DA:1350,0
DA:1351,0
DA:1352,0
DA:1353,0
DA:1355,0
DA:1359,0
DA:1362,0
DA:1363,0
DA:1364,0
DA:1365,0
DA:1366,0
DA:1367,0
DA:1370,0
DA:1371,0
DA:1372,0
DA:1375,0
DA:1376,0
DA:1377,0
DA:1380,0
DA:1381,0
DA:1384,0
DA:1385,0
DA:1386,0
DA:1387,0
DA:1388,0
DA:1390,0
DA:1392,0
DA:1394,0
DA:1395,0
DA:1396,0
DA:1397,0
DA:1398,0
DA:1399,0
DA:1401,0
DA:1402,0
DA:1404,0
DA:1405,0
DA:1407,0
DA:1408,0
DA:1410,0
DA:1411,0
DA:1413,0
DA:1414,0
DA:1415,0
DA:1417,0
DA:1418,0
DA:1419,0
DA:1420,0
DA:1423,0
DA:1424,0
DA:1425,0
DA:1436,0
DA:1437,0
DA:1438,0
DA:1440,0
DA:1441,0
DA:1443,0
DA:1444,0
DA:1446,0
DA:1448,0
DA:1449,0
DA:1450,0
DA:1452,0
DA:1453,0
DA:1454,0
DA:1456,0
DA:1457,0
DA:1458,0
DA:1460,0
DA:1461,0
DA:1462,0
DA:1464,0
DA:1466,0
DA:1468,0
DA:1469,0
DA:1470,0
DA:1472,0
DA:1474,0
DA:1476,0
DA:1477,0
DA:1479,0
DA:1480,0
DA:1482,0
DA:1483,0
DA:1485,0
DA:1486,0
DA:1488,0
DA:1489,0
DA:1490,0
DA:1491,0
DA:1494,0
DA:1495,0
DA:1496,0
DA:1497,0
DA:1498,0
DA:1502,0
DA:1504,0
DA:1505,0
DA:1506,0
DA:1507,0
DA:1508,0
DA:1509,0
DA:1510,0
DA:1511,0
DA:1512,0
DA:1515,0
DA:1516,0
DA:1517,0
DA:1518,0
DA:1519,0
DA:1520,0
DA:1521,0
DA:1522,0
DA:1523,0
DA:1524,0
DA:1526,0
DA:1527,0
DA:1528,0
DA:1529,0
DA:1530,0
DA:1533,0
DA:1535,0
DA:1539,0
DA:1540,0
DA:1541,0
DA:1542,0
DA:1543,0
DA:1544,0
DA:1546,0
DA:1547,0
DA:1548,0
DA:1550,0
DA:1551,0
DA:1552,0
DA:1553,0
DA:1554,0
DA:1556,0
DA:1559,0
DA:1560,0
DA:1561,0
DA:1562,0
DA:1563,0
DA:1564,0
DA:1566,0
DA:1567,0
DA:1569,0
DA:1572,0
DA:1575,0
DA:1576,0
DA:1577,0
DA:1578,0
DA:1579,0
DA:1581,0
DA:1583,0
DA:1584,0
DA:1586,0
DA:1587,0
DA:1588,0
DA:1589,0
DA:1592,0
DA:1593,0
DA:1594,0
DA:1595,0
DA:1596,0
DA:1597,0
DA:1599,0
DA:1601,0
DA:1602,0
DA:1603,0
DA:1604,0
DA:1605,0
DA:1606,0
DA:1607,0
DA:1608,0
DA:1610,0
DA:1614,0
DA:1615,0
DA:1616,0
DA:1617,0
DA:1618,0
DA:1619,0
DA:1620,0
DA:1621,0
DA:1623,0
DA:1626,0
DA:1628,0
DA:1629,0
DA:1630,0
DA:1631,0
DA:1632,0
DA:1633,0
DA:1634,0
DA:1635,0
DA:1636,0
DA:1637,0
DA:1638,0
DA:1639,0
DA:1640,0
DA:1641,0
DA:1642,0
DA:1643,0
DA:1644,0
DA:1645,0
DA:1646,0
DA:1647,0
DA:1648,0
DA:1654,0
DA:1656,0
DA:1658,0
DA:1659,0
DA:1660,0
DA:1662,0
DA:1664,0
DA:1665,0
DA:1666,0
DA:1667,0
DA:1668,0
DA:1669,0
DA:1672,0
DA:1673,0
DA:1674,0
DA:1676,0
DA:1678,0
DA:1679,0
DA:1680,0
DA:1681,0
DA:1682,0
DA:1685,0
DA:1688,0
DA:1689,0
DA:1690,0
DA:1691,0
DA:1692,0
DA:1693,0
DA:1696,0
DA:1697,0
DA:1699,0
DA:1701,0
DA:1702,0
DA:1703,0
DA:1704,0
DA:1705,0
DA:1706,0
DA:1710,0
DA:1711,0
DA:1712,0
DA:1715,0
DA:1716,0
DA:1718,0
DA:1720,0
DA:1721,0
DA:1722,0
DA:1723,0
DA:1726,0
DA:1727,0
DA:1728,0
DA:1729,0
DA:1730,0
DA:1731,0
DA:1732,0
DA:1733,0
DA:1736,0
DA:1740,0
DA:1741,0
DA:1742,0
DA:1743,0
DA:1747,0
DA:1748,0
DA:1749,0
DA:1750,0
DA:1751,0
DA:1752,0
DA:1753,0
DA:1754,0
DA:1755,0
DA:1760,0
DA:1761,0
DA:1762,0
DA:1765,0
DA:1767,0
DA:1768,0
DA:1769,0
DA:1770,0
DA:1772,0
DA:1773,0
DA:1776,0
DA:1777,0
DA:1778,0
DA:1779,0
DA:1780,0
DA:1781,0
DA:1782,0
DA:1783,0
DA:1786,0
DA:1787,0
DA:1788,0
DA:1790,0
DA:1793,0
DA:1794,0
DA:1796,0
DA:1803,0
DA:1805,0
DA:1807,0
DA:1808,0
DA:1809,0
DA:1811,0
DA:1812,0
DA:1815,0
DA:1816,0
DA:1818,0
DA:1819,0
DA:1820,0
DA:1823,0
DA:1824,0
DA:1825,0
DA:1826,0
DA:1827,0
DA:1828,0
DA:1829,0
DA:1830,0
DA:1831,0
DA:1834,0
DA:1835,0
DA:1836,0
DA:1837,0
DA:1838,0
DA:1839,0
DA:1840,0
DA:1841,0
DA:1842,0
DA:1843,0
DA:1844,0
DA:1845,0
DA:1846,0
DA:1848,0
DA:1849,0
DA:1851,0
DA:1852,0
DA:1854,0
DA:1855,0
DA:1857,0
DA:1858,0
DA:1860,0
DA:1861,0
DA:1863,0
DA:1864,0
DA:1866,0
DA:1867,0
DA:1869,0
DA:1870,0
DA:1873,0
DA:1874,0
DA:1875,0
DA:1876,0
DA:1878,0
DA:1881,0
DA:1884,0
DA:1887,0
DA:1892,0
DA:1893,0
DA:1894,0
DA:1896,0
DA:1900,0
DA:1902,0
DA:1903,0
DA:1904,0
DA:1906,0
DA:1911,0
DA:1913,0
DA:1916,0
DA:1920,0
DA:1924,0
DA:1925,0
DA:1926,0
DA:1927,0
DA:1928,0
DA:1929,0
DA:1930,0
DA:1931,0
DA:1932,0
DA:1933,0
DA:1934,0
DA:1939,0
DA:1941,0
DA:1942,0
DA:1946,0
DA:1947,0
DA:1948,0
DA:1949,0
DA:1950,0
DA:1951,0
DA:1952,0
DA:1955,0
DA:1956,0
DA:1959,0
DA:1960,0
DA:1961,0
DA:1964,0
DA:1965,0
DA:1968,0
DA:1971,0
DA:1972,0
DA:1975,0
DA:1977,0
DA:1978,0
DA:1979,0
DA:1980,0
DA:1983,0
DA:1986,0
DA:1987,0
DA:1988,0
DA:1989,0
DA:1990,0
DA:1991,0
DA:1992,0
DA:1993,0
DA:1994,0
DA:1995,0
DA:1996,0
DA:1997,0
DA:1998,0
DA:2002,0
DA:2003,0
DA:2004,0
DA:2006,0
DA:2008,0
DA:2010,0
DA:2011,0
DA:2014,0
DA:2015,0
DA:2016,0
DA:2017,0
DA:2019,0
DA:2021,0
DA:2022,0
DA:2023,0
DA:2025,0
DA:2027,0
DA:2030,0
DA:2031,0
DA:2032,0
DA:2033,0
DA:2035,0
DA:2036,0
DA:2037,0
DA:2038,0
DA:2039,0
DA:2040,0
DA:2041,0
DA:2042,0
DA:2045,0
DA:2046,0
DA:2047,0
DA:2048,0
DA:2049,0
DA:2051,0
DA:2052,0
DA:2053,0
DA:2054,0
DA:2055,0
DA:2056,0
DA:2057,0
DA:2058,0
DA:2059,0
DA:2062,0
DA:2063,0
DA:2064,0
DA:2065,0
DA:2066,0
DA:2067,0
DA:2069,0
DA:2070,0
DA:2071,0
DA:2072,0
DA:2073,0
DA:2074,0
DA:2075,0
DA:2076,0
DA:2077,0
DA:2080,0
DA:2081,0
DA:2085,0
DA:2089,0
DA:2093,0
DA:2094,0
DA:2095,0
DA:2098,0
DA:2099,0
DA:2100,0
DA:2102,0
DA:2106,0
DA:2108,0
DA:2109,0
DA:2110,0
DA:2111,0
DA:2112,0
DA:2114,0
DA:2115,0
DA:2116,0
DA:2117,0
DA:2118,0
DA:2119,0
DA:2120,0
DA:2121,0
DA:2122,0
DA:2123,0
DA:2124,0
DA:2125,0
DA:2127,0
DA:2129,0
DA:2130,0
DA:2131,0
DA:2132,0
DA:2133,0
DA:2134,0
DA:2135,0
DA:2136,0
DA:2137,0
DA:2138,0
DA:2139,0
DA:2140,0
DA:2141,0
DA:2143,0
DA:2144,0
DA:2145,0
DA:2146,0
DA:2147,0
DA:2148,0
DA:2149,0
DA:2150,0
DA:2151,0
DA:2152,0
DA:2153,0
DA:2156,0
DA:2158,0
DA:2160,0
DA:2163,0
DA:2166,0
DA:2167,0
DA:2168,0
DA:2169,0
DA:2170,0
DA:2171,0
DA:2172,0
DA:2173,0
DA:2174,0
DA:2176,0
DA:2178,0
DA:2181,0
DA:2182,0
DA:2183,0
DA:2184,0
DA:2185,0
DA:2186,0
DA:2187,0
DA:2188,0
DA:2189,0
DA:2190,0
DA:2192,0
DA:2197,0
DA:2201,0
DA:2202,0
DA:2203,0
DA:2204,0
DA:2205,0
DA:2207,0
DA:2208,0
DA:2211,0
DA:2212,0
DA:2213,0
DA:2214,0
DA:2215,0
DA:2218,0
DA:2220,0
DA:2222,0
DA:2257,0
DA:2258,0
DA:2259,0
DA:2261,0
DA:2263,0
DA:2265,0
DA:2266,0
DA:2269,0
DA:2270,0
DA:2271,0
DA:2273,0
DA:2274,0
DA:2275,0
DA:2278,0
DA:2287,0
DA:2288,0
DA:2296,0
DA:2297,0
DA:2299,0
DA:2301,0
DA:2305,0
DA:2306,0
DA:2307,0
DA:2309,0
DA:2312,0
DA:2313,0
DA:2314,0
DA:2315,0
DA:2317,0
DA:2318,0
DA:2319,0
DA:2320,0
DA:2321,0
DA:2322,0
DA:2324,0
DA:2327,0
DA:2328,0
DA:2329,0
DA:2330,0
DA:2331,0
DA:2334,0
DA:2337,0
DA:2338,0
DA:2339,0
DA:2342,0
DA:2343,0
DA:2344,0
DA:2347,0
DA:2348,0
DA:2349,0
DA:2350,0
DA:2351,0
DA:2353,0
DA:2354,0
DA:2365,0
DA:2367,0
DA:2369,0
DA:2371,0
DA:2372,0
DA:2374,0
DA:2376,0
DA:2377,0
DA:2388,0
DA:2390,0
DA:2391,0
DA:2393,0
DA:2394,0
DA:2395,0
DA:2398,0
DA:2399,0
DA:2401,0
DA:2402,0
DA:2403,0
DA:2456,10
DA:2457,10
DA:2477,0
DA:2481,0
DA:2505,6300
DA:2510,6300
DA:2511,0
DA:2513,6300
DA:2514,6300
DA:2517,0
DA:2519,6300
DA:2520,6300
DA:2521,6300
DA:2526,5640
DA:2532,5640
DA:2535,5640
DA:2536,5640
DA:2537,5640
DA:2540,0
DA:2542,5640
DA:2543,5640
DA:2544,5640
DA:2545,5640
DA:2547,5530
DA:2551,5530
DA:2552,0
DA:2553,0
DA:2555,5530
DA:2556,5530
DA:2558,5530
DA:2577,5640
DA:2578,5640
DA:2579,5640
DA:2580,6300
DA:2581,6300
DA:2582,6300
DA:2601,0
DA:2602,0
DA:2603,0
DA:2604,0
DA:2605,0
DA:2606,0
DA:2608,0
DA:2610,0
DA:2611,0
DA:2612,0
DA:2613,0
DA:2614,0
DA:2615,0
DA:2616,0
DA:2618,0
DA:2620,0
DA:2622,0
DA:2633,0
DA:2634,0
DA:2636,0
DA:2637,0
DA:2638,0
DA:2639,0
DA:2641,0
DA:2642,0
DA:2643,0
DA:2644,0
DA:2646,0
DA:2647,0
DA:2651,0
DA:2652,0
DA:2665,2400
DA:2667,3240
DA:2668,3240
DA:2670,3240
DA:2671,3240
DA:2672,3240
DA:2674,9120
DA:2675,17070
DA:2676,6300
DA:2677,15420
DA:2681,9120
DA:2682,9120
DA:2683,9120
DA:2686,0
DA:2687,0
DA:2688,0
DA:2689,0
DA:2692,14760
DA:2693,14760
DA:2694,6300
DA:2696,14760
DA:2698,0
DA:2699,0
DA:2700,0
DA:2701,0
DA:2703,0
DA:2704,0
DA:2705,0
DA:2708,11850
DA:2709,11850
DA:2712,5800
DA:2713,5800
DA:2714,5800
DA:2715,5800
DA:2716,5800
DA:2717,5800
DA:2718,3330
DA:2719,2480
DA:2722,1300
DA:2723,1300
DA:2726,600
DA:2727,600
DA:2728,600
DA:2729,600
DA:2730,600
DA:2731,600
DA:2734,1330
DA:2737,940
DA:2738,940
DA:2739,0
DA:2753,3750
DA:2754,3750
DA:2755,3750
DA:2757,2270
DA:2760,0
DA:2761,0
DA:2763,0
DA:2764,0
DA:2766,0
DA:2767,0
DA:2770,1480
DA:2771,1480
DA:2773,0
DA:2774,0
DA:2776,0
DA:2778,3750
DA:2780,60
DA:2781,60
DA:2782,60
DA:2783,60
DA:2785,0
DA:2786,0
DA:2787,0
DA:2788,0
DA:2790,0
DA:2791,0
DA:2792,0
DA:2793,0
DA:2794,0
DA:2795,0
DA:2796,0
DA:2797,0
DA:2800,0
DA:2801,0
DA:2802,0
DA:2803,0
DA:2805,0
DA:2806,0
DA:2807,0
DA:2808,0
DA:2810,0
DA:2811,0
DA:2813,0
DA:2814,0
DA:2816,1820
DA:2817,1820
DA:2819,1820
DA:2820,1820
DA:2822,0
DA:2823,0
DA:2824,0
DA:2825,0
DA:2834,0
DA:2835,0
DA:2836,0
DA:2837,0
DA:2839,11250
DA:2842,11250
DA:2844,11250
DA:2850,5710
DA:2851,5710
DA:2853,3820
DA:2857,3820
DA:2858,3820
DA:2859,3820
DA:2861,0
DA:2862,0
DA:2864,3820
DA:2867,1720
DA:2868,1720
DA:2870,0
DA:2872,11250
DA:2873,0
DA:2874,0
DA:2875,0
DA:2876,0
DA:2878,0
DA:2881,11250
DA:2885,0
DA:2886,0
DA:2887,0
DA:2888,0
DA:2891,16880
DA:2892,16880
DA:2898,8040
DA:2900,5640
DA:2901,5640
DA:2902,5640
DA:2905,3200
DA:2906,3200
DA:2908,0
DA:2911,16880
DA:2912,0
DA:2914,16880
DA:2915,16880
DA:2917,3500
DA:2918,3500
DA:2919,3500
DA:2922,5250
DA:2923,5250
DA:2924,5250
DA:2925,5250
DA:2926,5250
DA:2927,5250
DA:2928,5250
DA:2929,5250
DA:2930,5250
DA:2932,3500
DA:2933,3500
DA:2934,3500
DA:2935,3500
DA:2936,3500
DA:2937,3500
DA:2939,2540
DA:2941,0
DA:2942,0
DA:2943,0
DA:2944,0
DA:2945,0
DA:2946,0
DA:2949,0
DA:2950,0
DA:2951,0
DA:2952,0
DA:2953,0
DA:2955,0
DA:2957,0
DA:2959,0
DA:2961,0
DA:2963,0
DA:2966,0
DA:2967,0
DA:2968,0
DA:2974,0
DA:2975,0
DA:2976,0
DA:2977,0
DA:2978,0
DA:2979,0
DA:2980,0
DA:2981,0
DA:2985,0
DA:2986,0
DA:2987,0
DA:2988,0
DA:2991,0
DA:2996,0
DA:2998,0
DA:3000,0
DA:3002,0
DA:3007,0
DA:3008,0
DA:3009,0
DA:3010,0
DA:3012,0
DA:3014,0
DA:3016,0
DA:3018,0
DA:3020,0
DA:3023,0
DA:3024,0
DA:3030,0
DA:3031,0
DA:3032,0
DA:3033,0
DA:3034,0
DA:3035,0
DA:3039,0
DA:3040,0
DA:3042,0
DA:3047,0
DA:3049,0
DA:3050,0
DA:3052,0
DA:3055,0
DA:3056,0
DA:3071,1710
DA:3072,1710
DA:3073,1710
DA:3075,1710
DA:3076,1710
DA:3077,1710
DA:3080,0
DA:3081,0
DA:3083,0
DA:3086,0
DA:3089,0
DA:3090,0
DA:3093,0
DA:3095,0
DA:3097,0
DA:3099,0
DA:3101,0
DA:3115,0
DA:3116,0
DA:3118,0
DA:3119,0
DA:3121,0
DA:3122,0
DA:3124,0
DA:3126,0
DA:3128,0
DA:3130,0
DA:3132,0
DA:3134,0
DA:3137,0
DA:3138,0
DA:3140,0
DA:3141,0
DA:3143,0
DA:3144,0
DA:3146,0
DA:3148,0
DA:3150,0
DA:3152,0
DA:3154,0
DA:3156,0
DA:3161,110
DA:3162,110
DA:3164,110
DA:3166,0
DA:3167,0
DA:3169,0
DA:3171,0
DA:3173,0
DA:3175,0
DA:3177,0
DA:3179,0
DA:3182,0
DA:3183,0
DA:3185,0
DA:3186,0
DA:3188,0
DA:3190,0
DA:3192,0
DA:3194,0
DA:3196,0
DA:3198,0
DA:3200,0
DA:3204,110
DA:3208,110
DA:3212,0
DA:3216,0
DA:3220,0
DA:3221,0
DA:3223,0
DA:3226,0
DA:3231,0
DA:3233,0
DA:3235,0
DA:3237,0
DA:3239,0
DA:3242,0
DA:3243,0
DA:3245,0
DA:3248,0
DA:3254,0
DA:3256,0
DA:3258,0
DA:3260,0
DA:3262,0
DA:3265,0
DA:3266,0
DA:3268,0
DA:3270,0
DA:3272,0
DA:3274,0
DA:3277,0
DA:3279,0
DA:3281,0
DA:3284,0
DA:3285,0
DA:3287,0
DA:3288,0
DA:3289,0
DA:3290,0
DA:3291,0
DA:3292,0
DA:3294,0
DA:3295,0
DA:3296,0
DA:3298,0
DA:3299,0
DA:3300,0
DA:3302,0
DA:3304,0
DA:3306,0
DA:3307,0
DA:3309,0
DA:3311,0
DA:3313,0
DA:3318,1540
DA:3319,1540
DA:3326,60
DA:3328,1480
DA:3329,1330
DA:3330,1330
DA:3331,1330
DA:3333,150
DA:3335,0
DA:3337,0
DA:3341,0
DA:3342,0
DA:3343,0
DA:3345,0
DA:3348,0
DA:3350,0
DA:3351,0
DA:3354,0
DA:3355,0
DA:3356,0
DA:3359,0
DA:3360,0
DA:3362,0
DA:3364,0
DA:3366,0
DA:3367,0
DA:3369,0
DA:3370,0
DA:3371,0
DA:3372,0
DA:3373,0
DA:3374,0
DA:3375,0
DA:3377,0
DA:3378,0
DA:3380,0
DA:3382,0
DA:3384,1740
DA:3385,1740
DA:3388,1740
DA:3389,50
DA:3390,1740
DA:3391,1740
DA:3392,1740
DA:3393,700
DA:3395,2080
DA:3396,1040
DA:3397,2780
DA:3400,1220
DA:3401,1220
DA:3404,1220
DA:3407,660
DA:3408,660
DA:3411,660
DA:3412,0
DA:3413,660
DA:3414,660
DA:3415,660
DA:3416,0
DA:3417,660
DA:3420,0
DA:3421,0
DA:3424,0
DA:3427,5630
DA:3428,5630
DA:3429,5630
DA:3430,5630
DA:3431,5630
DA:3432,5630
DA:3433,5630
DA:3438,0
DA:3439,0
DA:3442,0
DA:3443,0
DA:3445,0
DA:3446,0
DA:3447,0
DA:3448,0
DA:3450,0
DA:3451,0
DA:3452,0
DA:3453,0
DA:3457,2300
DA:3459,2300
DA:3462,2300
DA:3463,0
DA:3465,2300
DA:3466,2300
DA:3467,2300
DA:3468,600
DA:3470,3400
DA:3471,1700
DA:3472,1700
DA:3473,4000
DA:3476,0
DA:3477,0
DA:3478,0
DA:3481,0
DA:3483,940
DA:3485,940
DA:3488,940
DA:3489,940
DA:3490,940
DA:3491,940
DA:3492,940
DA:3494,0
DA:3496,0
DA:3497,0
DA:3498,0
DA:3500,940
DA:3502,940
DA:3503,940
DA:3504,940
DA:3507,0
DA:3508,0
DA:3511,2300
DA:3512,2300
DA:3515,0
DA:3516,0
DA:3531,520
DA:3533,0
DA:3535,0
DA:3536,0
DA:3538,0
DA:3540,0
DA:3542,0
DA:3544,0
DA:3548,0
DA:3550,0
DA:3551,0
DA:3553,0
DA:3554,0
DA:3555,0
DA:3556,0
DA:3557,0
DA:3558,0
DA:3559,0
DA:3561,0
DA:3563,0
DA:3565,0
DA:3567,0
DA:3569,0
DA:3571,0
DA:3573,0
DA:3574,0
DA:3576,0
DA:3577,0
DA:3578,0
DA:3580,0
DA:3582,0
DA:3585,0
DA:3586,0
DA:3587,0
DA:3589,0
DA:3590,0
DA:3591,0
DA:3592,0
DA:3594,0
DA:3595,0
DA:3597,0
DA:3598,0
DA:3599,0
DA:3600,0
DA:3602,0
DA:3603,0
DA:3604,0
DA:3605,0
DA:3615,0
DA:3617,0
DA:3618,0
DA:3620,0
DA:3622,0
DA:3624,0
DA:3626,0
DA:3635,470
DA:3636,470
DA:3639,470
DA:3640,0
DA:3641,470
DA:3642,470
DA:3643,470
DA:3644,470
DA:3645,1410
DA:3646,940
DA:3647,1880
DA:3649,470
DA:3677,0
DA:3679,0
DA:3682,0
DA:3684,0
DA:3686,0
DA:3687,0
DA:3689,0
DA:3691,0
DA:3693,0
DA:3694,0
DA:3696,0
DA:3698,0
DA:3701,0
DA:3702,0
DA:3704,0
DA:3706,0
DA:3708,0
DA:3709,0
DA:3711,0
DA:3713,0
DA:3716,0
DA:3718,0
DA:3720,0
DA:3722,0
DA:3727,0
DA:3728,0
DA:3730,0
DA:3733,0
DA:3736,0
DA:3738,0
DA:3740,0
DA:3742,0
DA:3747,0
DA:3748,0
DA:3750,0
DA:3753,0
DA:3756,0
DA:3758,0
DA:3764,0
DA:3766,0
DA:3768,0
DA:3770,0
DA:3772,0
DA:3774,0
DA:3775,0
DA:3776,0
DA:3777,0
DA:3779,0
DA:3781,0
DA:3782,0
DA:3784,0
DA:3785,0
DA:3786,0
DA:3788,0
DA:3789,0
DA:3790,0
DA:3792,0
DA:3793,0
DA:3796,0
DA:3797,0
DA:3798,0
DA:3799,0
DA:3802,1810
DA:3804,1810
DA:3806,0
DA:3808,0
DA:3810,0
DA:3811,0
DA:3812,0
DA:3815,0
DA:3816,0
DA:3819,0
DA:3820,0
DA:3821,0
DA:3823,0
DA:3825,0
DA:3828,0
DA:3829,0
DA:3832,0
DA:3833,0
DA:3834,0
DA:3836,0
DA:3838,0
DA:3841,0
DA:3842,0
DA:3845,0
DA:3846,0
DA:3847,0
DA:3849,0
DA:3851,0
DA:3854,0
DA:3855,0
DA:3858,0
DA:3859,0
DA:3860,0
DA:3862,0
DA:3864,0
DA:3870,0
DA:3872,0
DA:3873,0
DA:3875,0
DA:3876,0
DA:3878,0
DA:3879,0
DA:3884,0
DA:3889,0
DA:3890,0
DA:3891,0
DA:3892,0
DA:3893,0
DA:3894,0
DA:3895,0
DA:3896,0
DA:3897,0
DA:3899,0
DA:3900,0
DA:3901,0
DA:3902,0
DA:3903,0
DA:3904,0
DA:3905,0
DA:3906,0
DA:3907,0
DA:3909,0
DA:3910,0
DA:3911,0
DA:3912,0
DA:3914,0
DA:3915,0
DA:3916,0
DA:3917,0
DA:3918,0
DA:3919,0
DA:3920,0
DA:3922,0
DA:3923,0
DA:3924,0
DA:3925,0
DA:3928,0
DA:3930,0
DA:3934,0
DA:3936,0
DA:3939,0
DA:3941,0
DA:3943,0
DA:3945,0
DA:3947,0
DA:3948,0
DA:3949,0
DA:3950,0
DA:3951,0
DA:3952,0
DA:3955,0
DA:3956,0
DA:3957,0
DA:3960,0
DA:3961,0
DA:3967,0
DA:3970,0
DA:3971,0
DA:3972,0
DA:3973,0
DA:3974,0
DA:3975,0
DA:3976,0
DA:3977,0
DA:3978,0
DA:3979,0
DA:3980,0
DA:3981,0
DA:3982,0
DA:3983,0
DA:3986,0
DA:3989,0
DA:3990,0
DA:3991,0
DA:3992,0
DA:3993,0
DA:3994,0
DA:3997,0
DA:3998,0
DA:3999,0
DA:4002,0
DA:4005,0
DA:4106,0
DA:4107,0
DA:4108,0
DA:4109,0
DA:4111,0
DA:4114,2650
DA:4115,2650
DA:4116,95150
DA:4117,89850
DA:4118,0
DA:4119,89850
DA:4121,2650
DA:4124,110
DA:4126,110
DA:4127,110
DA:4128,0
DA:4129,0
DA:4130,110
DA:4131,0
DA:4132,0
DA:4134,110
DA:4136,110
DA:4137,110
DA:4140,0
DA:4142,0
DA:4143,0
DA:4144,0
DA:4145,0
DA:4150,0
DA:4151,0
DA:4154,0
DA:4155,0
DA:4160,0
DA:4164,0
DA:4167,0
DA:4172,0
DA:4173,0
DA:4176,0
DA:4177,0
DA:4178,0
DA:4179,0
DA:4181,0
DA:4185,0
DA:4186,0
DA:4187,0
DA:4190,0
DA:4192,0
DA:4194,0
DA:4195,0
DA:4196,0
DA:4198,0
DA:4199,0
DA:4200,0
DA:4205,0
DA:4206,0
DA:4207,0
DA:4208,0
DA:4209,0
DA:4210,0
DA:4212,0
DA:4213,0
DA:4215,0
DA:4216,0
DA:4218,0
DA:4219,0
DA:4221,0
DA:4222,0
DA:4224,0
DA:4225,0
DA:4227,0
DA:4228,0
DA:4230,0
DA:4231,0
DA:4241,0
DA:4242,0
DA:4243,0
DA:4244,0
DA:4245,0
DA:4247,0
DA:4249,0
DA:4252,0
DA:4253,0
DA:4257,2650
DA:4258,2650
DA:4260,2650
DA:4261,92500
DA:4262,89850
DA:4263,718800
DA:4264,628950
DA:4265,0
DA:4269,2650
DA:4271,2650
DA:4272,2650
DA:4273,0
DA:4275,5300
DA:4276,2650
DA:4277,2650
DA:4282,0
DA:4283,0
DA:4284,0
DA:4285,0
DA:4286,0
DA:4287,0
DA:4288,0
DA:4290,0
DA:4291,0
DA:4293,0
DA:4294,0
DA:4296,0
DA:4297,0
DA:4299,0
DA:4300,0
DA:4302,0
DA:4303,0
DA:4305,0
DA:4306,0
DA:4308,0
DA:4309,0
DA:4319,0
DA:4320,0
DA:4321,0
DA:4322,0
DA:4323,0
DA:4325,0
DA:4327,0
DA:4330,0
DA:4331,0
DA:4336,940
DA:4341,940
DA:4343,940
DA:4345,0
DA:4347,0
DA:4349,0
DA:4351,940
DA:4352,940
DA:4353,940
DA:4354,940
DA:4355,940
DA:4356,940
DA:4359,2540
DA:4360,2540
DA:4362,0
DA:4363,0
DA:4364,0
DA:4366,110
DA:4367,110
DA:4369,0
DA:4370,0
DA:4372,0
DA:4373,0
DA:4379,1710
DA:4380,1710
DA:4381,1710
DA:4384,0
DA:4385,0
DA:4387,250
DA:4388,250
DA:4389,910
DA:4390,660
DA:4391,420
DA:4392,660
DA:4394,250
DA:4395,250
DA:4397,470
DA:4398,470
DA:4399,1410
DA:4401,940
DA:4402,940
DA:4403,470
DA:4404,940
DA:4405,940
DA:4406,940
DA:4408,470
DA:4409,470
DA:4411,2540
DA:4416,0
DA:4417,0
DA:4419,0
DA:4420,0
DA:4421,0
DA:4422,0
DA:4423,0
DA:4424,0
DA:4425,0
DA:4426,0
DA:4427,0
DA:4430,0
DA:4431,0
DA:4433,0
DA:4434,0
DA:4436,0
DA:4437,0
DA:4439,0
DA:4440,0
DA:4442,0
DA:4443,0
DA:4449,0
DA:4450,0
DA:4451,0
DA:4452,0
DA:4455,0
DA:4456,0
DA:4458,0
DA:4459,0
DA:4461,0
DA:4462,0
DA:4463,0
DA:4465,0
DA:4466,0
DA:4467,0
DA:4469,0
DA:4470,0
DA:4471,0
DA:4472,0
DA:4473,0
DA:4474,0
DA:4475,0
DA:4476,0
DA:4477,0
DA:4479,0
DA:4480,0
DA:4481,0
DA:4482,0
DA:4483,0
DA:4484,0
DA:4485,0
DA:4487,0
DA:4489,0
DA:4490,0
DA:4491,0
DA:4492,0
DA:4494,0
DA:4495,0
DA:4496,0
DA:4497,0
DA:4498,0
DA:4499,0
DA:4501,0
DA:4502,0
DA:4503,0
DA:4504,0
DA:4506,0
DA:4507,0
DA:4509,0
DA:4510,0
DA:4511,0
DA:4513,0
DA:4514,0
DA:4515,0
DA:4516,0
DA:4517,0
DA:4520,0
DA:4521,0
DA:4522,0
DA:4523,0
DA:4524,0
DA:4525,0
DA:4527,0
DA:4530,0
DA:4532,0
DA:4533,0
DA:4534,0
DA:4535,0
DA:4536,0
DA:4537,0
DA:4538,0
DA:4539,0
DA:4541,0
DA:4543,0
DA:4544,0
DA:4545,0
DA:4546,0
DA:4547,0
DA:4548,0
DA:4550,0
DA:4551,0
DA:4553,0
DA:4554,0
DA:4556,0
DA:4559,0
DA:4560,0
DA:4561,0
DA:4563,0
DA:4564,0
DA:4566,0
DA:4567,0
DA:4568,0
DA:4569,0
DA:4570,0
DA:4571,0
DA:4572,0
DA:4574,0
DA:4577,0
DA:4578,0
DA:4579,0
DA:4580,0
DA:4582,0
DA:4584,0
DA:4585,0
DA:4586,0
DA:4587,0
DA:4589,0
DA:4590,0
DA:4591,0
DA:4593,0
DA:4594,0
DA:4595,0
DA:4596,0
DA:4597,0
DA:4598,0
DA:4599,0
DA:4600,0
DA:4601,0
DA:4602,0
DA:4606,0
DA:4609,0
DA:4610,0
DA:4611,0
DA:4613,0
DA:4614,0
DA:4615,0
DA:4616,0
DA:4618,0
DA:4620,0
DA:4621,0
DA:4622,0
DA:4623,0
DA:4629,0
DA:4631,0
DA:4633,0
DA:4634,0
DA:4635,0
DA:4636,0
DA:4637,0
DA:4638,0
DA:4639,0
DA:4640,0
DA:4641,0
DA:4642,0
DA:4643,0
DA:4644,0
DA:4645,0
DA:4647,0
DA:4648,0
DA:4650,0
DA:4651,0
DA:4653,0
DA:4654,0
DA:4656,0
DA:4657,0
DA:4659,0
DA:4660,0
DA:4666,0
DA:4667,0
DA:4668,0
DA:4669,0
DA:4672,0
DA:4673,0
DA:4675,0
DA:4676,0
DA:4678,0
DA:4679,0
DA:4680,0
DA:4682,0
DA:4683,0
DA:4684,0
DA:4686,0
DA:4687,0
DA:4688,0
DA:4689,0
DA:4690,0
DA:4691,0
DA:4692,0
DA:4693,0
DA:4694,0
DA:4696,0
DA:4697,0
DA:4698,0
DA:4699,0
DA:4700,0
DA:4701,0
DA:4702,0
DA:4704,0
DA:4706,0
DA:4707,0
DA:4708,0
DA:4709,0
DA:4711,0
DA:4712,0
DA:4713,0
DA:4714,0
DA:4715,0
DA:4716,0
DA:4718,0
DA:4719,0
DA:4720,0
DA:4721,0
DA:4723,0
DA:4724,0
DA:4725,0
DA:4726,0
DA:4728,0
DA:4729,0
DA:4730,0
DA:4732,0
DA:4733,0
DA:4734,0
DA:4735,0
DA:4736,0
DA:4739,0
DA:4740,0
DA:4741,0
DA:4742,0
DA:4743,0
DA:4744,0
DA:4746,0
DA:4749,0
DA:4751,0
DA:4752,0
DA:4753,0
DA:4754,0
DA:4755,0
DA:4756,0
DA:4757,0
DA:4758,0
DA:4760,0
DA:4762,0
DA:4763,0
DA:4764,0
DA:4765,0
DA:4766,0
DA:4767,0
DA:4769,0
DA:4770,0
DA:4772,0
DA:4773,0
DA:4775,0
DA:4778,0
DA:4779,0
DA:4780,0
DA:4782,0
DA:4783,0
DA:4785,0
DA:4790,0
DA:4791,0
DA:4793,0
DA:4794,0
DA:4795,0
DA:4796,0
DA:4797,0
DA:4799,0
DA:4801,0
DA:4802,0
DA:4803,0
DA:4804,0
DA:4806,0
DA:4807,0
DA:4808,0
DA:4810,0
DA:4811,0
DA:4812,0
DA:4813,0
DA:4814,0
DA:4815,0
DA:4816,0
DA:4818,0
DA:4819,0
DA:4821,0
DA:4824,0
DA:4825,0
DA:4826,0
DA:4828,0
DA:4829,0
DA:4830,0
DA:4832,0
DA:4833,0
DA:4835,0
DA:4836,0
DA:4837,0
DA:4838,0
DA:4854,0
DA:4893,0
DA:4910,0
DA:4912,0
DA:4913,0
DA:4915,0
DA:4916,0
DA:4917,0
DA:4918,0
DA:4919,0
DA:4920,0
DA:4921,0
DA:4922,0
DA:4923,0
DA:4924,0
DA:4925,0
DA:4926,0
DA:4928,0
DA:4929,0
DA:4931,0
DA:4932,0
DA:4934,0
DA:4935,0
DA:4937,0
DA:4938,0
DA:4940,0
DA:4941,0
DA:4947,0
DA:4948,0
DA:4949,0
DA:4950,0
DA:4953,0
DA:4954,0
DA:4956,0
DA:4957,0
DA:4959,0
DA:4960,0
DA:4961,0
DA:4963,0
DA:4964,0
DA:4965,0
DA:4967,0
DA:4968,0
DA:4969,0
DA:4970,0
DA:4971,0
DA:4972,0
DA:4973,0
DA:4974,0
DA:4975,0
DA:4977,0
DA:4978,0
DA:4979,0
DA:4980,0
DA:4981,0
DA:4982,0
DA:4983,0
DA:4985,0
DA:4987,0
DA:4988,0
DA:4989,0
DA:4990,0
DA:4992,0
DA:4993,0
DA:4994,0
DA:4995,0
DA:4996,0
DA:4997,0
DA:4999,0
DA:5000,0
DA:5001,0
DA:5002,0
DA:5004,0
DA:5005,0
DA:5006,0
DA:5007,0
DA:5009,0
DA:5010,0
DA:5011,0
DA:5013,0
DA:5014,0
DA:5015,0
DA:5016,0
DA:5017,0
DA:5020,0
DA:5021,0
DA:5022,0
DA:5023,0
DA:5024,0
DA:5025,0
DA:5026,0
DA:5028,0
DA:5029,0
DA:5032,0
DA:5034,0
DA:5035,0
DA:5036,0
DA:5037,0
DA:5038,0
DA:5039,0
DA:5040,0
DA:5041,0
DA:5043,0
DA:5045,0
DA:5046,0
DA:5047,0
DA:5048,0
DA:5049,0
DA:5050,0
DA:5052,0
DA:5053,0
DA:5055,0
DA:5056,0
DA:5058,0
DA:5061,0
DA:5062,0
DA:5063,0
DA:5065,0
DA:5066,0
DA:5068,0
DA:5074,0
DA:5076,0
DA:5078,0
DA:5080,0
DA:5081,0
DA:5082,0
DA:5083,0
DA:5084,0
DA:5086,0
DA:5088,0
DA:5089,0
DA:5090,0
DA:5091,0
DA:5093,0
DA:5094,0
DA:5095,0
DA:5096,0
DA:5098,0
DA:5099,0
DA:5100,0
DA:5101,0
DA:5102,0
DA:5103,0
DA:5104,0
DA:5106,0
DA:5107,0
DA:5109,0
DA:5112,0
DA:5113,0
DA:5114,0
DA:5115,0
DA:5117,0
DA:5118,0
DA:5119,0
DA:5124,0
DA:5125,0
DA:5126,0
DA:5127,0
DA:5133,0
DA:5134,0
DA:5136,0
DA:5137,0
DA:5139,0
DA:5140,0
DA:5141,0
DA:5142,0
DA:5144,0
DA:5145,0
DA:5146,0
DA:5147,0
DA:5148,0
DA:5150,0
DA:5151,0
DA:5152,0
DA:5153,0
DA:5154,0
DA:5155,0
DA:5156,0
DA:5157,0
DA:5158,0
DA:5159,0
DA:5160,0
DA:5162,0
DA:5164,0
DA:5165,0
DA:5166,0
DA:5167,0
DA:5168,0
DA:5170,0
DA:5171,0
DA:5172,0
DA:5174,0
DA:5175,0
DA:5178,0
DA:5180,0
DA:5182,0
DA:5183,0
DA:5184,0
DA:5185,0
DA:5186,0
DA:5187,0
DA:5188,0
DA:5189,0
DA:5190,0
DA:5192,0
DA:5193,0
DA:5194,0
DA:5195,0
DA:5196,0
DA:5197,0
DA:5198,0
DA:5199,0
DA:5200,0
DA:5201,0
DA:5202,0
DA:5205,0
DA:5207,0
DA:5209,0
DA:5212,0
DA:5215,0
DA:5216,0
DA:5217,0
DA:5218,0
DA:5219,0
DA:5220,0
DA:5222,0
DA:5224,0
DA:5225,0
DA:5226,0
DA:5227,0
DA:5228,0
DA:5231,0
DA:5232,0
DA:5233,0
DA:5234,0
DA:5235,0
DA:5238,30
LF:2798
LH:456
end_of_record
SF:/usr/include/c++/4.8/bits/alloc_traits.h
FN:253,_ZNSt16allocator_traitsISaIPKN4Json12PathArgumentEEE12_S_constructIS3_IS3_EEENSt9enable_ifIXsrNS5_18__construct_helperIT_IDpT0_EEE5valueEvE4typeERS4_PS9_DpOSA_
FN:253,_ZNSt16allocator_traitsISaIN4Json6Reader15StructuredErrorEEE12_S_constructIS2_IRKS2_EEENSt9enable_ifIXsrNS4_18__construct_helperIT_IDpT0_EEE5valueEvE4typeERS3_PSA_DpOSB_
FN:253,_ZNSt16allocator_traitsISaISsEE12_S_constructISsISsEEENSt9enable_ifIXsrNS1_18__construct_helperIT_IDpT0_EEE5valueEvE4typeERS0_PS5_DpOS6_
FN:253,_ZNSt16allocator_traitsISaIN4Json12PathArgumentEEE12_S_constructIS1_IRKS1_EEENSt9enable_ifIXsrNS3_18__construct_helperIT_IDpT0_EEE5valueEvE4typeERS2_PS9_DpOSA_
FN:253,_ZNSt16allocator_traitsISaISsEE12_S_constructISsIRKSsEEENSt9enable_ifIXsrNS1_18__construct_helperIT_IDpT0_EEE5valueEvE4typeERS0_PS7_DpOS8_
FN:253,_ZNSt16allocator_traitsISaISt13_Rb_tree_nodeISt4pairIKN4Json5Value8CZStringES3_EEEE12_S_constructIS7_IRS6_EEENSt9enable_ifIXsrNS9_18__construct_helperIT_IDpT0_EEE5valueEvE4typeERS8_PSE_DpOSF_
FN:253,_ZNSt16allocator_traitsISaIN4Json9OurReader15StructuredErrorEEE12_S_constructIS2_IRKS2_EEENSt9enable_ifIXsrNS4_18__construct_helperIT_IDpT0_EEE5valueEvE4typeERS3_PSA_DpOSB_
FN:253,_ZNSt16allocator_traitsISaISt13_Rb_tree_nodeISsEEE12_S_constructIS1_ISsEEENSt9enable_ifIXsrNS3_18__construct_helperIT_IDpT0_EEE5valueEvE4typeERS2_PS7_DpOS8_
FN:253,_ZNSt16allocator_traitsISaISt13_Rb_tree_nodeISt4pairIKN4Json5Value8CZStringES3_EEEE12_S_constructIS7_IRKSt21piecewise_construct_tSt5tupleIIRS5_EESE_IIEEEEENSt9enable_ifIXsrNS9_18__construct_helperIT_IDpT0_EEE5valueEvE4typeERS8_PSK_DpOSL_
FN:253,_ZNSt16allocator_traitsISaISt13_Rb_tree_nodeISt4pairIKN4Json5Value8CZStringES3_EEEE12_S_constructIS7_IRKS6_EEENSt9enable_ifIXsrNS9_18__construct_helperIT_IDpT0_EEE5valueEvE4typeERS8_PSF_DpOSG_
FN:253,_ZNSt16allocator_traitsISaIN4Json12PathArgumentEEE12_S_constructIS1_IS1_EEENSt9enable_ifIXsrNS3_18__construct_helperIT_IDpT0_EEE5valueEvE4typeERS2_PS7_DpOS8_
FN:280,_ZNSt16allocator_traitsISaIN4Json12PathArgumentEEE10_S_destroyIS1_EENSt9enable_ifIXsrNS3_16__destroy_helperIT_EE5valueEvE4typeERS2_PS7_
FN:280,_ZNSt16allocator_traitsISaISsEE10_S_destroyISsEENSt9enable_ifIXsrNS1_16__destroy_helperIT_EE5valueEvE4typeERS0_PS5_
FN:280,_ZNSt16allocator_traitsISaIPKN4Json12PathArgumentEEE10_S_destroyIS3_EENSt9enable_ifIXsrNS5_16__destroy_helperIT_EE5valueEvE4typeERS4_PS9_
FN:280,_ZNSt16allocator_traitsISaIN4Json6Reader15StructuredErrorEEE10_S_destroyIS2_EENSt9enable_ifIXsrNS4_16__destroy_helperIT_EE5valueEvE4typeERS3_PS8_
FN:280,_ZNSt16allocator_traitsISaIN4Json9OurReader15StructuredErrorEEE10_S_destroyIS2_EENSt9enable_ifIXsrNS4_16__destroy_helperIT_EE5valueEvE4typeERS3_PS8_
FN:305,_ZNSt16allocator_traitsISaIN4Json12PathArgumentEEE11_S_max_sizeIKS2_EENSt9enable_ifIXsrNS3_16__maxsize_helperIT_EE5valueEmE4typeERS8_
FN:305,_ZNSt16allocator_traitsISaIN4Json6Reader15StructuredErrorEEE11_S_max_sizeIKS3_EENSt9enable_ifIXsrNS4_16__maxsize_helperIT_EE5valueEmE4typeERS9_
FN:305,_ZNSt16allocator_traitsISaIPKN4Json12PathArgumentEEE11_S_max_sizeIKS4_EENSt9enable_ifIXsrNS5_16__maxsize_helperIT_EE5valueEmE4typeERSA_
FN:305,_ZNSt16allocator_traitsISaISsEE11_S_max_sizeIKS0_EENSt9enable_ifIXsrNS1_16__maxsize_helperIT_EE5valueEmE4typeERS6_
FN:305,_ZNSt16allocator_traitsISaIN4Json9OurReader15StructuredErrorEEE11_S_max_sizeIKS3_EENSt9enable_ifIXsrNS4_16__maxsize_helperIT_EE5valueEmE4typeERS9_
FN:391,_ZNSt16allocator_traitsISaIN4Json6Reader15StructuredErrorEEE9constructIS2_IRKS2_EEEDTcl12_S_constructfp_fp0_spcl7forwardIT0_Efp1_EEERS3_PT_DpOS8_
FN:391,_ZNSt16allocator_traitsISaISsEE9constructISsIRKSsEEEDTcl12_S_constructfp_fp0_spcl7forwardIT0_Efp1_EEERS0_PT_DpOS5_
FN:391,_ZNSt16allocator_traitsISaISt13_Rb_tree_nodeISt4pairIKN4Json5Value8CZStringES3_EEEE9constructIS7_IRS6_EEEDTcl12_S_constructfp_fp0_spcl7forwardIT0_Efp1_EEERS8_PT_DpOSC_
FN:391,_ZNSt16allocator_traitsISaIN4Json12PathArgumentEEE9constructIS1_IS1_EEEDTcl12_S_constructfp_fp0_spcl7forwardIT0_Efp1_EEERS2_PT_DpOS5_
FN:391,_ZNSt16allocator_traitsISaISt13_Rb_tree_nodeISsEEE9constructIS1_ISsEEEDTcl12_S_constructfp_fp0_spcl7forwardIT0_Efp1_EEERS2_PT_DpOS5_
FN:391,_ZNSt16allocator_traitsISaISt13_Rb_tree_nodeISt4pairIKN4Json5Value8CZStringES3_EEEE9constructIS7_IRKSt21piecewise_construct_tSt5tupleIIRS5_EESE_IIEEEEEDTcl12_S_constructfp_fp0_spcl7forwardIT0_Efp1_EEERS8_PT_DpOSI_
FN:391,_ZNSt16allocator_traitsISaIN4Json9OurReader15StructuredErrorEEE9constructIS2_IRKS2_EEEDTcl12_S_constructfp_fp0_spcl7forwardIT0_Efp1_EEERS3_PT_DpOS8_
FN:391,_ZNSt16allocator_traitsISaISsEE9constructISsISsEEEDTcl12_S_constructfp_fp0_spcl7forwardIT0_Efp1_EEERS0_PT_DpOS3_
FN:391,_ZNSt16allocator_traitsISaISt13_Rb_tree_nodeISt4pairIKN4Json5Value8CZStringES3_EEEE9constructIS7_IRKS6_EEEDTcl12_S_constructfp_fp0_spcl7forwardIT0_Efp1_EEERS8_PT_DpOSD_
FN:391,_ZNSt16allocator_traitsISaIN4Json12PathArgumentEEE9constructIS1_IRKS1_EEEDTcl12_S_constructfp_fp0_spcl7forwardIT0_Efp1_EEERS2_PT_DpOS7_
FN:391,_ZNSt16allocator_traitsISaIPKN4Json12PathArgumentEEE9constructIS3_IS3_EEEDTcl12_S_constructfp_fp0_spcl7forwardIT0_Efp1_EEERS4_PT_DpOS7_
FN:404,_ZNSt16allocator_traitsISaIN4Json9OurReader15StructuredErrorEEE7destroyIS2_EEvRS3_PT_
FN:404,_ZNSt16allocator_traitsISaIN4Json6Reader15StructuredErrorEEE7destroyIS2_EEvRS3_PT_
FN:404,_ZNSt16allocator_traitsISaISsEE7destroyISsEEvRS0_PT_
FN:404,_ZNSt16allocator_traitsISaIPKN4Json12PathArgumentEEE7destroyIS3_EEvRS4_PT_
FN:404,_ZNSt16allocator_traitsISaIN4Json12PathArgumentEEE7destroyIS1_EEvRS2_PT_
FN:415,_ZNSt16allocator_traitsISaIN4Json6Reader15StructuredErrorEEE8max_sizeERKS3_
FN:415,_ZNSt16allocator_traitsISaIN4Json9OurReader15StructuredErrorEEE8max_sizeERKS3_
FN:415,_ZNSt16allocator_traitsISaISsEE8max_sizeERKS0_
FN:415,_ZNSt16allocator_traitsISaIPKN4Json12PathArgumentEEE8max_sizeERKS4_
FN:415,_ZNSt16allocator_traitsISaIN4Json12PathArgumentEEE8max_sizeERKS2_
FNDA:3640,_ZNSt16allocator_traitsISaISt13_Rb_tree_nodeISt4pairIKN4Json5Value8CZStringES3_EEEE12_S_constructIS7_IRKS6_EEENSt9enable_ifIXsrNS9_18__construct_helperIT_IDpT0_EEE5valueEvE4typeERS8_PSF_DpOSG_
FNDA:2740,_ZNSt16allocator_traitsISaISt13_Rb_tree_nodeISt4pairIKN4Json5Value8CZStringES3_EEEE12_S_constructIS7_IRS6_EEENSt9enable_ifIXsrNS9_18__construct_helperIT_IDpT0_EEE5valueEvE4typeERS8_PSE_DpOSF_
FNDA:0,_ZNSt16allocator_traitsISaISt13_Rb_tree_nodeISsEEE12_S_constructIS1_ISsEEENSt9enable_ifIXsrNS3_18__construct_helperIT_IDpT0_EEE5valueEvE4typeERS2_PS7_DpOS8_
FNDA:0,_ZNSt16allocator_traitsISaISt13_Rb_tree_nodeISt4pairIKN4Json5Value8CZStringES3_EEEE12_S_constructIS7_IRKSt21piecewise_construct_tSt5tupleIIRS5_EESE_IIEEEEENSt9enable_ifIXsrNS9_18__construct_helperIT_IDpT0_EEE5valueEvE4typeERS8_PSK_DpOSL_
FNDA:0,_ZNSt16allocator_traitsISaIN4Json12PathArgumentEEE12_S_constructIS1_IS1_EEENSt9enable_ifIXsrNS3_18__construct_helperIT_IDpT0_EEE5valueEvE4typeERS2_PS7_DpOS8_
FNDA:0,_ZNSt16allocator_traitsISaIPKN4Json12PathArgumentEEE12_S_constructIS3_IS3_EEENSt9enable_ifIXsrNS5_18__construct_helperIT_IDpT0_EEE5valueEvE4typeERS4_PS9_DpOSA_
FNDA:4750,_ZNSt16allocator_traitsISaISsEE12_S_constructISsISsEEENSt9enable_ifIXsrNS1_18__construct_helperIT_IDpT0_EEE5valueEvE4typeERS0_PS5_DpOS6_
FNDA:530,_ZNSt16allocator_traitsISaISsEE12_S_constructISsIRKSsEEENSt9enable_ifIXsrNS1_18__construct_helperIT_IDpT0_EEE5valueEvE4typeERS0_PS7_DpOS8_
FNDA:0,_ZNSt16allocator_traitsISaIN4Json12PathArgumentEEE12_S_constructIS1_IRKS1_EEENSt9enable_ifIXsrNS3_18__construct_helperIT_IDpT0_EEE5valueEvE4typeERS2_PS9_DpOSA_
FNDA:0,_ZNSt16allocator_traitsISaIN4Json9OurReader15StructuredErrorEEE12_S_constructIS2_IRKS2_EEENSt9enable_ifIXsrNS4_18__construct_helperIT_IDpT0_EEE5valueEvE4typeERS3_PSA_DpOSB_
FNDA:0,_ZNSt16allocator_traitsISaIN4Json6Reader15StructuredErrorEEE12_S_constructIS2_IRKS2_EEENSt9enable_ifIXsrNS4_18__construct_helperIT_IDpT0_EEE5valueEvE4typeERS3_PSA_DpOSB_
FNDA:0,_ZNSt16allocator_traitsISaIPKN4Json12PathArgumentEEE10_S_destroyIS3_EENSt9enable_ifIXsrNS5_16__destroy_helperIT_EE5valueEvE4typeERS4_PS9_
FNDA:0,_ZNSt16allocator_traitsISaISsEE10_S_destroyISsEENSt9enable_ifIXsrNS1_16__destroy_helperIT_EE5valueEvE4typeERS0_PS5_
FNDA:0,_ZNSt16allocator_traitsISaIN4Json12PathArgumentEEE10_S_destroyIS1_EENSt9enable_ifIXsrNS3_16__destroy_helperIT_EE5valueEvE4typeERS2_PS7_
FNDA:0,_ZNSt16allocator_traitsISaIN4Json9OurReader15StructuredErrorEEE10_S_destroyIS2_EENSt9enable_ifIXsrNS4_16__destroy_helperIT_EE5valueEvE4typeERS3_PS8_
FNDA:0,_ZNSt16allocator_traitsISaIN4Json6Reader15StructuredErrorEEE10_S_destroyIS2_EENSt9enable_ifIXsrNS4_16__destroy_helperIT_EE5valueEvE4typeERS3_PS8_
FNDA:0,_ZNSt16allocator_traitsISaIPKN4Json12PathArgumentEEE11_S_max_sizeIKS4_EENSt9enable_ifIXsrNS5_16__maxsize_helperIT_EE5valueEmE4typeERSA_
FNDA:0,_ZNSt16allocator_traitsISaIN4Json12PathArgumentEEE11_S_max_sizeIKS2_EENSt9enable_ifIXsrNS3_16__maxsize_helperIT_EE5valueEmE4typeERS8_
FNDA:0,_ZNSt16allocator_traitsISaIN4Json9OurReader15StructuredErrorEEE11_S_max_sizeIKS3_EENSt9enable_ifIXsrNS4_16__maxsize_helperIT_EE5valueEmE4typeERS9_
FNDA:0,_ZNSt16allocator_traitsISaIN4Json6Reader15StructuredErrorEEE11_S_max_sizeIKS3_EENSt9enable_ifIXsrNS4_16__maxsize_helperIT_EE5valueEmE4typeERS9_
FNDA:9150,_ZNSt16allocator_traitsISaISsEE11_S_max_sizeIKS0_EENSt9enable_ifIXsrNS1_16__maxsize_helperIT_EE5valueEmE4typeERS6_
FNDA:3640,_ZNSt16allocator_traitsISaISt13_Rb_tree_nodeISt4pairIKN4Json5Value8CZStringES3_EEEE9constructIS7_IRKS6_EEEDTcl12_S_constructfp_fp0_spcl7forwardIT0_Efp1_EEERS8_PT_DpOSD_
FNDA:2740,_ZNSt16allocator_traitsISaISt13_Rb_tree_nodeISt4pairIKN4Json5Value8CZStringES3_EEEE9constructIS7_IRS6_EEEDTcl12_S_constructfp_fp0_spcl7forwardIT0_Efp1_EEERS8_PT_DpOSC_
FNDA:0,_ZNSt16allocator_traitsISaISt13_Rb_tree_nodeISsEEE9constructIS1_ISsEEEDTcl12_S_constructfp_fp0_spcl7forwardIT0_Efp1_EEERS2_PT_DpOS5_
FNDA:0,_ZNSt16allocator_traitsISaISt13_Rb_tree_nodeISt4pairIKN4Json5Value8CZStringES3_EEEE9constructIS7_IRKSt21piecewise_construct_tSt5tupleIIRS5_EESE_IIEEEEEDTcl12_S_constructfp_fp0_spcl7forwardIT0_Efp1_EEERS8_PT_DpOSI_
FNDA:0,_ZNSt16allocator_traitsISaIN4Json12PathArgumentEEE9constructIS1_IS1_EEEDTcl12_S_constructfp_fp0_spcl7forwardIT0_Efp1_EEERS2_PT_DpOS5_
FNDA:0,_ZNSt16allocator_traitsISaIPKN4Json12PathArgumentEEE9constructIS3_IS3_EEEDTcl12_S_constructfp_fp0_spcl7forwardIT0_Efp1_EEERS4_PT_DpOS7_
FNDA:4750,_ZNSt16allocator_traitsISaISsEE9constructISsISsEEEDTcl12_S_constructfp_fp0_spcl7forwardIT0_Efp1_EEERS0_PT_DpOS3_
FNDA:530,_ZNSt16allocator_traitsISaISsEE9constructISsIRKSsEEEDTcl12_S_constructfp_fp0_spcl7forwardIT0_Efp1_EEERS0_PT_DpOS5_
FNDA:0,_ZNSt16allocator_traitsISaIN4Json12PathArgumentEEE9constructIS1_IRKS1_EEEDTcl12_S_constructfp_fp0_spcl7forwardIT0_Efp1_EEERS2_PT_DpOS7_
FNDA:0,_ZNSt16allocator_traitsISaIN4Json9OurReader15StructuredErrorEEE9constructIS2_IRKS2_EEEDTcl12_S_constructfp_fp0_spcl7forwardIT0_Efp1_EEERS3_PT_DpOS8_
FNDA:0,_ZNSt16allocator_traitsISaIN4Json6Reader15StructuredErrorEEE9constructIS2_IRKS2_EEEDTcl12_S_constructfp_fp0_spcl7forwardIT0_Efp1_EEERS3_PT_DpOS8_
FNDA:0,_ZNSt16allocator_traitsISaIPKN4Json12PathArgumentEEE7destroyIS3_EEvRS4_PT_
FNDA:0,_ZNSt16allocator_traitsISaISsEE7destroyISsEEvRS0_PT_
FNDA:0,_ZNSt16allocator_traitsISaIN4Json12PathArgumentEEE7destroyIS1_EEvRS2_PT_
FNDA:0,_ZNSt16allocator_traitsISaIN4Json9OurReader15StructuredErrorEEE7destroyIS2_EEvRS3_PT_
FNDA:0,_ZNSt16allocator_traitsISaIN4Json6Reader15StructuredErrorEEE7destroyIS2_EEvRS3_PT_
FNDA:0,_ZNSt16allocator_traitsISaIPKN4Json12PathArgumentEEE8max_sizeERKS4_
FNDA:0,_ZNSt16allocator_traitsISaIN4Json12PathArgumentEEE8max_sizeERKS2_
FNDA:0,_ZNSt16allocator_traitsISaIN4Json9OurReader15StructuredErrorEEE8max_sizeERKS3_
FNDA:0,_ZNSt16allocator_traitsISaIN4Json6Reader15StructuredErrorEEE8max_sizeERKS3_
FNDA:9150,_ZNSt16allocator_traitsISaISsEE8max_sizeERKS0_
FNF:42
FNH:10
DA:253,11660
DA:254,11660
DA:280,0
DA:281,0
DA:305,9150
DA:306,9150
DA:391,11660
DA:393,11660
DA:404,0
DA:405,0
DA:415,9150
DA:416,9150
LF:12
LH:8
end_of_record
SF:/usr/include/c++/4.8/bits/allocator.h
FN:113,_ZNSaIN4Json12PathArgumentEEC2Ev
FN:113,_ZNSaIN4Json9OurReader15StructuredErrorEEC2Ev
FN:113,_ZNSaIPKN4Json12PathArgumentEEC2Ev
FN:113,_ZNSaISt13_Rb_tree_nodeISt4pairIKN4Json5Value8CZStringES2_EEEC2Ev
FN:113,_ZNSaIPN4Json5ValueEEC2Ev
FN:113,_ZNSaIN4Json9OurReader9ErrorInfoEEC2Ev
FN:113,_ZNSaISsEC2Ev
FN:113,_ZNSaISt13_Rb_tree_nodeISsEEC2Ev
FN:113,_ZNSaIN4Json6Reader15StructuredErrorEEC2Ev
FN:113,_ZNSaIN4Json6Reader9ErrorInfoEEC2Ev
FN:115,_ZNSaISsEC2ERKS_
FN:115,_ZNSaISt13_Rb_tree_nodeISt4pairIKN4Json5Value8CZStringES2_EEEC2ERKS7_
FN:115,_ZNSaIPN4Json5ValueEEC2ERKS2_
FN:119,_ZNSaIPN4Json9OurReader9ErrorInfoEEC2IS1_EERKSaIT_E
FN:119,_ZNSaIPPN4Json5ValueEEC2IS1_EERKSaIT_E
FN:119,_ZNSaIPN4Json6Reader9ErrorInfoEEC2IS1_EERKSaIT_E
FN:121,_ZNSaIN4Json9OurReader15StructuredErrorEED2Ev
FN:121,_ZNSaIN4Json12PathArgumentEED2Ev
FN:121,_ZNSaISt13_Rb_tree_nodeISt4pairIKN4Json5Value8CZStringES2_EEED2Ev
FN:121,_ZNSaIN4Json6Reader9ErrorInfoEED2Ev
FN:121,_ZNSaIPPN4Json5ValueEED2Ev
FN:121,_ZNSaIN4Json9OurReader9ErrorInfoEED2Ev
FN:121,_ZNSaIPKN4Json12PathArgumentEED2Ev
FN:121,_ZNSaISsED2Ev
FN:121,_ZNSaIPN4Json5ValueEED2Ev
FN:121,_ZNSaIPN4Json6Reader9ErrorInfoEED2Ev
FN:121,_ZNSaIPN4Json9OurReader9ErrorInfoEED2Ev
FN:121,_ZNSaIN4Json6Reader15StructuredErrorEED2Ev
FN:121,_ZNSaISt13_Rb_tree_nodeISsEED2Ev
FN:133,_ZSteqIcEbRKSaIT_ES3_
FNDA:0,_ZNSaIPKN4Json12PathArgumentEEC2Ev
FNDA:0,_ZNSaIN4Json12PathArgumentEEC2Ev
FNDA:480,_ZNSaISsEC2Ev
FNDA:1480,_ZNSaISt13_Rb_tree_nodeISt4pairIKN4Json5Value8CZStringES2_EEEC2Ev
FNDA:0,_ZNSaISt13_Rb_tree_nodeISsEEC2Ev
FNDA:0,_ZNSaIN4Json9OurReader15StructuredErrorEEC2Ev
FNDA:0,_ZNSaIN4Json9OurReader9ErrorInfoEEC2Ev
FNDA:0,_ZNSaIN4Json6Reader15StructuredErrorEEC2Ev
FNDA:250,_ZNSaIN4Json6Reader9ErrorInfoEEC2Ev
FNDA:250,_ZNSaIPN4Json5ValueEEC2Ev
FNDA:250,_ZNSaIPN4Json5ValueEEC2ERKS2_
FNDA:1720,_ZNSaISt13_Rb_tree_nodeISt4pairIKN4Json5Value8CZStringES2_EEEC2ERKS7_
FNDA:470,_ZNSaISsEC2ERKS_
FNDA:0,_ZNSaIPN4Json9OurReader9ErrorInfoEEC2IS1_EERKSaIT_E
FNDA:0,_ZNSaIPN4Json6Reader9ErrorInfoEEC2IS1_EERKSaIT_E
FNDA:0,_ZNSaIPPN4Json5ValueEEC2IS1_EERKSaIT_E
FNDA:0,_ZNSaIPN4Json9OurReader9ErrorInfoEED2Ev
FNDA:0,_ZNSaIPN4Json6Reader9ErrorInfoEED2Ev
FNDA:0,_ZNSaIPPN4Json5ValueEED2Ev
FNDA:0,_ZNSaIPKN4Json12PathArgumentEED2Ev
FNDA:0,_ZNSaIN4Json12PathArgumentEED2Ev
FNDA:0,_ZNSaIN4Json9OurReader15StructuredErrorEED2Ev
FNDA:0,_ZNSaIN4Json9OurReader9ErrorInfoEED2Ev
FNDA:0,_ZNSaIN4Json6Reader15StructuredErrorEED2Ev
FNDA:0,_ZNSaIN4Json6Reader9ErrorInfoEED2Ev
FNDA:0,_ZNSaIPN4Json5ValueEED2Ev
FNDA:0,_ZNSaISsED2Ev
FNDA:3200,_ZNSaISt13_Rb_tree_nodeISt4pairIKN4Json5Value8CZStringES2_EEED2Ev
FNDA:10,_ZNSaISt13_Rb_tree_nodeISsEED2Ev
FNDA:0,_ZSteqIcEbRKSaIT_ES3_
FNF:30
FNH:9
DA:113,2460
DA:115,2440
DA:116,2440
DA:119,0
DA:121,3210
DA:133,0
DA:134,0
LF:7
LH:4
end_of_record
SF:/usr/include/c++/4.8/bits/basic_ios.h
FN:46,_ZSt13__check_facetISt5ctypeIcEERKT_PS3_
FNDA:0,_ZSt13__check_facetISt5ctypeIcEERKT_PS3_
FNF:1
FNH:0
DA:46,0
DA:48,0
DA:49,0
DA:50,0
LF:4
LH:0
end_of_record
SF:/usr/include/c++/4.8/bits/basic_string.h
FN:272,_ZNSs12_Alloc_hiderC2ERKS_
FN:272,_ZNSs12_Alloc_hiderD2Ev
FN:1721,_ZNSs16_S_construct_auxIPcEES0_T_S1_RKSaIcESt12__false_type
FN:1721,_ZNSs16_S_construct_auxIPKcEEPcT_S3_RKSaIcESt12__false_type
FN:1743,_ZNSs12_S_constructIPKcEEPcT_S3_RKSaIcE
FN:1743,_ZNSs12_S_constructIPcEES0_T_S1_RKSaIcE
FN:2454,_ZStplIcSt11char_traitsIcESaIcEESbIT_T0_T1_EPKS3_OS6_
FN:2466,_ZStplIcSt11char_traitsIcESaIcEESbIT_T0_T1_EOS6_PKS3_
FN:2519,_ZSteqIcSt11char_traitsIcESaIcEEbRKSbIT_T0_T1_EPKS3_
FN:2569,_ZStltIcSt11char_traitsIcESaIcEEbRKSbIT_T0_T1_ES8_
FN:2717,_ZSt4swapIcSt11char_traitsIcESaIcEEvRSbIT_T0_T1_ES7_
FNDA:0,_ZNSs12_Alloc_hiderC2ERKS_
FNDA:0,_ZNSs12_Alloc_hiderD2Ev
FNDA:0,_ZNSs16_S_construct_auxIPcEES0_T_S1_RKSaIcESt12__false_type
FNDA:250,_ZNSs16_S_construct_auxIPKcEEPcT_S3_RKSaIcESt12__false_type
FNDA:0,_ZNSs12_S_constructIPcEES0_T_S1_RKSaIcE
FNDA:250,_ZNSs12_S_constructIPKcEEPcT_S3_RKSaIcE
FNDA:0,_ZStplIcSt11char_traitsIcESaIcEESbIT_T0_T1_EPKS3_OS6_
FNDA:0,_ZStplIcSt11char_traitsIcESaIcEESbIT_T0_T1_EOS6_PKS3_
FNDA:30,_ZSteqIcSt11char_traitsIcESaIcEEbRKSbIT_T0_T1_EPKS3_
FNDA:0,_ZStltIcSt11char_traitsIcESaIcEEbRKSbIT_T0_T1_ES8_
FNDA:250,_ZSt4swapIcSt11char_traitsIcESaIcEEvRSbIT_T0_T1_ES7_
FNF:11
FNH:4
DA:272,0
DA:1721,250
DA:1725,250
DA:1743,250
DA:1746,250
DA:2454,0
DA:2456,0
DA:2466,0
DA:2468,0
DA:2519,30
DA:2521,30
DA:2569,0
DA:2571,0
DA:2717,250
DA:2719,250
LF:15
LH:8
end_of_record
SF:/usr/include/c++/4.8/bits/basic_string.tcc
FN:123,_ZNSs12_S_constructIPKcEEPcT_S3_RKSaIcESt20forward_iterator_tag
FN:123,_ZNSs12_S_constructIPcEES0_T_S1_RKSaIcESt20forward_iterator_tag
FN:227,_ZNSsC2IPcEET_S1_RKSaIcE
FN:227,_ZNSsC2IPKcEET_S2_RKSaIcE
FN:692,_ZStplIcSt11char_traitsIcESaIcEESbIT_T0_T1_EPKS3_RKS6_
FNDA:0,_ZNSs12_S_constructIPcEES0_T_S1_RKSaIcESt20forward_iterator_tag
FNDA:111600,_ZNSs12_S_constructIPKcEEPcT_S3_RKSaIcESt20forward_iterator_tag
FNDA:0,_ZNSsC2IPcEET_S1_RKSaIcE
FNDA:250,_ZNSsC2IPKcEET_S2_RKSaIcE
FNDA:0,_ZStplIcSt11char_traitsIcESaIcEESbIT_T0_T1_EPKS3_RKS6_
FNF:5
FNH:2
DA:123,111600
DA:128,111600
DA:129,15020
DA:132,96580
DA:133,0
DA:136,96580
DA:138,96580
DA:140,96580
DA:141,=====
DA:143,=====
DA:144,=====
DA:146,96580
DA:147,96580
DA:227,250
DA:229,250
DA:230,250
DA:692,0
DA:698,0
DA:699,0
DA:700,0
DA:701,0
DA:702,0
DA:703,0
LF:23
LH:12
end_of_record
SF:/usr/include/c++/4.8/bits/char_traits.h
FN:242,_ZNSt11char_traitsIcE6assignERcRKc
FN:254,_ZNSt11char_traitsIcE7compareEPKcS2_m
FN:258,_ZNSt11char_traitsIcE6lengthEPKc
FN:270,_ZNSt11char_traitsIcE4copyEPcPKcm
FNDA:0,_ZNSt11char_traitsIcE6assignERcRKc
FNDA:0,_ZNSt11char_traitsIcE7compareEPKcS2_m
FNDA:0,_ZNSt11char_traitsIcE6lengthEPKc
FNDA:0,_ZNSt11char_traitsIcE4copyEPcPKcm
FNF:4
FNH:0
DA:242,0
DA:243,0
DA:254,0
DA:255,0
DA:258,0
DA:259,0
DA:270,0
DA:271,0
LF:8
LH:0
end_of_record
SF:/usr/include/c++/4.8/bits/deque.tcc
FN:131,_ZNSt5dequeIPN4Json5ValueESaIS2_EE12emplace_backIIS2_EEEvDpOT_
FN:307,_ZNSt5dequeIN4Json6Reader9ErrorInfoESaIS2_EE17_M_default_appendEm
FN:307,_ZNSt5dequeIN4Json9OurReader9ErrorInfoESaIS2_EE17_M_default_appendEm
FN:438,_ZNSt5dequeIN4Json6Reader9ErrorInfoESaIS2_EE16_M_push_back_auxIIRKS2_EEEvDpOT_
FN:438,_ZNSt5dequeIPN4Json5ValueESaIS2_EE16_M_push_back_auxIIS2_EEEvDpOT_
FN:438,_ZNSt5dequeIN4Json9OurReader9ErrorInfoESaIS2_EE16_M_push_back_auxIIRKS2_EEEvDpOT_
FN:504,_ZNSt5dequeIPN4Json5ValueESaIS2_EE15_M_pop_back_auxEv
FN:801,_ZNSt5dequeIN4Json6Reader9ErrorInfoESaIS2_EE19_M_destroy_data_auxESt15_Deque_iteratorIS2_RS2_PS2_ES8_
FN:801,_ZNSt5dequeIN4Json9OurReader9ErrorInfoESaIS2_EE19_M_destroy_data_auxESt15_Deque_iteratorIS2_RS2_PS2_ES8_
FN:848,_ZNSt5dequeIN4Json9OurReader9ErrorInfoESaIS2_EE23_M_new_elements_at_backEm
FN:848,_ZNSt5dequeIN4Json6Reader9ErrorInfoESaIS2_EE23_M_new_elements_at_backEm
FN:873,_ZNSt5dequeIPN4Json5ValueESaIS2_EE17_M_reallocate_mapEmb
FN:873,_ZNSt5dequeIN4Json9OurReader9ErrorInfoESaIS2_EE17_M_reallocate_mapEmb
FN:873,_ZNSt5dequeIN4Json6Reader9ErrorInfoESaIS2_EE17_M_reallocate_mapEmb
FNDA:1810,_ZNSt5dequeIPN4Json5ValueESaIS2_EE12emplace_backIIS2_EEEvDpOT_
FNDA:0,_ZNSt5dequeIN4Json9OurReader9ErrorInfoESaIS2_EE17_M_default_appendEm
FNDA:0,_ZNSt5dequeIN4Json6Reader9ErrorInfoESaIS2_EE17_M_default_appendEm
FNDA:0,_ZNSt5dequeIPN4Json5ValueESaIS2_EE16_M_push_back_auxIIS2_EEEvDpOT_
FNDA:0,_ZNSt5dequeIN4Json9OurReader9ErrorInfoESaIS2_EE16_M_push_back_auxIIRKS2_EEEvDpOT_
FNDA:0,_ZNSt5dequeIN4Json6Reader9ErrorInfoESaIS2_EE16_M_push_back_auxIIRKS2_EEEvDpOT_
FNDA:0,_ZNSt5dequeIPN4Json5ValueESaIS2_EE15_M_pop_back_auxEv
FNDA:0,_ZNSt5dequeIN4Json9OurReader9ErrorInfoESaIS2_EE19_M_destroy_data_auxESt15_Deque_iteratorIS2_RS2_PS2_ES8_
FNDA:0,_ZNSt5dequeIN4Json6Reader9ErrorInfoESaIS2_EE19_M_destroy_data_auxESt15_Deque_iteratorIS2_RS2_PS2_ES8_
FNDA:0,_ZNSt5dequeIN4Json9OurReader9ErrorInfoESaIS2_EE23_M_new_elements_at_backEm
FNDA:0,_ZNSt5dequeIN4Json6Reader9ErrorInfoESaIS2_EE23_M_new_elements_at_backEm
FNDA:0,_ZNSt5dequeIPN4Json5ValueESaIS2_EE17_M_reallocate_mapEmb
FNDA:0,_ZNSt5dequeIN4Json9OurReader9ErrorInfoESaIS2_EE17_M_reallocate_mapEmb
FNDA:0,_ZNSt5dequeIN4Json6Reader9ErrorInfoESaIS2_EE17_M_reallocate_mapEmb
FNF:14
FNH:1
DA:131,1810
DA:134,3620
DA:135,1810
DA:137,1810
DA:138,1810
DA:139,1810
DA:142,0
DA:143,1810
DA:307,0
DA:310,0
DA:312,0
DA:315,0
DA:317,0
DA:318,0
DA:320,=====
DA:322,=====
DA:323,=====
DA:324,=====
DA:327,0
DA:438,0
DA:446,0
DA:447,0
DA:451,0
DA:452,0
DA:456,0
DA:458,0
DA:460,=====
DA:462,=====
DA:463,=====
DA:465,0
DA:504,0
DA:507,0
DA:508,0
DA:509,0
DA:510,0
DA:511,0
DA:801,0
DA:804,0
DA:806,0
DA:807,0
DA:809,0
DA:811,0
DA:812,0
DA:813,0
DA:814,0
DA:817,0
DA:818,0
DA:819,0
DA:848,0
DA:851,0
DA:852,0
DA:854,0
DA:855,0
DA:856,0
DA:860,0
DA:861,0
DA:863,=====
DA:865,=====
DA:866,=====
DA:867,=====
DA:869,0
DA:873,0
DA:877,0
DA:878,0
DA:881,0
DA:883,0
DA:885,0
DA:886,0
DA:887,0
DA:889,0
DA:891,0
DA:893,0
DA:899,0
DA:901,0
DA:902,0
DA:903,0
DA:904,0
DA:906,0
DA:907,0
DA:909,0
DA:910,0
DA:913,0
DA:914,0
DA:915,0
LF:84
LH:7
end_of_record
SF:/usr/include/c++/4.8/bits/ios_base.h
FN:77,_ZStanSt13_Ios_FmtflagsS_
FN:81,_ZStorSt13_Ios_FmtflagsS_
FN:89,_ZStcoSt13_Ios_Fmtflags
FN:93,_ZStoRRSt13_Ios_FmtflagsS_
FN:97,_ZStaNRSt13_Ios_FmtflagsS_
FN:119,_ZStanSt13_Ios_OpenmodeS_
FN:123,_ZStorSt13_Ios_OpenmodeS_
FN:159,_ZStanSt12_Ios_IostateS_
FN:163,_ZStorSt12_Ios_IostateS_
FN:584,_ZNSt8ios_base4setfESt13_Ios_Fmtflags
FN:601,_ZNSt8ios_base4setfESt13_Ios_FmtflagsS0_
FN:659,_ZNSt8ios_base5widthEl
FN:881,_ZSt9uppercaseRSt8ios_base
FN:947,_ZSt3hexRSt8ios_base
FNDA:0,_ZStanSt13_Ios_FmtflagsS_
FNDA:0,_ZStorSt13_Ios_FmtflagsS_
FNDA:0,_ZStcoSt13_Ios_Fmtflags
FNDA:0,_ZStoRRSt13_Ios_FmtflagsS_
FNDA:0,_ZStaNRSt13_Ios_FmtflagsS_
FNDA:0,_ZStanSt13_Ios_OpenmodeS_
FNDA:0,_ZStorSt13_Ios_OpenmodeS_
FNDA:0,_ZStanSt12_Ios_IostateS_
FNDA:0,_ZStorSt12_Ios_IostateS_
FNDA:0,_ZNSt8ios_base4setfESt13_Ios_Fmtflags
FNDA:0,_ZNSt8ios_base4setfESt13_Ios_FmtflagsS0_
FNDA:0,_ZNSt8ios_base5widthEl
FNDA:0,_ZSt9uppercaseRSt8ios_base
FNDA:0,_ZSt3hexRSt8ios_base
FNF:14
FNH:0
DA:77,0
DA:78,0
DA:81,0
DA:82,0
DA:89,0
DA:90,0
DA:93,0
DA:94,0
DA:97,0
DA:98,0
DA:119,0
DA:120,0
DA:123,0
DA:124,0
DA:159,0
DA:160,0
DA:163,0
DA:164,0
DA:584,0
DA:586,0
DA:587,0
DA:588,0
DA:601,0
DA:603,0
DA:604,0
DA:605,0
DA:606,0
DA:659,0
DA:661,0
DA:662,0
DA:663,0
DA:881,0
DA:883,0
DA:884,0
DA:947,0
DA:949,0
DA:950,0
LF:37
LH:0
end_of_record
SF:/usr/include/c++/4.8/bits/locale_facets.h
FN:865,_ZNKSt5ctypeIcE5widenEc
FNDA:0,_ZNKSt5ctypeIcE5widenEc
FNF:1
FNH:0
DA:865,0
DA:867,0
DA:868,0
DA:869,0
DA:870,0
LF:5
LH:0
end_of_record
SF:/usr/include/c++/4.8/bits/move.h
FN:47,_ZSt11__addressofIN4Json9OurReader15StructuredErrorEEPT_RS3_
FN:47,_ZSt11__addressofIN4Json12PathArgumentEEPT_RS2_
FN:47,_ZSt11__addressofISt4pairIKN4Json5Value8CZStringES2_EEPT_RS6_
FN:47,_ZSt11__addressofIN4Json6Reader15StructuredErrorEEPT_RS3_
FN:47,_ZSt11__addressofIN4Json9OurReader9ErrorInfoEEPT_RS3_
FN:47,_ZSt11__addressofISsEPT_RS0_
FN:47,_ZSt11__addressofIN4Json6Reader9ErrorInfoEEPT_RS3_
FN:76,_ZSt7forwardIRPSt13_Rb_tree_nodeISsEEOT_RNSt16remove_referenceIS4_E4typeE
FN:76,_ZSt7forwardISt5tupleIIEEEOT_RNSt16remove_referenceIS2_E4typeE
FN:76,_ZSt7forwardISt5tupleIIRKN4Json5Value8CZStringEEEEOT_RNSt16remove_referenceIS7_E4typeE
FN:76,_ZSt7forwardIbEOT_RNSt16remove_referenceIS0_E4typeE
FN:76,_ZSt7forwardIN4Json9OurReader15StructuredErrorEEOT_RNSt16remove_referenceIS3_E4typeE
FN:76,_ZSt7forwardIRKSsEOT_RNSt16remove_referenceIS2_E4typeE
FN:76,_ZSt7forwardIPKN4Json12PathArgumentEEOT_RNSt16remove_referenceIS4_E4typeE
FN:76,_ZSt7forwardIPN4Json5ValueEEOT_RNSt16remove_referenceIS3_E4typeE
FN:76,_ZSt7forwardISt17_Rb_tree_iteratorISt4pairIKN4Json5Value8CZStringES3_EEEOT_RNSt16remove_referenceIS8_E4typeE
FN:76,_ZSt7forwardIRPSt13_Rb_tree_nodeISt4pairIKN4Json5Value8CZStringES3_EEEOT_RNSt16remove_referenceISA_E4typeE
FN:76,_ZSt7forwardIN4Json6Reader15StructuredErrorEEOT_RNSt16remove_referenceIS3_E4typeE
FN:76,_ZSt7forwardIRN4Json5Value8CZStringEEOT_RNSt16remove_referenceIS4_E4typeE
FN:76,_ZSt7forwardISsEOT_RNSt16remove_referenceIS0_E4typeE
FN:76,_ZSt7forwardIRbEOT_RNSt16remove_referenceIS1_E4typeE
FN:76,_ZSt7forwardIRSt17_Rb_tree_iteratorISsEEOT_RNSt16remove_referenceIS3_E4typeE
FN:76,_ZSt7forwardIRKSt4pairIKN4Json5Value8CZStringES2_EEOT_RNSt16remove_referenceIS8_E4typeE
FN:76,_ZSt7forwardISt17_Rb_tree_iteratorISsEEOT_RNSt16remove_referenceIS2_E4typeE
FN:76,_ZSt7forwardIRKSt21piecewise_construct_tEOT_RNSt16remove_referenceIS3_E4typeE
FN:76,_ZSt7forwardIRKN4Json9OurReader9ErrorInfoEEOT_RNSt16remove_referenceIS5_E4typeE
FN:76,_ZSt7forwardIRSt4pairIKN4Json5Value8CZStringES2_EEOT_RNSt16remove_referenceIS7_E4typeE
FN:76,_ZSt7forwardIRKN4Json5Value8CZStringEEOT_RNSt16remove_referenceIS5_E4typeE
FN:76,_ZSt7forwardISt14default_deleteIN4Json10CharReaderEEEOT_RNSt16remove_referenceIS4_E4typeE
FN:76,_ZSt7forwardIRPN4Json10CharReaderEEOT_RNSt16remove_referenceIS4_E4typeE
FN:76,_ZSt7forwardIRKN4Json6Reader9ErrorInfoEEOT_RNSt16remove_referenceIS5_E4typeE
FN:76,_ZSt7forwardIRKN4Json6Reader15StructuredErrorEEOT_RNSt16remove_referenceIS5_E4typeE
FN:76,_ZSt7forwardIRKN4Json9OurReader15StructuredErrorEEOT_RNSt16remove_referenceIS5_E4typeE
FN:76,_ZSt7forwardIRKN4Json12PathArgumentEEOT_RNSt16remove_referenceIS4_E4typeE
FN:76,_ZSt7forwardIRPN4Json12StreamWriterEEOT_RNSt16remove_referenceIS4_E4typeE
FN:76,_ZSt7forwardIN4Json12PathArgumentEEOT_RNSt16remove_referenceIS2_E4typeE
FN:76,_ZSt7forwardISt14default_deleteIN4Json12StreamWriterEEEOT_RNSt16remove_referenceIS4_E4typeE
FN:76,_ZSt7forwardIRPSt18_Rb_tree_node_baseEOT_RNSt16remove_referenceIS3_E4typeE
FN:101,_ZSt4moveIRlEONSt16remove_referenceIT_E4typeEOS2_
FN:101,_ZSt4moveIRN4Json6Reader15StructuredErrorEEONSt16remove_referenceIT_E4typeEOS5_
FN:101,_ZSt4moveIRSt15_Deque_iteratorIPN4Json5ValueERS3_PS3_EEONSt16remove_referenceIT_E4typeEOS9_
FN:101,_ZSt4moveIRPKcEONSt16remove_referenceIT_E4typeEOS4_
FN:101,_ZSt4moveIRN4Json5Value11ValueHolderEEONSt16remove_referenceIT_E4typeEOS5_
FN:101,_ZSt4moveIRSaISsEEONSt16remove_referenceIT_E4typeEOS3_
FN:101,_ZSt4moveIRPN4Json5ValueEEONSt16remove_referenceIT_E4typeEOS5_
FN:101,_ZSt4moveIRSt6vectorISsSaISsEEEONSt16remove_referenceIT_E4typeEOS5_
FN:101,_ZSt4moveIRPN4Json5Value11CommentInfoEEONSt16remove_referenceIT_E4typeEOS6_
FN:101,_ZSt4moveIRPKN4Json12PathArgumentEEONSt16remove_referenceIT_E4typeEOS6_
FN:101,_ZSt4moveIRPSsEONSt16remove_referenceIT_E4typeEOS3_
FN:101,_ZSt4moveIRSt5dequeIPN4Json5ValueESaIS3_EEEONSt16remove_referenceIT_E4typeEOS8_
FN:101,_ZSt4moveIRjEONSt16remove_referenceIT_E4typeEOS2_
FN:101,_ZSt4moveIRPPPN4Json5ValueEEONSt16remove_referenceIT_E4typeEOS7_
FN:101,_ZSt4moveIRmEONSt16remove_referenceIT_E4typeEOS2_
FN:101,_ZSt4moveIRSsEONSt16remove_referenceIT_E4typeEOS2_
FN:101,_ZSt4moveIRSt11_Tuple_implILm1EIEEEONSt16remove_referenceIT_E4typeEOS4_
FN:101,_ZSt4moveIRN4Json12PathArgumentEEONSt16remove_referenceIT_E4typeEOS4_
FN:101,_ZSt4moveIRSaIPN4Json5ValueEEEONSt16remove_referenceIT_E4typeEOS6_
FN:101,_ZSt4moveIRN4Json9OurReader15StructuredErrorEEONSt16remove_referenceIT_E4typeEOS5_
FN:166,_ZSt4swapImEvRT_S1_
FN:166,_ZSt4swapIPKcEvRT_S3_
FN:166,_ZSt4swapISt15_Deque_iteratorIPN4Json5ValueERS3_PS3_EEvRT_S8_
FN:166,_ZSt4swapIN4Json5Value11ValueHolderEEvRT_S4_
FN:166,_ZSt4swapIjEvRT_S1_
FN:166,_ZSt4swapIPN4Json5Value11CommentInfoEEvRT_S5_
FN:166,_ZSt4swapIPPPN4Json5ValueEEvRT_S6_
FN:166,_ZSt4swapIPSsEvRT_S2_
FN:166,_ZSt4swapIlEvRT_S1_
FNDA:0,_ZSt11__addressofIN4Json9OurReader9ErrorInfoEEPT_RS3_
FNDA:0,_ZSt11__addressofIN4Json6Reader9ErrorInfoEEPT_RS3_
FNDA:0,_ZSt11__addressofIN4Json12PathArgumentEEPT_RS2_
FNDA:0,_ZSt11__addressofIN4Json9OurReader15StructuredErrorEEPT_RS3_
FNDA:0,_ZSt11__addressofIN4Json6Reader15StructuredErrorEEPT_RS3_
FNDA:0,_ZSt11__addressofISsEPT_RS0_
FNDA:0,_ZSt11__addressofISt4pairIKN4Json5Value8CZStringES2_EEPT_RS6_
FNDA:0,_ZSt7forwardIRKN4Json5Value8CZStringEEOT_RNSt16remove_referenceIS5_E4typeE
FNDA:0,_ZSt7forwardIN4Json9OurReader15StructuredErrorEEOT_RNSt16remove_referenceIS3_E4typeE
FNDA:0,_ZSt7forwardIN4Json6Reader15StructuredErrorEEOT_RNSt16remove_referenceIS3_E4typeE
FNDA:18200,_ZSt7forwardIRKSt4pairIKN4Json5Value8CZStringES2_EEOT_RNSt16remove_referenceIS8_E4typeE
FNDA:2420,_ZSt7forwardIRPSt13_Rb_tree_nodeISt4pairIKN4Json5Value8CZStringES3_EEEOT_RNSt16remove_referenceISA_E4typeE
FNDA:0,_ZSt7forwardISt17_Rb_tree_iteratorISt4pairIKN4Json5Value8CZStringES3_EEEOT_RNSt16remove_referenceIS8_E4typeE
FNDA:0,_ZSt7forwardIRPSt18_Rb_tree_node_baseEOT_RNSt16remove_referenceIS3_E4typeE
FNDA:0,_ZSt7forwardIRPSt13_Rb_tree_nodeISsEEOT_RNSt16remove_referenceIS4_E4typeE
FNDA:3620,_ZSt7forwardIPN4Json5ValueEEOT_RNSt16remove_referenceIS3_E4typeE
FNDA:0,_ZSt7forwardIN4Json12PathArgumentEEOT_RNSt16remove_referenceIS2_E4typeE
FNDA:0,_ZSt7forwardIPKN4Json12PathArgumentEEOT_RNSt16remove_referenceIS4_E4typeE
FNDA:0,_ZSt7forwardISt5tupleIIEEEOT_RNSt16remove_referenceIS2_E4typeE
FNDA:0,_ZSt7forwardISt5tupleIIRKN4Json5Value8CZStringEEEEOT_RNSt16remove_referenceIS7_E4typeE
FNDA:0,_ZSt7forwardIRKSt21piecewise_construct_tEOT_RNSt16remove_referenceIS3_E4typeE
FNDA:0,_ZSt7forwardIbEOT_RNSt16remove_referenceIS0_E4typeE
FNDA:0,_ZSt7forwardISt17_Rb_tree_iteratorISsEEOT_RNSt16remove_referenceIS2_E4typeE
FNDA:28890,_ZSt7forwardISsEOT_RNSt16remove_referenceIS0_E4typeE
FNDA:0,_ZSt7forwardIRKN4Json9OurReader9ErrorInfoEEOT_RNSt16remove_referenceIS5_E4typeE
FNDA:60,_ZSt7forwardIRKN4Json6Reader9ErrorInfoEEOT_RNSt16remove_referenceIS5_E4typeE
FNDA:0,_ZSt7forwardISt14default_deleteIN4Json12StreamWriterEEEOT_RNSt16remove_referenceIS4_E4typeE
FNDA:0,_ZSt7forwardIRPN4Json12StreamWriterEEOT_RNSt16remove_referenceIS4_E4typeE
FNDA:0,_ZSt7forwardIRKSsEOT_RNSt16remove_referenceIS2_E4typeE
FNDA:0,_ZSt7forwardIRKN4Json12PathArgumentEEOT_RNSt16remove_referenceIS4_E4typeE
FNDA:21920,_ZSt7forwardIRSt4pairIKN4Json5Value8CZStringES2_EEOT_RNSt16remove_referenceIS7_E4typeE
FNDA:0,_ZSt7forwardISt14default_deleteIN4Json10CharReaderEEEOT_RNSt16remove_referenceIS4_E4typeE
FNDA:0,_ZSt7forwardIRPN4Json10CharReaderEEOT_RNSt16remove_referenceIS4_E4typeE
FNDA:0,_ZSt7forwardIRbEOT_RNSt16remove_referenceIS1_E4typeE
FNDA:0,_ZSt7forwardIRSt17_Rb_tree_iteratorISsEEOT_RNSt16remove_referenceIS3_E4typeE
FNDA:0,_ZSt7forwardIRKN4Json9OurReader15StructuredErrorEEOT_RNSt16remove_referenceIS5_E4typeE
FNDA:0,_ZSt7forwardIRKN4Json6Reader15StructuredErrorEEOT_RNSt16remove_referenceIS5_E4typeE
FNDA:2740,_ZSt7forwardIRN4Json5Value8CZStringEEOT_RNSt16remove_referenceIS4_E4typeE
FNDA:0,_ZSt4moveIRSt11_Tuple_implILm1EIEEEONSt16remove_referenceIT_E4typeEOS4_
FNDA:0,_ZSt4moveIRN4Json9OurReader15StructuredErrorEEONSt16remove_referenceIT_E4typeEOS5_
FNDA:0,_ZSt4moveIRN4Json6Reader15StructuredErrorEEONSt16remove_referenceIT_E4typeEOS5_
FNDA:4230,_ZSt4moveIRPSsEONSt16remove_referenceIT_E4typeEOS3_
FNDA:750,_ZSt4moveIRmEONSt16remove_referenceIT_E4typeEOS2_
FNDA:750,_ZSt4moveIRPPPN4Json5ValueEEONSt16remove_referenceIT_E4typeEOS7_
FNDA:1500,_ZSt4moveIRSt15_Deque_iteratorIPN4Json5ValueERS3_PS3_EEONSt16remove_referenceIT_E4typeEOS9_
FNDA:500,_ZSt4moveIRSaIPN4Json5ValueEEEONSt16remove_referenceIT_E4typeEOS6_
FNDA:940,_ZSt4moveIRSaISsEEONSt16remove_referenceIT_E4typeEOS3_
FNDA:0,_ZSt4moveIRN4Json12PathArgumentEEONSt16remove_referenceIT_E4typeEOS4_
FNDA:0,_ZSt4moveIRPKN4Json12PathArgumentEEONSt16remove_referenceIT_E4typeEOS6_
FNDA:21000,_ZSt4moveIRlEONSt16remove_referenceIT_E4typeEOS2_
FNDA:10500,_ZSt4moveIRPN4Json5Value11CommentInfoEEONSt16remove_referenceIT_E4typeEOS6_
FNDA:15750,_ZSt4moveIRN4Json5Value11ValueHolderEEONSt16remove_referenceIT_E4typeEOS5_
FNDA:0,_ZSt4moveIRjEONSt16remove_referenceIT_E4typeEOS2_
FNDA:0,_ZSt4moveIRPKcEONSt16remove_referenceIT_E4typeEOS4_
FNDA:470,_ZSt4moveIRSt6vectorISsSaISsEEEONSt16remove_referenceIT_E4typeEOS5_
FNDA:0,_ZSt4moveIRSsEONSt16remove_referenceIT_E4typeEOS2_
FNDA:3620,_ZSt4moveIRPN4Json5ValueEEONSt16remove_referenceIT_E4typeEOS5_
FNDA:500,_ZSt4moveIRSt5dequeIPN4Json5ValueESaIS3_EEEONSt16remove_referenceIT_E4typeEOS8_
FNDA:1410,_ZSt4swapIPSsEvRT_S2_
FNDA:250,_ZSt4swapImEvRT_S1_
FNDA:250,_ZSt4swapIPPPN4Json5ValueEEvRT_S6_
FNDA:500,_ZSt4swapISt15_Deque_iteratorIPN4Json5ValueERS3_PS3_EEvRT_S8_
FNDA:7000,_ZSt4swapIlEvRT_S1_
FNDA:3500,_ZSt4swapIPN4Json5Value11CommentInfoEEvRT_S5_
FNDA:5250,_ZSt4swapIN4Json5Value11ValueHolderEEvRT_S4_
FNDA:0,_ZSt4swapIjEvRT_S1_
FNDA:0,_ZSt4swapIPKcEvRT_S3_
FNF:67
FNH:26
DA:47,0
DA:50,0
DA:76,77850
DA:77,77850
DA:101,60510
DA:102,60510
DA:166,18160
DA:175,18160
DA:176,18160
DA:177,18160
DA:178,18160
LF:11
LH:9
end_of_record
SF:/usr/include/c++/4.8/bits/stl_algobase.h
FN:193,_ZSt3minIjERKT_S2_S2_
FN:193,_ZSt3minImERKT_S2_S2_
FN:216,_ZSt3maxImERKT_S2_S2_
FN:277,_ZSt12__niter_baseIPPN4Json6Reader9ErrorInfoEENSt11_Niter_baseIT_E13iterator_typeES6_
FN:277,_ZSt12__niter_baseIPPPN4Json5ValueEENSt11_Niter_baseIT_E13iterator_typeES6_
FN:277,_ZSt12__niter_baseIPPN4Json9OurReader9ErrorInfoEENSt11_Niter_baseIT_E13iterator_typeES6_
FN:277,_ZSt12__niter_baseIPPKN4Json12PathArgumentEENSt11_Niter_baseIT_E13iterator_typeES6_
FN:277,_ZSt12__niter_baseISt23_Rb_tree_const_iteratorISt4pairIKN4Json5Value8CZStringES3_EEENSt11_Niter_baseIT_E13iterator_typeES9_
FN:288,_ZSt12__miter_baseISt13move_iteratorIPPKN4Json12PathArgumentEEENSt11_Miter_baseIT_E13iterator_typeES8_
FN:288,_ZSt12__miter_baseIPPPN4Json5ValueEENSt11_Miter_baseIT_E13iterator_typeES6_
FN:288,_ZSt12__miter_baseIPPN4Json6Reader9ErrorInfoEENSt11_Miter_baseIT_E13iterator_typeES6_
FN:288,_ZSt12__miter_baseIPPN4Json9OurReader9ErrorInfoEENSt11_Miter_baseIT_E13iterator_typeES6_
FN:368,_ZNSt11__copy_moveILb1ELb1ESt26random_access_iterator_tagE8__copy_mIPKN4Json12PathArgumentEEEPT_PKS7_SA_S8_
FN:368,_ZNSt11__copy_moveILb0ELb1ESt26random_access_iterator_tagE8__copy_mIPN4Json6Reader9ErrorInfoEEEPT_PKS7_SA_S8_
FN:368,_ZNSt11__copy_moveILb0ELb1ESt26random_access_iterator_tagE8__copy_mIPN4Json9OurReader9ErrorInfoEEEPT_PKS7_SA_S8_
FN:368,_ZNSt11__copy_moveILb0ELb1ESt26random_access_iterator_tagE8__copy_mIPPN4Json5ValueEEEPT_PKS7_SA_S8_
FN:379,_ZSt13__copy_move_aILb0EPPPN4Json5ValueES4_ET1_T0_S6_S5_
FN:379,_ZSt13__copy_move_aILb1EPPKN4Json12PathArgumentES4_ET1_T0_S6_S5_
FN:379,_ZSt13__copy_move_aILb0EPPN4Json9OurReader9ErrorInfoES4_ET1_T0_S6_S5_
FN:379,_ZSt13__copy_move_aILb0EPPN4Json6Reader9ErrorInfoES4_ET1_T0_S6_S5_
FN:424,_ZSt14__copy_move_a2ILb1EPPKN4Json12PathArgumentES4_ET1_T0_S6_S5_
FN:424,_ZSt14__copy_move_a2ILb0EPPPN4Json5ValueES4_ET1_T0_S6_S5_
FN:424,_ZSt14__copy_move_a2ILb0EPPN4Json9OurReader9ErrorInfoES4_ET1_T0_S6_S5_
FN:424,_ZSt14__copy_move_a2ILb0EPPN4Json6Reader9ErrorInfoES4_ET1_T0_S6_S5_
FN:450,_ZSt4copyIPPPN4Json5ValueES4_ET0_T_S6_S5_
FN:450,_ZSt4copyIPPN4Json6Reader9ErrorInfoES4_ET0_T_S6_S5_
FN:450,_ZSt4copyISt13move_iteratorIPPKN4Json12PathArgumentEES5_ET0_T_S8_S7_
FN:450,_ZSt4copyIPPN4Json9OurReader9ErrorInfoES4_ET0_T_S6_S5_
FN:563,_ZNSt20__copy_move_backwardILb0ELb1ESt26random_access_iterator_tagE13__copy_move_bIPN4Json6Reader9ErrorInfoEEEPT_PKS7_SA_S8_
FN:563,_ZNSt20__copy_move_backwardILb0ELb1ESt26random_access_iterator_tagE13__copy_move_bIPPN4Json5ValueEEEPT_PKS7_SA_S8_
FN:563,_ZNSt20__copy_move_backwardILb0ELb1ESt26random_access_iterator_tagE13__copy_move_bIPN4Json9OurReader9ErrorInfoEEEPT_PKS7_SA_S8_
FN:574,_ZSt22__copy_move_backward_aILb0EPPPN4Json5ValueES4_ET1_T0_S6_S5_
FN:574,_ZSt22__copy_move_backward_aILb0EPPN4Json6Reader9ErrorInfoES4_ET1_T0_S6_S5_
FN:574,_ZSt22__copy_move_backward_aILb0EPPN4Json9OurReader9ErrorInfoES4_ET1_T0_S6_S5_
FN:592,_ZSt23__copy_move_backward_a2ILb0EPPN4Json9OurReader9ErrorInfoES4_ET1_T0_S6_S5_
FN:592,_ZSt23__copy_move_backward_a2ILb0EPPPN4Json5ValueES4_ET1_T0_S6_S5_
FN:592,_ZSt23__copy_move_backward_a2ILb0EPPN4Json6Reader9ErrorInfoES4_ET1_T0_S6_S5_
FN:619,_ZSt13copy_backwardIPPN4Json6Reader9ErrorInfoES4_ET0_T_S6_S5_
FN:619,_ZSt13copy_backwardIPPPN4Json5ValueES4_ET0_T_S6_S5_
FN:619,_ZSt13copy_backwardIPPN4Json9OurReader9ErrorInfoES4_ET0_T_S6_S5_
FN:794,_ZNSt7__equalILb0EE5equalISt23_Rb_tree_const_iteratorISt4pairIKN4Json5Value8CZStringES5_EES9_EEbT_SA_T0_
FN:817,_ZSt11__equal_auxISt23_Rb_tree_const_iteratorISt4pairIKN4Json5Value8CZStringES3_EES7_EbT_S8_T0_
FN:836,_ZNSt8__lc_raiISt26bidirectional_iterator_tagS0_E10__newlast1ISt23_Rb_tree_const_iteratorISt4pairIKN4Json5Value8CZStringES6_EESA_EET_SB_SB_T0_SC_
FN:841,_ZNSt8__lc_raiISt26bidirectional_iterator_tagS0_E6__cnd2ISt23_Rb_tree_const_iteratorISt4pairIKN4Json5Value8CZStringES6_EEEEbT_SB_
FN:876,_ZNSt25__lexicographical_compareILb0EE4__lcISt23_Rb_tree_const_iteratorISt4pairIKN4Json5Value8CZStringES5_EES9_EEbT_SA_T0_SB_
FN:914,_ZSt29__lexicographical_compare_auxISt23_Rb_tree_const_iteratorISt4pairIKN4Json5Value8CZStringES3_EES7_EbT_S8_T0_S9_
FN:1021,_ZSt5equalISt23_Rb_tree_const_iteratorISt4pairIKN4Json5Value8CZStringES3_EES7_EbT_S8_T0_
FN:1084,_ZSt23lexicographical_compareISt23_Rb_tree_const_iteratorISt4pairIKN4Json5Value8CZStringES3_EES7_EbT_S8_T0_S9_
FNDA:0,_ZSt3minImERKT_S2_S2_
FNDA:5800,_ZSt3minIjERKT_S2_S2_
FNDA:0,_ZSt3maxImERKT_S2_S2_
FNDA:0,_ZSt12__niter_baseIPPKN4Json12PathArgumentEENSt11_Niter_baseIT_E13iterator_typeES6_
FNDA:0,_ZSt12__niter_baseIPPPN4Json5ValueEENSt11_Niter_baseIT_E13iterator_typeES6_
FNDA:0,_ZSt12__niter_baseIPPN4Json9OurReader9ErrorInfoEENSt11_Niter_baseIT_E13iterator_typeES6_
FNDA:0,_ZSt12__niter_baseIPPN4Json6Reader9ErrorInfoEENSt11_Niter_baseIT_E13iterator_typeES6_
FNDA:0,_ZSt12__niter_baseISt23_Rb_tree_const_iteratorISt4pairIKN4Json5Value8CZStringES3_EEENSt11_Niter_baseIT_E13iterator_typeES9_
FNDA:0,_ZSt12__miter_baseISt13move_iteratorIPPKN4Json12PathArgumentEEENSt11_Miter_baseIT_E13iterator_typeES8_
FNDA:0,_ZSt12__miter_baseIPPPN4Json5ValueEENSt11_Miter_baseIT_E13iterator_typeES6_
FNDA:0,_ZSt12__miter_baseIPPN4Json9OurReader9ErrorInfoEENSt11_Miter_baseIT_E13iterator_typeES6_
FNDA:0,_ZSt12__miter_baseIPPN4Json6Reader9ErrorInfoEENSt11_Miter_baseIT_E13iterator_typeES6_
FNDA:0,_ZNSt11__copy_moveILb1ELb1ESt26random_access_iterator_tagE8__copy_mIPKN4Json12PathArgumentEEEPT_PKS7_SA_S8_
FNDA:0,_ZNSt11__copy_moveILb0ELb1ESt26random_access_iterator_tagE8__copy_mIPPN4Json5ValueEEEPT_PKS7_SA_S8_
FNDA:0,_ZNSt11__copy_moveILb0ELb1ESt26random_access_iterator_tagE8__copy_mIPN4Json9OurReader9ErrorInfoEEEPT_PKS7_SA_S8_
FNDA:0,_ZNSt11__copy_moveILb0ELb1ESt26random_access_iterator_tagE8__copy_mIPN4Json6Reader9ErrorInfoEEEPT_PKS7_SA_S8_
FNDA:0,_ZSt13__copy_move_aILb1EPPKN4Json12PathArgumentES4_ET1_T0_S6_S5_
FNDA:0,_ZSt13__copy_move_aILb0EPPPN4Json5ValueES4_ET1_T0_S6_S5_
FNDA:0,_ZSt13__copy_move_aILb0EPPN4Json9OurReader9ErrorInfoES4_ET1_T0_S6_S5_
FNDA:0,_ZSt13__copy_move_aILb0EPPN4Json6Reader9ErrorInfoES4_ET1_T0_S6_S5_
FNDA:0,_ZSt14__copy_move_a2ILb1EPPKN4Json12PathArgumentES4_ET1_T0_S6_S5_
FNDA:0,_ZSt14__copy_move_a2ILb0EPPPN4Json5ValueES4_ET1_T0_S6_S5_
FNDA:0,_ZSt14__copy_move_a2ILb0EPPN4Json9OurReader9ErrorInfoES4_ET1_T0_S6_S5_
FNDA:0,_ZSt14__copy_move_a2ILb0EPPN4Json6Reader9ErrorInfoES4_ET1_T0_S6_S5_
FNDA:0,_ZSt4copyISt13move_iteratorIPPKN4Json12PathArgumentEES5_ET0_T_S8_S7_
FNDA:0,_ZSt4copyIPPPN4Json5ValueES4_ET0_T_S6_S5_
FNDA:0,_ZSt4copyIPPN4Json9OurReader9ErrorInfoES4_ET0_T_S6_S5_
FNDA:0,_ZSt4copyIPPN4Json6Reader9ErrorInfoES4_ET0_T_S6_S5_
FNDA:0,_ZNSt20__copy_move_backwardILb0ELb1ESt26random_access_iterator_tagE13__copy_move_bIPPN4Json5ValueEEEPT_PKS7_SA_S8_
FNDA:0,_ZNSt20__copy_move_backwardILb0ELb1ESt26random_access_iterator_tagE13__copy_move_bIPN4Json9OurReader9ErrorInfoEEEPT_PKS7_SA_S8_
FNDA:0,_ZNSt20__copy_move_backwardILb0ELb1ESt26random_access_iterator_tagE13__copy_move_bIPN4Json6Reader9ErrorInfoEEEPT_PKS7_SA_S8_
FNDA:0,_ZSt22__copy_move_backward_aILb0EPPPN4Json5ValueES4_ET1_T0_S6_S5_
FNDA:0,_ZSt22__copy_move_backward_aILb0EPPN4Json9OurReader9ErrorInfoES4_ET1_T0_S6_S5_
FNDA:0,_ZSt22__copy_move_backward_aILb0EPPN4Json6Reader9ErrorInfoES4_ET1_T0_S6_S5_
FNDA:0,_ZSt23__copy_move_backward_a2ILb0EPPPN4Json5ValueES4_ET1_T0_S6_S5_
FNDA:0,_ZSt23__copy_move_backward_a2ILb0EPPN4Json9OurReader9ErrorInfoES4_ET1_T0_S6_S5_
FNDA:0,_ZSt23__copy_move_backward_a2ILb0EPPN4Json6Reader9ErrorInfoES4_ET1_T0_S6_S5_
FNDA:0,_ZSt13copy_backwardIPPPN4Json5ValueES4_ET0_T_S6_S5_
FNDA:0,_ZSt13copy_backwardIPPN4Json9OurReader9ErrorInfoES4_ET0_T_S6_S5_
FNDA:0,_ZSt13copy_backwardIPPN4Json6Reader9ErrorInfoES4_ET0_T_S6_S5_
FNDA:0,_ZNSt7__equalILb0EE5equalISt23_Rb_tree_const_iteratorISt4pairIKN4Json5Value8CZStringES5_EES9_EEbT_SA_T0_
FNDA:0,_ZSt11__equal_auxISt23_Rb_tree_const_iteratorISt4pairIKN4Json5Value8CZStringES3_EES7_EbT_S8_T0_
FNDA:0,_ZNSt8__lc_raiISt26bidirectional_iterator_tagS0_E10__newlast1ISt23_Rb_tree_const_iteratorISt4pairIKN4Json5Value8CZStringES6_EESA_EET_SB_SB_T0_SC_
FNDA:0,_ZNSt8__lc_raiISt26bidirectional_iterator_tagS0_E6__cnd2ISt23_Rb_tree_const_iteratorISt4pairIKN4Json5Value8CZStringES6_EEEEbT_SB_
FNDA:0,_ZNSt25__lexicographical_compareILb0EE4__lcISt23_Rb_tree_const_iteratorISt4pairIKN4Json5Value8CZStringES5_EES9_EEbT_SA_T0_SB_
FNDA:0,_ZSt29__lexicographical_compare_auxISt23_Rb_tree_const_iteratorISt4pairIKN4Json5Value8CZStringES3_EES7_EbT_S8_T0_S9_
FNDA:0,_ZSt5equalISt23_Rb_tree_const_iteratorISt4pairIKN4Json5Value8CZStringES3_EES7_EbT_S8_T0_
FNDA:0,_ZSt23lexicographical_compareISt23_Rb_tree_const_iteratorISt4pairIKN4Json5Value8CZStringES3_EES7_EbT_S8_T0_S9_
FNF:48
FNH:1
DA:193,5800
DA:198,5800
DA:199,850
DA:200,4950
DA:216,0
DA:221,0
DA:222,0
DA:223,0
DA:277,0
DA:278,0
DA:288,0
DA:289,0
DA:368,0
DA:370,0
DA:371,0
DA:372,0
DA:373,0
DA:379,0
DA:387,0
DA:390,0
DA:424,0
DA:428,0
DA:450,0
DA:460,0
DA:563,0
DA:565,0
DA:566,0
DA:567,0
DA:568,0
DA:574,0
DA:582,0
DA:587,0
DA:592,0
DA:596,0
DA:619,0
DA:631,0
DA:794,0
DA:796,0
DA:797,0
DA:798,0
DA:799,0
DA:817,0
DA:825,0
DA:827,0
DA:836,0
DA:837,0
DA:841,0
DA:842,0
DA:876,0
DA:883,0
DA:885,0
DA:888,0
DA:889,0
DA:890,0
DA:891,0
DA:893,0
DA:914,0
DA:924,0
DA:927,0
DA:1021,0
DA:1033,0
DA:1084,0
DA:1102,0
LF:63
LH:4
end_of_record
SF:/usr/include/c++/4.8/bits/stl_construct.h
FN:74,_ZSt10_ConstructIN4Json12PathArgumentEIS1_EEvPT_DpOT0_
FN:74,_ZSt10_ConstructIN4Json6Reader9ErrorInfoEIEEvPT_DpOT0_
FN:74,_ZSt10_ConstructIN4Json9OurReader15StructuredErrorEIS2_EEvPT_DpOT0_
FN:74,_ZSt10_ConstructISsISsEEvPT_DpOT0_
FN:74,_ZSt10_ConstructIN4Json9OurReader9ErrorInfoEIEEvPT_DpOT0_
FN:74,_ZSt10_ConstructIN4Json6Reader15StructuredErrorEIS2_EEvPT_DpOT0_
FN:92,_ZSt8_DestroyIN4Json9OurReader9ErrorInfoEEvPT_
FN:92,_ZSt8_DestroyIN4Json6Reader15StructuredErrorEEvPT_
FN:92,_ZSt8_DestroyIN4Json6Reader9ErrorInfoEEvPT_
FN:92,_ZSt8_DestroyIN4Json12PathArgumentEEvPT_
FN:92,_ZSt8_DestroyIN4Json9OurReader15StructuredErrorEEvPT_
FN:92,_ZSt8_DestroyISsEvPT_
FN:100,_ZNSt12_Destroy_auxILb0EE9__destroyISt15_Deque_iteratorIN4Json6Reader9ErrorInfoERS5_PS5_EEEvT_S9_
FN:100,_ZNSt12_Destroy_auxILb0EE9__destroyIPN4Json9OurReader9ErrorInfoEEEvT_S6_
FN:100,_ZNSt12_Destroy_auxILb0EE9__destroyIPN4Json12PathArgumentEEEvT_S5_
FN:100,_ZNSt12_Destroy_auxILb0EE9__destroyIPN4Json6Reader9ErrorInfoEEEvT_S6_
FN:100,_ZNSt12_Destroy_auxILb0EE9__destroyIPN4Json9OurReader15StructuredErrorEEEvT_S6_
FN:100,_ZNSt12_Destroy_auxILb0EE9__destroyISt15_Deque_iteratorIN4Json9OurReader9ErrorInfoERS5_PS5_EEEvT_S9_
FN:100,_ZNSt12_Destroy_auxILb0EE9__destroyIPN4Json6Reader15StructuredErrorEEEvT_S6_
FN:100,_ZNSt12_Destroy_auxILb0EE9__destroyIPSsEEvT_S3_
FN:112,_ZNSt12_Destroy_auxILb1EE9__destroyIPPKN4Json12PathArgumentEEEvT_S7_
FN:122,_ZSt8_DestroyIPN4Json12PathArgumentEEvT_S3_
FN:122,_ZSt8_DestroyIPSsEvT_S1_
FN:122,_ZSt8_DestroyIPPKN4Json12PathArgumentEEvT_S5_
FN:122,_ZSt8_DestroyISt15_Deque_iteratorIN4Json9OurReader9ErrorInfoERS3_PS3_EEvT_S7_
FN:122,_ZSt8_DestroyIPN4Json6Reader9ErrorInfoEEvT_S4_
FN:122,_ZSt8_DestroyIPN4Json9OurReader9ErrorInfoEEvT_S4_
FN:122,_ZSt8_DestroyIPN4Json6Reader15StructuredErrorEEvT_S4_
FN:122,_ZSt8_DestroyIPN4Json9OurReader15StructuredErrorEEvT_S4_
FN:122,_ZSt8_DestroyISt15_Deque_iteratorIN4Json6Reader9ErrorInfoERS3_PS3_EEvT_S7_
FN:148,_ZSt8_DestroyIPN4Json12PathArgumentES1_EvT_S3_RSaIT0_E
FN:148,_ZSt8_DestroyIPN4Json6Reader15StructuredErrorES2_EvT_S4_RSaIT0_E
FN:148,_ZSt8_DestroyIPSsSsEvT_S1_RSaIT0_E
FN:148,_ZSt8_DestroyIPN4Json9OurReader9ErrorInfoES2_EvT_S4_RSaIT0_E
FN:148,_ZSt8_DestroyIPN4Json9OurReader15StructuredErrorES2_EvT_S4_RSaIT0_E
FN:148,_ZSt8_DestroyIPN4Json6Reader9ErrorInfoES2_EvT_S4_RSaIT0_E
FN:148,_ZSt8_DestroyIPPKN4Json12PathArgumentES3_EvT_S5_RSaIT0_E
FNDA:0,_ZSt10_ConstructIN4Json12PathArgumentEIS1_EEvPT_DpOT0_
FNDA:0,_ZSt10_ConstructIN4Json9OurReader15StructuredErrorEIS2_EEvPT_DpOT0_
FNDA:0,_ZSt10_ConstructIN4Json6Reader15StructuredErrorEIS2_EEvPT_DpOT0_
FNDA:9890,_ZSt10_ConstructISsISsEEvPT_DpOT0_
FNDA:0,_ZSt10_ConstructIN4Json9OurReader9ErrorInfoEIEEvPT_DpOT0_
FNDA:0,_ZSt10_ConstructIN4Json6Reader9ErrorInfoEIEEvPT_DpOT0_
FNDA:0,_ZSt8_DestroyIN4Json9OurReader9ErrorInfoEEvPT_
FNDA:0,_ZSt8_DestroyIN4Json6Reader9ErrorInfoEEvPT_
FNDA:0,_ZSt8_DestroyIN4Json12PathArgumentEEvPT_
FNDA:0,_ZSt8_DestroyIN4Json9OurReader15StructuredErrorEEvPT_
FNDA:0,_ZSt8_DestroyIN4Json6Reader15StructuredErrorEEvPT_
FNDA:0,_ZSt8_DestroyISsEvPT_
FNDA:0,_ZNSt12_Destroy_auxILb0EE9__destroyISt15_Deque_iteratorIN4Json9OurReader9ErrorInfoERS5_PS5_EEEvT_S9_
FNDA:0,_ZNSt12_Destroy_auxILb0EE9__destroyISt15_Deque_iteratorIN4Json6Reader9ErrorInfoERS5_PS5_EEEvT_S9_
FNDA:0,_ZNSt12_Destroy_auxILb0EE9__destroyIPN4Json9OurReader9ErrorInfoEEEvT_S6_
FNDA:0,_ZNSt12_Destroy_auxILb0EE9__destroyIPN4Json6Reader9ErrorInfoEEEvT_S6_
FNDA:0,_ZNSt12_Destroy_auxILb0EE9__destroyIPN4Json12PathArgumentEEEvT_S5_
FNDA:0,_ZNSt12_Destroy_auxILb0EE9__destroyIPN4Json9OurReader15StructuredErrorEEEvT_S6_
FNDA:0,_ZNSt12_Destroy_auxILb0EE9__destroyIPN4Json6Reader15StructuredErrorEEEvT_S6_
FNDA:0,_ZNSt12_Destroy_auxILb0EE9__destroyIPSsEEvT_S3_
FNDA:0,_ZNSt12_Destroy_auxILb1EE9__destroyIPPKN4Json12PathArgumentEEEvT_S7_
FNDA:0,_ZSt8_DestroyISt15_Deque_iteratorIN4Json9OurReader9ErrorInfoERS3_PS3_EEvT_S7_
FNDA:0,_ZSt8_DestroyISt15_Deque_iteratorIN4Json6Reader9ErrorInfoERS3_PS3_EEvT_S7_
FNDA:0,_ZSt8_DestroyIPN4Json9OurReader9ErrorInfoEEvT_S4_
FNDA:0,_ZSt8_DestroyIPN4Json6Reader9ErrorInfoEEvT_S4_
FNDA:0,_ZSt8_DestroyIPPKN4Json12PathArgumentEEvT_S5_
FNDA:0,_ZSt8_DestroyIPN4Json12PathArgumentEEvT_S3_
FNDA:0,_ZSt8_DestroyIPN4Json9OurReader15StructuredErrorEEvT_S4_
FNDA:0,_ZSt8_DestroyIPN4Json6Reader15StructuredErrorEEvT_S4_
FNDA:0,_ZSt8_DestroyIPSsEvT_S1_
FNDA:0,_ZSt8_DestroyIPN4Json9OurReader9ErrorInfoES2_EvT_S4_RSaIT0_E
FNDA:0,_ZSt8_DestroyIPN4Json6Reader9ErrorInfoES2_EvT_S4_RSaIT0_E
FNDA:0,_ZSt8_DestroyIPPKN4Json12PathArgumentES3_EvT_S5_RSaIT0_E
FNDA:0,_ZSt8_DestroyIPN4Json12PathArgumentES1_EvT_S3_RSaIT0_E
FNDA:0,_ZSt8_DestroyIPN4Json9OurReader15StructuredErrorES2_EvT_S4_RSaIT0_E
FNDA:0,_ZSt8_DestroyIPN4Json6Reader15StructuredErrorES2_EvT_S4_RSaIT0_E
FNDA:0,_ZSt8_DestroyIPSsSsEvT_S1_RSaIT0_E
FNF:37
FNH:1
DA:74,9890
DA:75,9890
DA:92,0
DA:93,0
DA:100,0
DA:102,0
DA:103,0
DA:104,0
DA:112,0
DA:122,0
DA:126,0
DA:127,0
DA:128,0
DA:148,0
DA:151,0
DA:152,0
LF:16
LH:2
end_of_record
SF:/usr/include/c++/4.8/bits/stl_deque.h
FN:89,_ZSt16__deque_buf_sizem
FN:111,_ZNSt15_Deque_iteratorIPN4Json5ValueERS2_PS2_E14_S_buffer_sizeEv
FN:111,_ZNSt15_Deque_iteratorIN4Json9OurReader9ErrorInfoERS2_PS2_E14_S_buffer_sizeEv
FN:111,_ZNSt15_Deque_iteratorIN4Json6Reader9ErrorInfoERS2_PS2_E14_S_buffer_sizeEv
FN:111,_ZNSt15_Deque_iteratorIN4Json6Reader9ErrorInfoERKS2_PS3_E14_S_buffer_sizeEv
FN:111,_ZNSt15_Deque_iteratorIN4Json9OurReader9ErrorInfoERKS2_PS3_E14_S_buffer_sizeEv
FN:132,_ZNSt15_Deque_iteratorIN4Json9OurReader9ErrorInfoERS2_PS2_EC2Ev
FN:132,_ZNSt15_Deque_iteratorIN4Json6Reader9ErrorInfoERS2_PS2_EC2Ev
FN:132,_ZNSt15_Deque_iteratorIPN4Json5ValueERS2_PS2_EC2Ev
FN:135,_ZNSt15_Deque_iteratorIPN4Json5ValueERS2_PS2_EC2ERKS5_
FN:135,_ZNSt15_Deque_iteratorIN4Json9OurReader9ErrorInfoERKS2_PS3_EC2ERKS_IS2_RS2_PS2_E
FN:135,_ZNSt15_Deque_iteratorIN4Json9OurReader9ErrorInfoERS2_PS2_EC2ERKS5_
FN:135,_ZNSt15_Deque_iteratorIN4Json6Reader9ErrorInfoERS2_PS2_EC2ERKS5_
FN:135,_ZNSt15_Deque_iteratorIN4Json6Reader9ErrorInfoERKS2_PS3_EC2ERKS_IS2_RS2_PS2_E
FN:140,_ZNKSt15_Deque_iteratorIN4Json9OurReader9ErrorInfoERKS2_PS3_EdeEv
FN:140,_ZNKSt15_Deque_iteratorIN4Json9OurReader9ErrorInfoERS2_PS2_EdeEv
FN:140,_ZNKSt15_Deque_iteratorIPN4Json5ValueERS2_PS2_EdeEv
FN:140,_ZNKSt15_Deque_iteratorIN4Json6Reader9ErrorInfoERS2_PS2_EdeEv
FN:140,_ZNKSt15_Deque_iteratorIN4Json6Reader9ErrorInfoERKS2_PS3_EdeEv
FN:148,_ZNSt15_Deque_iteratorIN4Json6Reader9ErrorInfoERS2_PS2_EppEv
FN:148,_ZNSt15_Deque_iteratorIN4Json6Reader9ErrorInfoERKS2_PS3_EppEv
FN:148,_ZNSt15_Deque_iteratorIN4Json9OurReader9ErrorInfoERKS2_PS3_EppEv
FN:148,_ZNSt15_Deque_iteratorIN4Json9OurReader9ErrorInfoERS2_PS2_EppEv
FN:168,_ZNSt15_Deque_iteratorIPN4Json5ValueERS2_PS2_EmmEv
FN:188,_ZNSt15_Deque_iteratorIN4Json9OurReader9ErrorInfoERS2_PS2_EpLEl
FN:188,_ZNSt15_Deque_iteratorIN4Json6Reader9ErrorInfoERS2_PS2_EpLEl
FN:207,_ZNKSt15_Deque_iteratorIN4Json9OurReader9ErrorInfoERS2_PS2_EplEl
FN:207,_ZNKSt15_Deque_iteratorIN4Json6Reader9ErrorInfoERS2_PS2_EplEl
FN:234,_ZNSt15_Deque_iteratorIN4Json9OurReader9ErrorInfoERS2_PS2_E11_M_set_nodeEPS4_
FN:234,_ZNSt15_Deque_iteratorIPN4Json5ValueERS2_PS2_E11_M_set_nodeEPS4_
FN:234,_ZNSt15_Deque_iteratorIN4Json9OurReader9ErrorInfoERKS2_PS3_E11_M_set_nodeEPPS2_
FN:234,_ZNSt15_Deque_iteratorIN4Json6Reader9ErrorInfoERS2_PS2_E11_M_set_nodeEPS4_
FN:234,_ZNSt15_Deque_iteratorIN4Json6Reader9ErrorInfoERKS2_PS3_E11_M_set_nodeEPPS2_
FN:247,_ZSteqIN4Json6Reader9ErrorInfoERKS2_PS3_EbRKSt15_Deque_iteratorIT_T0_T1_ESC_
FN:247,_ZSteqIN4Json6Reader9ErrorInfoERS2_PS2_EbRKSt15_Deque_iteratorIT_T0_T1_ESB_
FN:247,_ZSteqIN4Json9OurReader9ErrorInfoERKS2_PS3_EbRKSt15_Deque_iteratorIT_T0_T1_ESC_
FN:247,_ZSteqIPN4Json5ValueERS2_PS2_EbRKSt15_Deque_iteratorIT_T0_T1_ESB_
FN:247,_ZSteqIN4Json9OurReader9ErrorInfoERS2_PS2_EbRKSt15_Deque_iteratorIT_T0_T1_ESB_
FN:260,_ZStneIN4Json9OurReader9ErrorInfoERKS2_PS3_EbRKSt15_Deque_iteratorIT_T0_T1_ESC_
FN:260,_ZStneIN4Json9OurReader9ErrorInfoERS2_PS2_EbRKSt15_Deque_iteratorIT_T0_T1_ESB_
FN:260,_ZStneIN4Json6Reader9ErrorInfoERS2_PS2_EbRKSt15_Deque_iteratorIT_T0_T1_ESB_
FN:260,_ZStneIN4Json6Reader9ErrorInfoERKS2_PS3_EbRKSt15_Deque_iteratorIT_T0_T1_ESC_
FN:331,_ZStmiIN4Json9OurReader9ErrorInfoERS2_PS2_ENSt15_Deque_iteratorIT_T0_T1_E15difference_typeERKS9_SC_
FN:331,_ZStmiIN4Json6Reader9ErrorInfoERS2_PS2_ENSt15_Deque_iteratorIT_T0_T1_E15difference_typeERKS9_SC_
FN:451,_ZNSt11_Deque_baseIN4Json9OurReader9ErrorInfoESaIS2_EEC2Ev
FN:451,_ZNSt11_Deque_baseIPN4Json5ValueESaIS2_EEC2Ev
FN:451,_ZNSt11_Deque_baseIN4Json6Reader9ErrorInfoESaIS2_EEC2Ev
FN:468,_ZNSt11_Deque_baseIPN4Json5ValueESaIS2_EEC2EOS4_
FN:492,_ZNSt11_Deque_baseIN4Json9OurReader9ErrorInfoESaIS2_EE11_Deque_implD2Ev
FN:492,_ZNSt11_Deque_baseIPN4Json5ValueESaIS2_EE11_Deque_implD2Ev
FN:492,_ZNSt11_Deque_baseIN4Json6Reader9ErrorInfoESaIS2_EE11_Deque_implD2Ev
FN:500,_ZNSt11_Deque_baseIPN4Json5ValueESaIS2_EE11_Deque_implC2Ev
FN:500,_ZNSt11_Deque_baseIN4Json6Reader9ErrorInfoESaIS2_EE11_Deque_implC2Ev
FN:500,_ZNSt11_Deque_baseIN4Json9OurReader9ErrorInfoESaIS2_EE11_Deque_implC2Ev
FN:511,_ZNSt11_Deque_baseIPN4Json5ValueESaIS2_EE11_Deque_implC2EOS3_
FN:519,_ZNSt11_Deque_baseIPN4Json5ValueESaIS2_EE19_M_get_Tp_allocatorEv
FN:519,_ZNSt11_Deque_baseIN4Json9OurReader9ErrorInfoESaIS2_EE19_M_get_Tp_allocatorEv
FN:519,_ZNSt11_Deque_baseIN4Json6Reader9ErrorInfoESaIS2_EE19_M_get_Tp_allocatorEv
FN:523,_ZNKSt11_Deque_baseIPN4Json5ValueESaIS2_EE19_M_get_Tp_allocatorEv
FN:523,_ZNKSt11_Deque_baseIN4Json9OurReader9ErrorInfoESaIS2_EE19_M_get_Tp_allocatorEv
FN:523,_ZNKSt11_Deque_baseIN4Json6Reader9ErrorInfoESaIS2_EE19_M_get_Tp_allocatorEv
FN:527,_ZNKSt11_Deque_baseIN4Json9OurReader9ErrorInfoESaIS2_EE20_M_get_map_allocatorEv
FN:527,_ZNKSt11_Deque_baseIPN4Json5ValueESaIS2_EE20_M_get_map_allocatorEv
FN:527,_ZNKSt11_Deque_baseIN4Json6Reader9ErrorInfoESaIS2_EE20_M_get_map_allocatorEv
FN:531,_ZNSt11_Deque_baseIPN4Json5ValueESaIS2_EE16_M_allocate_nodeEv
FN:531,_ZNSt11_Deque_baseIN4Json6Reader9ErrorInfoESaIS2_EE16_M_allocate_nodeEv
FN:531,_ZNSt11_Deque_baseIN4Json9OurReader9ErrorInfoESaIS2_EE16_M_allocate_nodeEv
FN:537,_ZNSt11_Deque_baseIPN4Json5ValueESaIS2_EE18_M_deallocate_nodeEPS2_
FN:537,_ZNSt11_Deque_baseIN4Json6Reader9ErrorInfoESaIS2_EE18_M_deallocate_nodeEPS2_
FN:537,_ZNSt11_Deque_baseIN4Json9OurReader9ErrorInfoESaIS2_EE18_M_deallocate_nodeEPS2_
FN:543,_ZNSt11_Deque_baseIPN4Json5ValueESaIS2_EE15_M_allocate_mapEm
FN:543,_ZNSt11_Deque_baseIN4Json6Reader9ErrorInfoESaIS2_EE15_M_allocate_mapEm
FN:543,_ZNSt11_Deque_baseIN4Json9OurReader9ErrorInfoESaIS2_EE15_M_allocate_mapEm
FN:547,_ZNSt11_Deque_baseIN4Json6Reader9ErrorInfoESaIS2_EE17_M_deallocate_mapEPPS2_m
FN:547,_ZNSt11_Deque_baseIN4Json9OurReader9ErrorInfoESaIS2_EE17_M_deallocate_mapEPPS2_m
FN:547,_ZNSt11_Deque_baseIPN4Json5ValueESaIS2_EE17_M_deallocate_mapEPPS2_m
FN:560,_ZNSt11_Deque_baseIN4Json6Reader9ErrorInfoESaIS2_EED2Ev
FN:560,_ZNSt11_Deque_baseIPN4Json5ValueESaIS2_EED2Ev
FN:560,_ZNSt11_Deque_baseIN4Json9OurReader9ErrorInfoESaIS2_EED2Ev
FN:581,_ZNSt11_Deque_baseIPN4Json5ValueESaIS2_EE17_M_initialize_mapEm
FN:581,_ZNSt11_Deque_baseIN4Json6Reader9ErrorInfoESaIS2_EE17_M_initialize_mapEm
FN:581,_ZNSt11_Deque_baseIN4Json9OurReader9ErrorInfoESaIS2_EE17_M_initialize_mapEm
FN:620,_ZNSt11_Deque_baseIN4Json6Reader9ErrorInfoESaIS2_EE15_M_create_nodesEPPS2_S6_
FN:620,_ZNSt11_Deque_baseIPN4Json5ValueESaIS2_EE15_M_create_nodesEPPS2_S6_
FN:620,_ZNSt11_Deque_baseIN4Json9OurReader9ErrorInfoESaIS2_EE15_M_create_nodesEPPS2_S6_
FN:638,_ZNSt11_Deque_baseIN4Json6Reader9ErrorInfoESaIS2_EE16_M_destroy_nodesEPPS2_S6_
FN:638,_ZNSt11_Deque_baseIN4Json9OurReader9ErrorInfoESaIS2_EE16_M_destroy_nodesEPPS2_S6_
FN:638,_ZNSt11_Deque_baseIPN4Json5ValueESaIS2_EE16_M_destroy_nodesEPPS2_S6_
FN:757,_ZNSt5dequeIN4Json6Reader9ErrorInfoESaIS2_EE14_S_buffer_sizeEv
FN:757,_ZNSt5dequeIN4Json9OurReader9ErrorInfoESaIS2_EE14_S_buffer_sizeEv
FN:782,_ZNSt5dequeIN4Json9OurReader9ErrorInfoESaIS2_EEC2Ev
FN:782,_ZNSt5dequeIPN4Json5ValueESaIS2_EEC2Ev
FN:782,_ZNSt5dequeIN4Json6Reader9ErrorInfoESaIS2_EEC2Ev
FN:855,_ZNSt5dequeIPN4Json5ValueESaIS2_EEC2EOS4_
FN:917,_ZNSt5dequeIN4Json9OurReader9ErrorInfoESaIS2_EED2Ev
FN:917,_ZNSt5dequeIN4Json6Reader9ErrorInfoESaIS2_EED2Ev
FN:917,_ZNSt5dequeIPN4Json5ValueESaIS2_EED2Ev
FN:1037,_ZNSt5dequeIPN4Json5ValueESaIS2_EE5beginEv
FN:1037,_ZNSt5dequeIN4Json9OurReader9ErrorInfoESaIS2_EE5beginEv
FN:1037,_ZNSt5dequeIN4Json6Reader9ErrorInfoESaIS2_EE5beginEv
FN:1045,_ZNKSt5dequeIN4Json9OurReader9ErrorInfoESaIS2_EE5beginEv
FN:1045,_ZNKSt5dequeIN4Json6Reader9ErrorInfoESaIS2_EE5beginEv
FN:1054,_ZNSt5dequeIN4Json9OurReader9ErrorInfoESaIS2_EE3endEv
FN:1054,_ZNSt5dequeIN4Json6Reader9ErrorInfoESaIS2_EE3endEv
FN:1054,_ZNSt5dequeIPN4Json5ValueESaIS2_EE3endEv
FN:1063,_ZNKSt5dequeIN4Json6Reader9ErrorInfoESaIS2_EE3endEv
FN:1063,_ZNKSt5dequeIN4Json9OurReader9ErrorInfoESaIS2_EE3endEv
FN:1142,_ZNKSt5dequeIN4Json9OurReader9ErrorInfoESaIS2_EE4sizeEv
FN:1142,_ZNKSt5dequeIN4Json6Reader9ErrorInfoESaIS2_EE4sizeEv
FN:1147,_ZNKSt5dequeIN4Json6Reader9ErrorInfoESaIS2_EE8max_sizeEv
FN:1147,_ZNKSt5dequeIN4Json9OurReader9ErrorInfoESaIS2_EE8max_sizeEv
FN:1161,_ZNSt5dequeIN4Json9OurReader9ErrorInfoESaIS2_EE6resizeEm
FN:1161,_ZNSt5dequeIN4Json6Reader9ErrorInfoESaIS2_EE6resizeEm
FN:1228,_ZNKSt5dequeIPN4Json5ValueESaIS2_EE5emptyEv
FN:1329,_ZNSt5dequeIPN4Json5ValueESaIS2_EE4backEv
FN:1390,_ZNSt5dequeIN4Json9OurReader9ErrorInfoESaIS2_EE9push_backERKS2_
FN:1390,_ZNSt5dequeIN4Json6Reader9ErrorInfoESaIS2_EE9push_backERKS2_
FN:1404,_ZNSt5dequeIPN4Json5ValueESaIS2_EE9push_backEOS2_
FN:1442,_ZNSt5dequeIPN4Json5ValueESaIS2_EE8pop_backEv
FN:1616,_ZNSt5dequeIN4Json9OurReader9ErrorInfoESaIS2_EE5clearEv
FN:1616,_ZNSt5dequeIN4Json6Reader9ErrorInfoESaIS2_EE5clearEv
FN:1849,_ZNSt5dequeIN4Json6Reader9ErrorInfoESaIS2_EE15_M_destroy_dataESt15_Deque_iteratorIS2_RS2_PS2_ES8_RKS3_
FN:1849,_ZNSt5dequeIN4Json9OurReader9ErrorInfoESaIS2_EE15_M_destroy_dataESt15_Deque_iteratorIS2_RS2_PS2_ES8_RKS3_
FN:1849,_ZNSt5dequeIPN4Json5ValueESaIS2_EE15_M_destroy_dataESt15_Deque_iteratorIS2_RS2_PS2_ES8_RKS3_
FN:1868,_ZNSt5dequeIN4Json6Reader9ErrorInfoESaIS2_EE15_M_erase_at_endESt15_Deque_iteratorIS2_RS2_PS2_E
FN:1868,_ZNSt5dequeIN4Json9OurReader9ErrorInfoESaIS2_EE15_M_erase_at_endESt15_Deque_iteratorIS2_RS2_PS2_E
FN:1898,_ZNSt5dequeIN4Json6Reader9ErrorInfoESaIS2_EE27_M_reserve_elements_at_backEm
FN:1898,_ZNSt5dequeIN4Json9OurReader9ErrorInfoESaIS2_EE27_M_reserve_elements_at_backEm
FN:1924,_ZNSt5dequeIN4Json6Reader9ErrorInfoESaIS2_EE22_M_reserve_map_at_backEm
FN:1924,_ZNSt5dequeIPN4Json5ValueESaIS2_EE22_M_reserve_map_at_backEm
FN:1924,_ZNSt5dequeIN4Json9OurReader9ErrorInfoESaIS2_EE22_M_reserve_map_at_backEm
FNDA:0,_ZSt16__deque_buf_sizem
FNDA:1000,_ZNSt15_Deque_iteratorIPN4Json5ValueERS2_PS2_E14_S_buffer_sizeEv
FNDA:0,_ZNSt15_Deque_iteratorIN4Json9OurReader9ErrorInfoERKS2_PS3_E14_S_buffer_sizeEv
FNDA:0,_ZNSt15_Deque_iteratorIN4Json9OurReader9ErrorInfoERS2_PS2_E14_S_buffer_sizeEv
FNDA:0,_ZNSt15_Deque_iteratorIN4Json6Reader9ErrorInfoERKS2_PS3_E14_S_buffer_sizeEv
FNDA:500,_ZNSt15_Deque_iteratorIN4Json6Reader9ErrorInfoERS2_PS2_E14_S_buffer_sizeEv
FNDA:0,_ZNSt15_Deque_iteratorIN4Json9OurReader9ErrorInfoERS2_PS2_EC2Ev
FNDA:500,_ZNSt15_Deque_iteratorIN4Json6Reader9ErrorInfoERS2_PS2_EC2Ev
FNDA:1000,_ZNSt15_Deque_iteratorIPN4Json5ValueERS2_PS2_EC2Ev
FNDA:0,_ZNSt15_Deque_iteratorIN4Json9OurReader9ErrorInfoERKS2_PS3_EC2ERKS_IS2_RS2_PS2_E
FNDA:0,_ZNSt15_Deque_iteratorIN4Json9OurReader9ErrorInfoERS2_PS2_EC2ERKS5_
FNDA:0,_ZNSt15_Deque_iteratorIN4Json6Reader9ErrorInfoERKS2_PS3_EC2ERKS_IS2_RS2_PS2_E
FNDA:0,_ZNSt15_Deque_iteratorIN4Json6Reader9ErrorInfoERS2_PS2_EC2ERKS5_
FNDA:0,_ZNSt15_Deque_iteratorIPN4Json5ValueERS2_PS2_EC2ERKS5_
FNDA:0,_ZNKSt15_Deque_iteratorIN4Json9OurReader9ErrorInfoERS2_PS2_EdeEv
FNDA:0,_ZNKSt15_Deque_iteratorIN4Json6Reader9ErrorInfoERS2_PS2_EdeEv
FNDA:8680,_ZNKSt15_Deque_iteratorIPN4Json5ValueERS2_PS2_EdeEv
FNDA:0,_ZNKSt15_Deque_iteratorIN4Json9OurReader9ErrorInfoERKS2_PS3_EdeEv
FNDA:0,_ZNKSt15_Deque_iteratorIN4Json6Reader9ErrorInfoERKS2_PS3_EdeEv
FNDA:0,_ZNSt15_Deque_iteratorIN4Json9OurReader9ErrorInfoERS2_PS2_EppEv
FNDA:0,_ZNSt15_Deque_iteratorIN4Json6Reader9ErrorInfoERS2_PS2_EppEv
FNDA:0,_ZNSt15_Deque_iteratorIN4Json9OurReader9ErrorInfoERKS2_PS3_EppEv
FNDA:0,_ZNSt15_Deque_iteratorIN4Json6Reader9ErrorInfoERKS2_PS3_EppEv
FNDA:8680,_ZNSt15_Deque_iteratorIPN4Json5ValueERS2_PS2_EmmEv
FNDA:0,_ZNSt15_Deque_iteratorIN4Json9OurReader9ErrorInfoERS2_PS2_EpLEl
FNDA:0,_ZNSt15_Deque_iteratorIN4Json6Reader9ErrorInfoERS2_PS2_EpLEl
FNDA:0,_ZNKSt15_Deque_iteratorIN4Json9OurReader9ErrorInfoERS2_PS2_EplEl
FNDA:0,_ZNKSt15_Deque_iteratorIN4Json6Reader9ErrorInfoERS2_PS2_EplEl
FNDA:1000,_ZNSt15_Deque_iteratorIPN4Json5ValueERS2_PS2_E11_M_set_nodeEPS4_
FNDA:0,_ZNSt15_Deque_iteratorIN4Json9OurReader9ErrorInfoERS2_PS2_E11_M_set_nodeEPS4_
FNDA:500,_ZNSt15_Deque_iteratorIN4Json6Reader9ErrorInfoERS2_PS2_E11_M_set_nodeEPS4_
FNDA:0,_ZNSt15_Deque_iteratorIN4Json9OurReader9ErrorInfoERKS2_PS3_E11_M_set_nodeEPPS2_
FNDA:0,_ZNSt15_Deque_iteratorIN4Json6Reader9ErrorInfoERKS2_PS3_E11_M_set_nodeEPPS2_
FNDA:0,_ZSteqIN4Json9OurReader9ErrorInfoERS2_PS2_EbRKSt15_Deque_iteratorIT_T0_T1_ESB_
FNDA:0,_ZSteqIN4Json6Reader9ErrorInfoERS2_PS2_EbRKSt15_Deque_iteratorIT_T0_T1_ESB_
FNDA:250,_ZSteqIPN4Json5ValueERS2_PS2_EbRKSt15_Deque_iteratorIT_T0_T1_ESB_
FNDA:0,_ZSteqIN4Json9OurReader9ErrorInfoERKS2_PS3_EbRKSt15_Deque_iteratorIT_T0_T1_ESC_
FNDA:0,_ZSteqIN4Json6Reader9ErrorInfoERKS2_PS3_EbRKSt15_Deque_iteratorIT_T0_T1_ESC_
FNDA:0,_ZStneIN4Json9OurReader9ErrorInfoERS2_PS2_EbRKSt15_Deque_iteratorIT_T0_T1_ESB_
FNDA:0,_ZStneIN4Json6Reader9ErrorInfoERS2_PS2_EbRKSt15_Deque_iteratorIT_T0_T1_ESB_
FNDA:0,_ZStneIN4Json9OurReader9ErrorInfoERKS2_PS3_EbRKSt15_Deque_iteratorIT_T0_T1_ESC_
FNDA:0,_ZStneIN4Json6Reader9ErrorInfoERKS2_PS3_EbRKSt15_Deque_iteratorIT_T0_T1_ESC_
FNDA:0,_ZStmiIN4Json9OurReader9ErrorInfoERS2_PS2_ENSt15_Deque_iteratorIT_T0_T1_E15difference_typeERKS9_SC_
FNDA:0,_ZStmiIN4Json6Reader9ErrorInfoERS2_PS2_ENSt15_Deque_iteratorIT_T0_T1_E15difference_typeERKS9_SC_
FNDA:0,_ZNSt11_Deque_baseIN4Json9OurReader9ErrorInfoESaIS2_EEC2Ev
FNDA:250,_ZNSt11_Deque_baseIN4Json6Reader9ErrorInfoESaIS2_EEC2Ev
FNDA:250,_ZNSt11_Deque_baseIPN4Json5ValueESaIS2_EEC2Ev
FNDA:250,_ZNSt11_Deque_baseIPN4Json5ValueESaIS2_EEC2EOS4_
FNDA:0,_ZNSt11_Deque_baseIN4Json9OurReader9ErrorInfoESaIS2_EE11_Deque_implD2Ev
FNDA:0,_ZNSt11_Deque_baseIN4Json6Reader9ErrorInfoESaIS2_EE11_Deque_implD2Ev
FNDA:0,_ZNSt11_Deque_baseIPN4Json5ValueESaIS2_EE11_Deque_implD2Ev
FNDA:0,_ZNSt11_Deque_baseIN4Json9OurReader9ErrorInfoESaIS2_EE11_Deque_implC2Ev
FNDA:250,_ZNSt11_Deque_baseIN4Json6Reader9ErrorInfoESaIS2_EE11_Deque_implC2Ev
FNDA:250,_ZNSt11_Deque_baseIPN4Json5ValueESaIS2_EE11_Deque_implC2Ev
FNDA:250,_ZNSt11_Deque_baseIPN4Json5ValueESaIS2_EE11_Deque_implC2EOS3_
FNDA:0,_ZNSt11_Deque_baseIN4Json9OurReader9ErrorInfoESaIS2_EE19_M_get_Tp_allocatorEv
FNDA:0,_ZNSt11_Deque_baseIN4Json6Reader9ErrorInfoESaIS2_EE19_M_get_Tp_allocatorEv
FNDA:0,_ZNSt11_Deque_baseIPN4Json5ValueESaIS2_EE19_M_get_Tp_allocatorEv
FNDA:0,_ZNKSt11_Deque_baseIN4Json9OurReader9ErrorInfoESaIS2_EE19_M_get_Tp_allocatorEv
FNDA:0,_ZNKSt11_Deque_baseIN4Json6Reader9ErrorInfoESaIS2_EE19_M_get_Tp_allocatorEv
FNDA:0,_ZNKSt11_Deque_baseIPN4Json5ValueESaIS2_EE19_M_get_Tp_allocatorEv
FNDA:0,_ZNKSt11_Deque_baseIN4Json9OurReader9ErrorInfoESaIS2_EE20_M_get_map_allocatorEv
FNDA:0,_ZNKSt11_Deque_baseIN4Json6Reader9ErrorInfoESaIS2_EE20_M_get_map_allocatorEv
FNDA:0,_ZNKSt11_Deque_baseIPN4Json5ValueESaIS2_EE20_M_get_map_allocatorEv
FNDA:500,_ZNSt11_Deque_baseIPN4Json5ValueESaIS2_EE16_M_allocate_nodeEv
FNDA:0,_ZNSt11_Deque_baseIN4Json9OurReader9ErrorInfoESaIS2_EE16_M_allocate_nodeEv
FNDA:250,_ZNSt11_Deque_baseIN4Json6Reader9ErrorInfoESaIS2_EE16_M_allocate_nodeEv
FNDA:0,_ZNSt11_Deque_baseIPN4Json5ValueESaIS2_EE18_M_deallocate_nodeEPS2_
FNDA:0,_ZNSt11_Deque_baseIN4Json9OurReader9ErrorInfoESaIS2_EE18_M_deallocate_nodeEPS2_
FNDA:0,_ZNSt11_Deque_baseIN4Json6Reader9ErrorInfoESaIS2_EE18_M_deallocate_nodeEPS2_
FNDA:0,_ZNSt11_Deque_baseIN4Json9OurReader9ErrorInfoESaIS2_EE15_M_allocate_mapEm
FNDA:250,_ZNSt11_Deque_baseIN4Json6Reader9ErrorInfoESaIS2_EE15_M_allocate_mapEm
FNDA:500,_ZNSt11_Deque_baseIPN4Json5ValueESaIS2_EE15_M_allocate_mapEm
FNDA:0,_ZNSt11_Deque_baseIN4Json9OurReader9ErrorInfoESaIS2_EE17_M_deallocate_mapEPPS2_m
FNDA:0,_ZNSt11_Deque_baseIN4Json6Reader9ErrorInfoESaIS2_EE17_M_deallocate_mapEPPS2_m
FNDA:0,_ZNSt11_Deque_baseIPN4Json5ValueESaIS2_EE17_M_deallocate_mapEPPS2_m
FNDA:0,_ZNSt11_Deque_baseIN4Json9OurReader9ErrorInfoESaIS2_EED2Ev
FNDA:0,_ZNSt11_Deque_baseIN4Json6Reader9ErrorInfoESaIS2_EED2Ev
FNDA:0,_ZNSt11_Deque_baseIPN4Json5ValueESaIS2_EED2Ev
FNDA:0,_ZNSt11_Deque_baseIN4Json9OurReader9ErrorInfoESaIS2_EE17_M_initialize_mapEm
FNDA:250,_ZNSt11_Deque_baseIN4Json6Reader9ErrorInfoESaIS2_EE17_M_initialize_mapEm
FNDA:500,_ZNSt11_Deque_baseIPN4Json5ValueESaIS2_EE17_M_initialize_mapEm
FNDA:0,_ZNSt11_Deque_baseIN4Json9OurReader9ErrorInfoESaIS2_EE15_M_create_nodesEPPS2_S6_
FNDA:250,_ZNSt11_Deque_baseIN4Json6Reader9ErrorInfoESaIS2_EE15_M_create_nodesEPPS2_S6_
FNDA:500,_ZNSt11_Deque_baseIPN4Json5ValueESaIS2_EE15_M_create_nodesEPPS2_S6_
FNDA:0,_ZNSt11_Deque_baseIN4Json9OurReader9ErrorInfoESaIS2_EE16_M_destroy_nodesEPPS2_S6_
FNDA:0,_ZNSt11_Deque_baseIN4Json6Reader9ErrorInfoESaIS2_EE16_M_destroy_nodesEPPS2_S6_
FNDA:0,_ZNSt11_Deque_baseIPN4Json5ValueESaIS2_EE16_M_destroy_nodesEPPS2_S6_
FNDA:0,_ZNSt5dequeIN4Json9OurReader9ErrorInfoESaIS2_EE14_S_buffer_sizeEv
FNDA:0,_ZNSt5dequeIN4Json6Reader9ErrorInfoESaIS2_EE14_S_buffer_sizeEv
FNDA:0,_ZNSt5dequeIN4Json9OurReader9ErrorInfoESaIS2_EEC2Ev
FNDA:250,_ZNSt5dequeIN4Json6Reader9ErrorInfoESaIS2_EEC2Ev
FNDA:250,_ZNSt5dequeIPN4Json5ValueESaIS2_EEC2Ev
FNDA:250,_ZNSt5dequeIPN4Json5ValueESaIS2_EEC2EOS4_
FNDA:0,_ZNSt5dequeIN4Json9OurReader9ErrorInfoESaIS2_EED2Ev
FNDA:0,_ZNSt5dequeIN4Json6Reader9ErrorInfoESaIS2_EED2Ev
FNDA:0,_ZNSt5dequeIPN4Json5ValueESaIS2_EED2Ev
FNDA:0,_ZNSt5dequeIN4Json9OurReader9ErrorInfoESaIS2_EE5beginEv
FNDA:0,_ZNSt5dequeIN4Json6Reader9ErrorInfoESaIS2_EE5beginEv
FNDA:0,_ZNSt5dequeIPN4Json5ValueESaIS2_EE5beginEv
FNDA:0,_ZNKSt5dequeIN4Json9OurReader9ErrorInfoESaIS2_EE5beginEv
FNDA:0,_ZNKSt5dequeIN4Json6Reader9ErrorInfoESaIS2_EE5beginEv
FNDA:0,_ZNSt5dequeIN4Json9OurReader9ErrorInfoESaIS2_EE3endEv
FNDA:0,_ZNSt5dequeIN4Json6Reader9ErrorInfoESaIS2_EE3endEv
FNDA:0,_ZNSt5dequeIPN4Json5ValueESaIS2_EE3endEv
FNDA:0,_ZNKSt5dequeIN4Json9OurReader9ErrorInfoESaIS2_EE3endEv
FNDA:0,_ZNKSt5dequeIN4Json6Reader9ErrorInfoESaIS2_EE3endEv
FNDA:0,_ZNKSt5dequeIN4Json9OurReader9ErrorInfoESaIS2_EE4sizeEv
FNDA:0,_ZNKSt5dequeIN4Json6Reader9ErrorInfoESaIS2_EE4sizeEv
FNDA:0,_ZNKSt5dequeIN4Json9OurReader9ErrorInfoESaIS2_EE8max_sizeEv
FNDA:0,_ZNKSt5dequeIN4Json6Reader9ErrorInfoESaIS2_EE8max_sizeEv
FNDA:0,_ZNSt5dequeIN4Json9OurReader9ErrorInfoESaIS2_EE6resizeEm
FNDA:0,_ZNSt5dequeIN4Json6Reader9ErrorInfoESaIS2_EE6resizeEm
FNDA:250,_ZNKSt5dequeIPN4Json5ValueESaIS2_EE5emptyEv
FNDA:8680,_ZNSt5dequeIPN4Json5ValueESaIS2_EE4backEv
FNDA:0,_ZNSt5dequeIN4Json9OurReader9ErrorInfoESaIS2_EE9push_backERKS2_
FNDA:60,_ZNSt5dequeIN4Json6Reader9ErrorInfoESaIS2_EE9push_backERKS2_
FNDA:1810,_ZNSt5dequeIPN4Json5ValueESaIS2_EE9push_backEOS2_
FNDA:1560,_ZNSt5dequeIPN4Json5ValueESaIS2_EE8pop_backEv
FNDA:0,_ZNSt5dequeIN4Json9OurReader9ErrorInfoESaIS2_EE5clearEv
FNDA:250,_ZNSt5dequeIN4Json6Reader9ErrorInfoESaIS2_EE5clearEv
FNDA:0,_ZNSt5dequeIN4Json9OurReader9ErrorInfoESaIS2_EE15_M_destroy_dataESt15_Deque_iteratorIS2_RS2_PS2_ES8_RKS3_
FNDA:0,_ZNSt5dequeIN4Json6Reader9ErrorInfoESaIS2_EE15_M_destroy_dataESt15_Deque_iteratorIS2_RS2_PS2_ES8_RKS3_
FNDA:0,_ZNSt5dequeIPN4Json5ValueESaIS2_EE15_M_destroy_dataESt15_Deque_iteratorIS2_RS2_PS2_ES8_RKS3_
FNDA:0,_ZNSt5dequeIN4Json9OurReader9ErrorInfoESaIS2_EE15_M_erase_at_endESt15_Deque_iteratorIS2_RS2_PS2_E
FNDA:250,_ZNSt5dequeIN4Json6Reader9ErrorInfoESaIS2_EE15_M_erase_at_endESt15_Deque_iteratorIS2_RS2_PS2_E
FNDA:0,_ZNSt5dequeIN4Json9OurReader9ErrorInfoESaIS2_EE27_M_reserve_elements_at_backEm
FNDA:0,_ZNSt5dequeIN4Json6Reader9ErrorInfoESaIS2_EE27_M_reserve_elements_at_backEm
FNDA:0,_ZNSt5dequeIPN4Json5ValueESaIS2_EE22_M_reserve_map_at_backEm
FNDA:0,_ZNSt5dequeIN4Json9OurReader9ErrorInfoESaIS2_EE22_M_reserve_map_at_backEm
FNDA:0,_ZNSt5dequeIN4Json6Reader9ErrorInfoESaIS2_EE22_M_reserve_map_at_backEm
FNF:131
FNH:33
DA:89,0
DA:91,0
DA:111,1500
DA:112,1500
DA:132,1500
DA:133,1500
DA:135,0
DA:137,0
DA:140,8680
DA:141,8680
DA:148,0
DA:150,0
DA:151,0
DA:153,0
DA:154,0
DA:156,0
DA:168,8680
DA:170,8680
DA:172,0
DA:173,0
DA:175,8680
DA:176,8680
DA:188,0
DA:190,0
DA:191,0
DA:192,0
DA:196,0
DA:198,0
DA:199,0
DA:200,0
DA:201,0
DA:203,0
DA:207,0
DA:209,0
DA:210,0
DA:234,1500
DA:236,1500
DA:237,1500
DA:238,1500
DA:239,1500
DA:247,250
DA:249,250
DA:260,0
DA:262,0
DA:331,0
DA:335,0
DA:337,0
DA:451,500
DA:452,500
DA:453,500
DA:468,250
DA:469,250
DA:471,250
DA:472,250
DA:474,250
DA:475,250
DA:476,250
DA:477,250
DA:479,250
DA:492,0
DA:500,500
DA:502,500
DA:503,500
DA:511,250
DA:512,250
DA:513,250
DA:514,250
DA:519,0
DA:520,0
DA:523,0
DA:524,0
DA:527,0
DA:528,0
DA:531,750
DA:533,750
DA:537,0
DA:539,0
DA:540,0
DA:543,750
DA:544,750
DA:547,0
DA:548,0
DA:560,0
DA:563,0
DA:565,0
DA:566,0
DA:567,0
DA:569,0
DA:581,750
DA:584,750
DA:585,750
DA:587,750
DA:588,1500
DA:589,750
DA:597,750
DA:598,750
DA:601,750
DA:602,=====
DA:604,=====
DA:605,=====
DA:606,=====
DA:607,=====
DA:610,750
DA:611,750
DA:612,750
DA:613,750
DA:614,1500
DA:615,750
DA:616,750
DA:620,750
DA:626,1500
DA:627,750
DA:629,=====
DA:631,=====
DA:632,=====
DA:634,750
DA:638,0
DA:641,0
DA:642,0
DA:643,0
DA:757,0
DA:758,0
DA:782,500
DA:783,500
DA:855,250
DA:856,250
DA:917,0
DA:918,0
DA:1037,0
DA:1038,0
DA:1045,0
DA:1046,0
DA:1054,0
DA:1055,0
DA:1063,0
DA:1064,0
DA:1142,0
DA:1143,0
DA:1147,0
DA:1148,0
DA:1161,0
DA:1163,0
DA:1164,0
DA:1165,0
DA:1166,0
DA:1167,0
DA:1168,0
DA:1169,0
DA:1228,250
DA:1229,250
DA:1329,8680
DA:1331,8680
DA:1332,8680
DA:1333,8680
DA:1390,60
DA:1392,120
DA:1393,60
DA:1395,60
DA:1396,60
DA:1399,0
DA:1400,60
DA:1404,1810
DA:1405,1810
DA:1442,1560
DA:1444,1560
DA:1447,1560
DA:1448,1560
DA:1451,0
DA:1452,1560
DA:1616,250
DA:1617,250
DA:1849,0
DA:1853,0
DA:1854,0
DA:1868,250
DA:1870,250
DA:1871,250
DA:1872,250
DA:1873,250
DA:1874,250
DA:1898,0
DA:1901,0
DA:1902,0
DA:1903,0
DA:1904,0
DA:1924,0
DA:1926,0
DA:1928,0
DA:1929,0
LF:189
LH:91
end_of_record
SF:/usr/include/c++/4.8/bits/stl_function.h
FN:234,_ZNKSt4lessISsEclERKSsS2_
FN:234,_ZNKSt4lessIN4Json5Value8CZStringEEclERKS2_S5_
FN:477,_ZNKSt9_IdentityISsEclERSs
FN:481,_ZNKSt9_IdentityISsEclERKSs
FN:490,_ZNKSt10_Select1stISt4pairIKN4Json5Value8CZStringES2_EEclERS5_
FN:494,_ZNKSt10_Select1stISt4pairIKN4Json5Value8CZStringES2_EEclERKS5_
FNDA:0,_ZNKSt4lessISsEclERKSsS2_
FNDA:11850,_ZNKSt4lessIN4Json5Value8CZStringEEclERKS2_S5_
FNDA:0,_ZNKSt9_IdentityISsEclERSs
FNDA:0,_ZNKSt9_IdentityISsEclERKSs
FNDA:4270,_ZNKSt10_Select1stISt4pairIKN4Json5Value8CZStringES2_EEclERS5_
FNDA:11850,_ZNKSt10_Select1stISt4pairIKN4Json5Value8CZStringES2_EEclERKS5_
FNF:6
FNH:3
DA:234,11850
DA:235,11850
DA:477,0
DA:478,0
DA:481,0
DA:482,0
DA:490,4270
DA:491,4270
DA:494,11850
DA:495,11850
LF:10
LH:6
end_of_record
SF:/usr/include/c++/4.8/bits/stl_iterator.h
FN:726,_ZN9__gnu_cxx17__normal_iteratorIPKPKN4Json12PathArgumentESt6vectorIS4_SaIS4_EEEC2ERKS6_
FN:726,_ZN9__gnu_cxx17__normal_iteratorIPKcSsEC2ERKS2_
FN:726,_ZN9__gnu_cxx17__normal_iteratorIPKSsSt6vectorISsSaISsEEEC2ERKS2_
FN:726,_ZN9__gnu_cxx17__normal_iteratorIPSsSt6vectorISsSaISsEEEC2ERKS1_
FN:726,_ZN9__gnu_cxx17__normal_iteratorIPKN4Json12PathArgumentESt6vectorIS2_SaIS2_EEEC2ERKS4_
FN:738,_ZNK9__gnu_cxx17__normal_iteratorIPKPKN4Json12PathArgumentESt6vectorIS4_SaIS4_EEEdeEv
FN:738,_ZNK9__gnu_cxx17__normal_iteratorIPKcSsEdeEv
FN:738,_ZNK9__gnu_cxx17__normal_iteratorIPSsSt6vectorISsSaISsEEEdeEv
FN:738,_ZNK9__gnu_cxx17__normal_iteratorIPKN4Json12PathArgumentESt6vectorIS2_SaIS2_EEEdeEv
FN:746,_ZN9__gnu_cxx17__normal_iteratorIPKcSsEppEv
FN:746,_ZN9__gnu_cxx17__normal_iteratorIPKN4Json12PathArgumentESt6vectorIS2_SaIS2_EEEppEv
FN:746,_ZN9__gnu_cxx17__normal_iteratorIPSsSt6vectorISsSaISsEEEppEv
FN:778,_ZNK9__gnu_cxx17__normal_iteratorIPKcSsEplERKl
FN:790,_ZNK9__gnu_cxx17__normal_iteratorIPKSsSt6vectorISsSaISsEEE4baseEv
FN:790,_ZNK9__gnu_cxx17__normal_iteratorIPKPKN4Json12PathArgumentESt6vectorIS4_SaIS4_EEE4baseEv
FN:790,_ZNK9__gnu_cxx17__normal_iteratorIPSsSt6vectorISsSaISsEEE4baseEv
FN:790,_ZNK9__gnu_cxx17__normal_iteratorIPKN4Json12PathArgumentESt6vectorIS2_SaIS2_EEE4baseEv
FN:790,_ZNK9__gnu_cxx17__normal_iteratorIPKcSsE4baseEv
FN:811,_ZN9__gnu_cxxeqIPSsSt6vectorISsSaISsEEEEbRKNS_17__normal_iteratorIT_T0_EESA_
FN:811,_ZN9__gnu_cxxeqIPKSsSt6vectorISsSaISsEEEEbRKNS_17__normal_iteratorIT_T0_EESB_
FN:811,_ZN9__gnu_cxxeqIPKPKN4Json12PathArgumentESt6vectorIS4_SaIS4_EEEEbRKNS_17__normal_iteratorIT_T0_EESF_
FN:823,_ZN9__gnu_cxxneIPSsSt6vectorISsSaISsEEEEbRKNS_17__normal_iteratorIT_T0_EESA_
FN:823,_ZN9__gnu_cxxneIPKcSsEEbRKNS_17__normal_iteratorIT_T0_EES8_
FN:823,_ZN9__gnu_cxxneIPKN4Json12PathArgumentESt6vectorIS2_SaIS2_EEEEbRKNS_17__normal_iteratorIT_T0_EESD_
FN:950,_ZNSt13move_iteratorIPSsEC2ES0_
FN:950,_ZNSt13move_iteratorIPN4Json9OurReader15StructuredErrorEEC2ES3_
FN:950,_ZNSt13move_iteratorIPN4Json12PathArgumentEEC2ES2_
FN:950,_ZNSt13move_iteratorIPN4Json6Reader15StructuredErrorEEC2ES3_
FN:950,_ZNSt13move_iteratorIPPKN4Json12PathArgumentEEC2ES4_
FN:958,_ZNKSt13move_iteratorIPPKN4Json12PathArgumentEE4baseEv
FN:958,_ZNKSt13move_iteratorIPSsE4baseEv
FN:958,_ZNKSt13move_iteratorIPN4Json9OurReader15StructuredErrorEE4baseEv
FN:958,_ZNKSt13move_iteratorIPN4Json6Reader15StructuredErrorEE4baseEv
FN:958,_ZNKSt13move_iteratorIPN4Json12PathArgumentEE4baseEv
FN:962,_ZNKSt13move_iteratorIPN4Json12PathArgumentEEdeEv
FN:962,_ZNKSt13move_iteratorIPN4Json9OurReader15StructuredErrorEEdeEv
FN:962,_ZNKSt13move_iteratorIPSsEdeEv
FN:962,_ZNKSt13move_iteratorIPN4Json6Reader15StructuredErrorEEdeEv
FN:970,_ZNSt13move_iteratorIPN4Json6Reader15StructuredErrorEEppEv
FN:970,_ZNSt13move_iteratorIPN4Json12PathArgumentEEppEv
FN:970,_ZNSt13move_iteratorIPN4Json9OurReader15StructuredErrorEEppEv
FN:970,_ZNSt13move_iteratorIPSsEppEv
FN:1037,_ZSteqIPN4Json6Reader15StructuredErrorEEbRKSt13move_iteratorIT_ES8_
FN:1037,_ZSteqIPN4Json9OurReader15StructuredErrorEEbRKSt13move_iteratorIT_ES8_
FN:1037,_ZSteqIPN4Json12PathArgumentEEbRKSt13move_iteratorIT_ES7_
FN:1037,_ZSteqIPSsEbRKSt13move_iteratorIT_ES5_
FN:1049,_ZStneIPN4Json6Reader15StructuredErrorEEbRKSt13move_iteratorIT_ES8_
FN:1049,_ZStneIPN4Json9OurReader15StructuredErrorEEbRKSt13move_iteratorIT_ES8_
FN:1049,_ZStneIPN4Json12PathArgumentEEbRKSt13move_iteratorIT_ES7_
FN:1049,_ZStneIPSsEbRKSt13move_iteratorIT_ES5_
FN:1132,_ZSt32__make_move_if_noexcept_iteratorIPSsSt13move_iteratorIS0_EET0_T_
FN:1132,_ZSt32__make_move_if_noexcept_iteratorIPPKN4Json12PathArgumentESt13move_iteratorIS4_EET0_T_
FN:1132,_ZSt32__make_move_if_noexcept_iteratorIPN4Json12PathArgumentESt13move_iteratorIS2_EET0_T_
FN:1132,_ZSt32__make_move_if_noexcept_iteratorIPN4Json9OurReader15StructuredErrorESt13move_iteratorIS3_EET0_T_
FN:1132,_ZSt32__make_move_if_noexcept_iteratorIPN4Json6Reader15StructuredErrorESt13move_iteratorIS3_EET0_T_
FNDA:0,_ZN9__gnu_cxx17__normal_iteratorIPKSsSt6vectorISsSaISsEEEC2ERKS2_
FNDA:0,_ZN9__gnu_cxx17__normal_iteratorIPKcSsEC2ERKS2_
FNDA:2820,_ZN9__gnu_cxx17__normal_iteratorIPSsSt6vectorISsSaISsEEEC2ERKS1_
FNDA:0,_ZN9__gnu_cxx17__normal_iteratorIPKN4Json12PathArgumentESt6vectorIS2_SaIS2_EEEC2ERKS4_
FNDA:0,_ZN9__gnu_cxx17__normal_iteratorIPKPKN4Json12PathArgumentESt6vectorIS4_SaIS4_EEEC2ERKS6_
FNDA:0,_ZNK9__gnu_cxx17__normal_iteratorIPKcSsEdeEv
FNDA:940,_ZNK9__gnu_cxx17__normal_iteratorIPSsSt6vectorISsSaISsEEEdeEv
FNDA:0,_ZNK9__gnu_cxx17__normal_iteratorIPKN4Json12PathArgumentESt6vectorIS2_SaIS2_EEEdeEv
FNDA:0,_ZNK9__gnu_cxx17__normal_iteratorIPKPKN4Json12PathArgumentESt6vectorIS4_SaIS4_EEEdeEv
FNDA:0,_ZN9__gnu_cxx17__normal_iteratorIPKcSsEppEv
FNDA:940,_ZN9__gnu_cxx17__normal_iteratorIPSsSt6vectorISsSaISsEEEppEv
FNDA:0,_ZN9__gnu_cxx17__normal_iteratorIPKN4Json12PathArgumentESt6vectorIS2_SaIS2_EEEppEv
FNDA:0,_ZNK9__gnu_cxx17__normal_iteratorIPKcSsEplERKl
FNDA:0,_ZNK9__gnu_cxx17__normal_iteratorIPKSsSt6vectorISsSaISsEEE4baseEv
FNDA:0,_ZNK9__gnu_cxx17__normal_iteratorIPKcSsE4baseEv
FNDA:4700,_ZNK9__gnu_cxx17__normal_iteratorIPSsSt6vectorISsSaISsEEE4baseEv
FNDA:0,_ZNK9__gnu_cxx17__normal_iteratorIPKN4Json12PathArgumentESt6vectorIS2_SaIS2_EEE4baseEv
FNDA:0,_ZNK9__gnu_cxx17__normal_iteratorIPKPKN4Json12PathArgumentESt6vectorIS4_SaIS4_EEE4baseEv
FNDA:0,_ZN9__gnu_cxxeqIPKSsSt6vectorISsSaISsEEEEbRKNS_17__normal_iteratorIT_T0_EESB_
FNDA:0,_ZN9__gnu_cxxeqIPSsSt6vectorISsSaISsEEEEbRKNS_17__normal_iteratorIT_T0_EESA_
FNDA:0,_ZN9__gnu_cxxeqIPKPKN4Json12PathArgumentESt6vectorIS4_SaIS4_EEEEbRKNS_17__normal_iteratorIT_T0_EESF_
FNDA:0,_ZN9__gnu_cxxneIPKcSsEEbRKNS_17__normal_iteratorIT_T0_EES8_
FNDA:2350,_ZN9__gnu_cxxneIPSsSt6vectorISsSaISsEEEEbRKNS_17__normal_iteratorIT_T0_EESA_
FNDA:0,_ZN9__gnu_cxxneIPKN4Json12PathArgumentESt6vectorIS2_SaIS2_EEEEbRKNS_17__normal_iteratorIT_T0_EESD_
FNDA:0,_ZNSt13move_iteratorIPPKN4Json12PathArgumentEEC2ES4_
FNDA:0,_ZNSt13move_iteratorIPN4Json12PathArgumentEEC2ES2_
FNDA:0,_ZNSt13move_iteratorIPN4Json9OurReader15StructuredErrorEEC2ES3_
FNDA:0,_ZNSt13move_iteratorIPN4Json6Reader15StructuredErrorEEC2ES3_
FNDA:9620,_ZNSt13move_iteratorIPSsEC2ES0_
FNDA:0,_ZNKSt13move_iteratorIPPKN4Json12PathArgumentEE4baseEv
FNDA:0,_ZNKSt13move_iteratorIPN4Json12PathArgumentEE4baseEv
FNDA:0,_ZNKSt13move_iteratorIPN4Json9OurReader15StructuredErrorEE4baseEv
FNDA:0,_ZNKSt13move_iteratorIPN4Json6Reader15StructuredErrorEE4baseEv
FNDA:29400,_ZNKSt13move_iteratorIPSsE4baseEv
FNDA:0,_ZNKSt13move_iteratorIPN4Json12PathArgumentEEdeEv
FNDA:0,_ZNKSt13move_iteratorIPN4Json9OurReader15StructuredErrorEEdeEv
FNDA:0,_ZNKSt13move_iteratorIPN4Json6Reader15StructuredErrorEEdeEv
FNDA:9890,_ZNKSt13move_iteratorIPSsEdeEv
FNDA:0,_ZNSt13move_iteratorIPN4Json12PathArgumentEEppEv
FNDA:0,_ZNSt13move_iteratorIPN4Json9OurReader15StructuredErrorEEppEv
FNDA:0,_ZNSt13move_iteratorIPN4Json6Reader15StructuredErrorEEppEv
FNDA:9890,_ZNSt13move_iteratorIPSsEppEv
FNDA:0,_ZSteqIPN4Json12PathArgumentEEbRKSt13move_iteratorIT_ES7_
FNDA:0,_ZSteqIPN4Json9OurReader15StructuredErrorEEbRKSt13move_iteratorIT_ES8_
FNDA:0,_ZSteqIPN4Json6Reader15StructuredErrorEEbRKSt13move_iteratorIT_ES8_
FNDA:14700,_ZSteqIPSsEbRKSt13move_iteratorIT_ES5_
FNDA:0,_ZStneIPN4Json12PathArgumentEEbRKSt13move_iteratorIT_ES7_
FNDA:0,_ZStneIPN4Json9OurReader15StructuredErrorEEbRKSt13move_iteratorIT_ES8_
FNDA:0,_ZStneIPN4Json6Reader15StructuredErrorEEbRKSt13move_iteratorIT_ES8_
FNDA:14700,_ZStneIPSsEbRKSt13move_iteratorIT_ES5_
FNDA:0,_ZSt32__make_move_if_noexcept_iteratorIPPKN4Json12PathArgumentESt13move_iteratorIS4_EET0_T_
FNDA:0,_ZSt32__make_move_if_noexcept_iteratorIPN4Json12PathArgumentESt13move_iteratorIS2_EET0_T_
FNDA:0,_ZSt32__make_move_if_noexcept_iteratorIPN4Json9OurReader15StructuredErrorESt13move_iteratorIS3_EET0_T_
FNDA:0,_ZSt32__make_move_if_noexcept_iteratorIPN4Json6Reader15StructuredErrorESt13move_iteratorIS3_EET0_T_
FNDA:9620,_ZSt32__make_move_if_noexcept_iteratorIPSsSt13move_iteratorIS0_EET0_T_
FNF:55
FNH:12
DA:726,2820
DA:738,940
DA:739,940
DA:746,940
DA:748,940
DA:749,940
DA:778,0
DA:779,0
DA:790,4700
DA:791,4700
DA:811,0
DA:813,0
DA:823,2350
DA:825,2350
DA:950,9620
DA:951,9620
DA:958,29400
DA:959,29400
DA:962,9890
DA:963,9890
DA:970,9890
DA:972,9890
DA:973,9890
DA:1037,14700
DA:1039,14700
DA:1049,14700
DA:1051,14700
DA:1132,9620
DA:1133,9620
LF:29
LH:25
end_of_record
SF:/usr/include/c++/4.8/bits/stl_iterator_base_funcs.h
FN:90,_ZSt10__distanceIPKcENSt15iterator_traitsIT_E15difference_typeES3_S3_St26random_access_iterator_tag
FN:90,_ZSt10__distanceIPcENSt15iterator_traitsIT_E15difference_typeES2_S2_St26random_access_iterator_tag
FN:114,_ZSt8distanceIPKcENSt15iterator_traitsIT_E15difference_typeES3_S3_
FN:114,_ZSt8distanceIPcENSt15iterator_traitsIT_E15difference_typeES2_S2_
FNDA:0,_ZSt10__distanceIPcENSt15iterator_traitsIT_E15difference_typeES2_S2_St26random_access_iterator_tag
FNDA:96580,_ZSt10__distanceIPKcENSt15iterator_traitsIT_E15difference_typeES3_S3_St26random_access_iterator_tag
FNDA:0,_ZSt8distanceIPcENSt15iterator_traitsIT_E15difference_typeES2_S2_
FNDA:96580,_ZSt8distanceIPKcENSt15iterator_traitsIT_E15difference_typeES3_S3_
FNF:4
FNH:2
DA:90,96580
DA:96,96580
DA:114,96580
DA:118,96580
LF:4
LH:4
end_of_record
SF:/usr/include/c++/4.8/bits/stl_iterator_base_types.h
FN:201,_ZSt19__iterator_categoryIPKcENSt15iterator_traitsIT_E17iterator_categoryERKS3_
FN:201,_ZSt19__iterator_categoryIPcENSt15iterator_traitsIT_E17iterator_categoryERKS2_
FN:212,_ZNSt10_Iter_baseISt23_Rb_tree_const_iteratorISt4pairIKN4Json5Value8CZStringES3_EELb0EE7_S_baseES7_
FN:212,_ZNSt10_Iter_baseIPPN4Json6Reader9ErrorInfoELb0EE7_S_baseES4_
FN:212,_ZNSt10_Iter_baseIPPPN4Json5ValueELb0EE7_S_baseES4_
FN:212,_ZNSt10_Iter_baseIPPN4Json9OurReader9ErrorInfoELb0EE7_S_baseES4_
FN:212,_ZNSt10_Iter_baseIPPKN4Json12PathArgumentELb0EE7_S_baseES4_
FN:220,_ZNSt10_Iter_baseISt13move_iteratorIPPKN4Json12PathArgumentEELb1EE7_S_baseES6_
FNDA:0,_ZSt19__iterator_categoryIPcENSt15iterator_traitsIT_E17iterator_categoryERKS2_
FNDA:96580,_ZSt19__iterator_categoryIPKcENSt15iterator_traitsIT_E17iterator_categoryERKS3_
FNDA:0,_ZNSt10_Iter_baseIPPKN4Json12PathArgumentELb0EE7_S_baseES4_
FNDA:0,_ZNSt10_Iter_baseIPPPN4Json5ValueELb0EE7_S_baseES4_
FNDA:0,_ZNSt10_Iter_baseIPPN4Json9OurReader9ErrorInfoELb0EE7_S_baseES4_
FNDA:0,_ZNSt10_Iter_baseIPPN4Json6Reader9ErrorInfoELb0EE7_S_baseES4_
FNDA:0,_ZNSt10_Iter_baseISt23_Rb_tree_const_iteratorISt4pairIKN4Json5Value8CZStringES3_EELb0EE7_S_baseES7_
FNDA:0,_ZNSt10_Iter_baseISt13move_iteratorIPPKN4Json12PathArgumentEELb1EE7_S_baseES6_
FNF:8
FNH:1
DA:201,96580
DA:202,96580
DA:212,0
DA:213,0
DA:220,0
DA:221,0
LF:6
LH:2
end_of_record
SF:/usr/include/c++/4.8/bits/stl_map.h
FN:96,_ZNSt3mapIN4Json5Value8CZStringES1_St4lessIS2_ESaISt4pairIKS2_S1_EEED2Ev
FN:160,_ZNSt3mapIN4Json5Value8CZStringES1_St4lessIS2_ESaISt4pairIKS2_S1_EEEC2Ev
FN:180,_ZNSt3mapIN4Json5Value8CZStringES1_St4lessIS2_ESaISt4pairIKS2_S1_EEEC2ERKS9_
FN:320,_ZNSt3mapIN4Json5Value8CZStringES1_St4lessIS2_ESaISt4pairIKS2_S1_EEE5beginEv
FN:338,_ZNSt3mapIN4Json5Value8CZStringES1_St4lessIS2_ESaISt4pairIKS2_S1_EEE3endEv
FN:429,_ZNKSt3mapIN4Json5Value8CZStringES1_St4lessIS2_ESaISt4pairIKS2_S1_EEE5emptyEv
FN:434,_ZNKSt3mapIN4Json5Value8CZStringES1_St4lessIS2_ESaISt4pairIKS2_S1_EEE4sizeEv
FN:456,_ZNSt3mapIN4Json5Value8CZStringES1_St4lessIS2_ESaISt4pairIKS2_S1_EEEixERS6_
FN:655,_ZNSt3mapIN4Json5Value8CZStringES1_St4lessIS2_ESaISt4pairIKS2_S1_EEE6insertIRS7_vEESt17_Rb_tree_iteratorIS7_ESt23_Rb_tree_const_iteratorIS7_EOT_
FN:696,_ZNSt3mapIN4Json5Value8CZStringES1_St4lessIS2_ESaISt4pairIKS2_S1_EEE5eraseB5cxx11ESt17_Rb_tree_iteratorIS7_E
FN:726,_ZNSt3mapIN4Json5Value8CZStringES1_St4lessIS2_ESaISt4pairIKS2_S1_EEE5eraseERS6_
FN:788,_ZNSt3mapIN4Json5Value8CZStringES1_St4lessIS2_ESaISt4pairIKS2_S1_EEE5clearEv
FN:797,_ZNKSt3mapIN4Json5Value8CZStringES1_St4lessIS2_ESaISt4pairIKS2_S1_EEE8key_compEv
FN:821,_ZNSt3mapIN4Json5Value8CZStringES1_St4lessIS2_ESaISt4pairIKS2_S1_EEE4findERS6_
FN:863,_ZNSt3mapIN4Json5Value8CZStringES1_St4lessIS2_ESaISt4pairIKS2_S1_EEE11lower_boundERS6_
FN:962,_ZSteqIN4Json5Value8CZStringES1_St4lessIS2_ESaISt4pairIKS2_S1_EEEbRKSt3mapIT_T0_T1_T2_ESG_
FN:979,_ZStltIN4Json5Value8CZStringES1_St4lessIS2_ESaISt4pairIKS2_S1_EEEbRKSt3mapIT_T0_T1_T2_ESG_
FNDA:3200,_ZNSt3mapIN4Json5Value8CZStringES1_St4lessIS2_ESaISt4pairIKS2_S1_EEED2Ev
FNDA:1480,_ZNSt3mapIN4Json5Value8CZStringES1_St4lessIS2_ESaISt4pairIKS2_S1_EEEC2Ev
FNDA:1720,_ZNSt3mapIN4Json5Value8CZStringES1_St4lessIS2_ESaISt4pairIKS2_S1_EEEC2ERKS9_
FNDA:470,_ZNSt3mapIN4Json5Value8CZStringES1_St4lessIS2_ESaISt4pairIKS2_S1_EEE5beginEv
FNDA:7440,_ZNSt3mapIN4Json5Value8CZStringES1_St4lessIS2_ESaISt4pairIKS2_S1_EEE3endEv
FNDA:1480,_ZNKSt3mapIN4Json5Value8CZStringES1_St4lessIS2_ESaISt4pairIKS2_S1_EEE5emptyEv
FNDA:470,_ZNKSt3mapIN4Json5Value8CZStringES1_St4lessIS2_ESaISt4pairIKS2_S1_EEE4sizeEv
FNDA:0,_ZNSt3mapIN4Json5Value8CZStringES1_St4lessIS2_ESaISt4pairIKS2_S1_EEEixERS6_
FNDA:2740,_ZNSt3mapIN4Json5Value8CZStringES1_St4lessIS2_ESaISt4pairIKS2_S1_EEE6insertIRS7_vEESt17_Rb_tree_iteratorIS7_ESt23_Rb_tree_const_iteratorIS7_EOT_
FNDA:0,_ZNSt3mapIN4Json5Value8CZStringES1_St4lessIS2_ESaISt4pairIKS2_S1_EEE5eraseB5cxx11ESt17_Rb_tree_iteratorIS7_E
FNDA:0,_ZNSt3mapIN4Json5Value8CZStringES1_St4lessIS2_ESaISt4pairIKS2_S1_EEE5eraseERS6_
FNDA:0,_ZNSt3mapIN4Json5Value8CZStringES1_St4lessIS2_ESaISt4pairIKS2_S1_EEE5clearEv
FNDA:0,_ZNKSt3mapIN4Json5Value8CZStringES1_St4lessIS2_ESaISt4pairIKS2_S1_EEE8key_compEv
FNDA:1600,_ZNSt3mapIN4Json5Value8CZStringES1_St4lessIS2_ESaISt4pairIKS2_S1_EEE4findERS6_
FNDA:4040,_ZNSt3mapIN4Json5Value8CZStringES1_St4lessIS2_ESaISt4pairIKS2_S1_EEE11lower_boundERS6_
FNDA:0,_ZSteqIN4Json5Value8CZStringES1_St4lessIS2_ESaISt4pairIKS2_S1_EEEbRKSt3mapIT_T0_T1_T2_ESG_
FNDA:0,_ZStltIN4Json5Value8CZStringES1_St4lessIS2_ESaISt4pairIKS2_S1_EEEbRKSt3mapIT_T0_T1_T2_ESG_
FNF:17
FNH:10
DA:96,3200
DA:160,1480
DA:161,1480
DA:180,1720
DA:181,1720
DA:320,470
DA:321,470
DA:338,7440
DA:339,7440
DA:429,1480
DA:430,1480
DA:434,470
DA:435,470
DA:456,0
DA:461,0
DA:463,0
DA:465,0
DA:471,0
DA:655,2740
DA:657,2740
DA:696,0
DA:697,0
DA:726,0
DA:727,0
DA:788,0
DA:789,0
DA:797,0
DA:798,0
DA:821,1600
DA:822,1600
DA:863,4040
DA:864,4040
DA:962,0
DA:964,0
DA:979,0
DA:981,0
LF:36
LH:19
end_of_record
SF:/usr/include/c++/4.8/bits/stl_pair.h
FN:96,_ZNSt4pairIKN4Json5Value8CZStringES1_ED2Ev
FN:127,_ZNSt4pairIKN4Json5Value8CZStringES1_EC2ERKS4_
FN:133,_ZNSt4pairIPSt18_Rb_tree_node_baseS1_EC2IRS1_vEEOT_RKS1_
FN:133,_ZNSt4pairIKN4Json5Value8CZStringES1_EC1IRS2_vEEOT_RKS1_
FN:138,_ZNSt4pairIPSt18_Rb_tree_node_baseS1_EC2IRS1_vEERKS1_OT_
FN:144,_ZNSt4pairISt17_Rb_tree_iteratorISsEbEC2IS1_bvEEOT_OT0_
FN:144,_ZNSt4pairIPSt18_Rb_tree_node_baseS1_EC2IRS1_S4_vEEOT_OT0_
FN:144,_ZNSt4pairISt23_Rb_tree_const_iteratorISsEbEC2IRSt17_Rb_tree_iteratorISsERbvEEOT_OT0_
FN:144,_ZNSt4pairIPSt18_Rb_tree_node_baseS1_EC2IRPSt13_Rb_tree_nodeISsES7_vEEOT_OT0_
FN:144,_ZNSt4pairIPSt18_Rb_tree_node_baseS1_EC2IRPSt13_Rb_tree_nodeIS_IKN4Json5Value8CZStringES6_EESC_vEEOT_OT0_
FN:144,_ZNSt4pairISt17_Rb_tree_iteratorIS_IKN4Json5Value8CZStringES2_EES6_EC2IS6_S6_vEEOT_OT0_
FN:214,_ZSteqIKN4Json5Value8CZStringES1_EbRKSt4pairIT_T0_ES9_
FN:220,_ZStltIKN4Json5Value8CZStringES1_EbRKSt4pairIT_T0_ES9_
FNDA:9120,_ZNSt4pairIKN4Json5Value8CZStringES1_ED2Ev
FNDA:6380,_ZNSt4pairIKN4Json5Value8CZStringES1_EC2ERKS4_
FNDA:0,_ZNSt4pairIPSt18_Rb_tree_node_baseS1_EC2IRS1_vEEOT_RKS1_
FNDA:2740,_ZNSt4pairIKN4Json5Value8CZStringES1_EC1IRS2_vEEOT_RKS1_
FNDA:0,_ZNSt4pairIPSt18_Rb_tree_node_baseS1_EC2IRS1_vEERKS1_OT_
FNDA:1210,_ZNSt4pairIPSt18_Rb_tree_node_baseS1_EC2IRPSt13_Rb_tree_nodeIS_IKN4Json5Value8CZStringES6_EESC_vEEOT_OT0_
FNDA:0,_ZNSt4pairIPSt18_Rb_tree_node_baseS1_EC2IRS1_S4_vEEOT_OT0_
FNDA:0,_ZNSt4pairISt17_Rb_tree_iteratorIS_IKN4Json5Value8CZStringES2_EES6_EC2IS6_S6_vEEOT_OT0_
FNDA:0,_ZNSt4pairIPSt18_Rb_tree_node_baseS1_EC2IRPSt13_Rb_tree_nodeISsES7_vEEOT_OT0_
FNDA:0,_ZNSt4pairISt17_Rb_tree_iteratorISsEbEC2IS1_bvEEOT_OT0_
FNDA:0,_ZNSt4pairISt23_Rb_tree_const_iteratorISsEbEC2IRSt17_Rb_tree_iteratorISsERbvEEOT_OT0_
FNDA:0,_ZSteqIKN4Json5Value8CZStringES1_EbRKSt4pairIT_T0_ES9_
FNDA:0,_ZStltIKN4Json5Value8CZStringES1_EbRKSt4pairIT_T0_ES9_
FNF:13
FNH:4
DA:96,9120
DA:127,6380
DA:133,2740
DA:134,2740
DA:138,0
DA:139,0
DA:144,1210
DA:145,1210
DA:214,0
DA:215,0
DA:220,0
DA:221,0
DA:222,0
LF:13
LH:6
end_of_record
SF:/usr/include/c++/4.8/bits/stl_set.h
FN:90,_ZNSt3setISsSt4lessISsESaISsEED2Ev
FN:139,_ZNSt3setISsSt4lessISsESaISsEEC2Ev
FN:307,_ZNKSt3setISsSt4lessISsESaISsEE3endEv
FN:469,_ZNSt3setISsSt4lessISsESaISsEE6insertEOSs
FN:630,_ZNSt3setISsSt4lessISsESaISsEE5clearEv
FN:662,_ZNSt3setISsSt4lessISsESaISsEE4findERKSs
FNDA:10,_ZNSt3setISsSt4lessISsESaISsEED2Ev
FNDA:0,_ZNSt3setISsSt4lessISsESaISsEEC2Ev
FNDA:0,_ZNKSt3setISsSt4lessISsESaISsEE3endEv
FNDA:0,_ZNSt3setISsSt4lessISsESaISsEE6insertEOSs
FNDA:0,_ZNSt3setISsSt4lessISsESaISsEE5clearEv
FNDA:0,_ZNSt3setISsSt4lessISsESaISsEE4findERKSs
FNF:6
FNH:1
DA:90,10
DA:139,0
DA:140,0
DA:307,0
DA:308,0
DA:469,0
DA:472,0
DA:473,0
DA:630,0
DA:631,0
DA:662,0
DA:663,0
LF:12
LH:1
end_of_record
SF:/usr/include/c++/4.8/bits/stl_stack.h
FN:96,_ZNSt5stackIPN4Json5ValueESt5dequeIS2_SaIS2_EEED2Ev
FN:138,_ZNSt5stackIPN4Json5ValueESt5dequeIS2_SaIS2_EEEC2EOS5_
FN:146,_ZNKSt5stackIPN4Json5ValueESt5dequeIS2_SaIS2_EEE5emptyEv
FN:159,_ZNSt5stackIPN4Json5ValueESt5dequeIS2_SaIS2_EEE3topEv
FN:191,_ZNSt5stackIPN4Json5ValueESt5dequeIS2_SaIS2_EEE4pushEOS2_
FN:212,_ZNSt5stackIPN4Json5ValueESt5dequeIS2_SaIS2_EEE3popEv
FNDA:0,_ZNSt5stackIPN4Json5ValueESt5dequeIS2_SaIS2_EEED2Ev
FNDA:250,_ZNSt5stackIPN4Json5ValueESt5dequeIS2_SaIS2_EEEC2EOS5_
FNDA:250,_ZNKSt5stackIPN4Json5ValueESt5dequeIS2_SaIS2_EEE5emptyEv
FNDA:8680,_ZNSt5stackIPN4Json5ValueESt5dequeIS2_SaIS2_EEE3topEv
FNDA:1810,_ZNSt5stackIPN4Json5ValueESt5dequeIS2_SaIS2_EEE4pushEOS2_
FNDA:1560,_ZNSt5stackIPN4Json5ValueESt5dequeIS2_SaIS2_EEE3popEv
FNF:6
FNH:5
DA:96,0
DA:138,250
DA:139,250
DA:146,250
DA:147,250
DA:159,8680
DA:162,8680
DA:191,1810
DA:192,1810
DA:212,1560
DA:215,1560
DA:216,1560
LF:12
LH:11
end_of_record
SF:/usr/include/c++/4.8/bits/stl_tree.h
FN:102,_ZNSt18_Rb_tree_node_base10_S_minimumEPS_
FN:116,_ZNSt18_Rb_tree_node_base10_S_maximumEPS_
FN:131,_ZNSt13_Rb_tree_nodeISt4pairIKN4Json5Value8CZStringES2_EED2Ev
FN:131,_ZNSt13_Rb_tree_nodeISsED2Ev
FN:138,_ZNSt13_Rb_tree_nodeISsEC2IISsEEEDpOT_
FN:138,_ZNSt13_Rb_tree_nodeISt4pairIKN4Json5Value8CZStringES2_EEC2IIRKSt21piecewise_construct_tSt5tupleIIRS4_EESB_IIEEEEEDpOT_
FN:138,_ZNSt13_Rb_tree_nodeISt4pairIKN4Json5Value8CZStringES2_EEC2IIRS5_EEEDpOT_
FN:138,_ZNSt13_Rb_tree_nodeISt4pairIKN4Json5Value8CZStringES2_EEC2IIRKS5_EEEDpOT_
FN:170,_ZNSt17_Rb_tree_iteratorISt4pairIKN4Json5Value8CZStringES2_EEC2Ev
FN:174,_ZNSt17_Rb_tree_iteratorISsEC2EPSt13_Rb_tree_nodeISsE
FN:174,_ZNSt17_Rb_tree_iteratorISt4pairIKN4Json5Value8CZStringES2_EEC2EPSt13_Rb_tree_nodeIS5_E
FN:178,_ZNKSt17_Rb_tree_iteratorISt4pairIKN4Json5Value8CZStringES2_EEdeEv
FN:182,_ZNKSt17_Rb_tree_iteratorISt4pairIKN4Json5Value8CZStringES2_EEptEv
FN:187,_ZNSt17_Rb_tree_iteratorISt4pairIKN4Json5Value8CZStringES2_EEppEv
FN:202,_ZNSt17_Rb_tree_iteratorISt4pairIKN4Json5Value8CZStringES2_EEmmEv
FN:202,_ZNSt17_Rb_tree_iteratorISsEmmEv
FN:217,_ZNKSt17_Rb_tree_iteratorISt4pairIKN4Json5Value8CZStringES2_EEeqERKS6_
FN:217,_ZNKSt17_Rb_tree_iteratorISsEeqERKS0_
FN:221,_ZNKSt17_Rb_tree_iteratorISt4pairIKN4Json5Value8CZStringES2_EEneERKS6_
FN:247,_ZNSt23_Rb_tree_const_iteratorISsEC2EPKSt13_Rb_tree_nodeISsE
FN:247,_ZNSt23_Rb_tree_const_iteratorISt4pairIKN4Json5Value8CZStringES2_EEC2EPKSt13_Rb_tree_nodeIS5_E
FN:250,_ZNSt23_Rb_tree_const_iteratorISsEC2ERKSt17_Rb_tree_iteratorISsE
FN:250,_ZNSt23_Rb_tree_const_iteratorISt4pairIKN4Json5Value8CZStringES2_EEC2ERKSt17_Rb_tree_iteratorIS5_E
FN:254,_ZNKSt23_Rb_tree_const_iteratorISt4pairIKN4Json5Value8CZStringES2_EE13_M_const_castEv
FN:259,_ZNKSt23_Rb_tree_const_iteratorISt4pairIKN4Json5Value8CZStringES2_EEdeEv
FN:268,_ZNSt23_Rb_tree_const_iteratorISt4pairIKN4Json5Value8CZStringES2_EEppEv
FN:275,_ZNSt23_Rb_tree_const_iteratorISt4pairIKN4Json5Value8CZStringES2_EEppEi
FN:283,_ZNSt23_Rb_tree_const_iteratorISt4pairIKN4Json5Value8CZStringES2_EEmmEv
FN:298,_ZNKSt23_Rb_tree_const_iteratorISt4pairIKN4Json5Value8CZStringES2_EEeqERKS6_
FN:298,_ZNKSt23_Rb_tree_const_iteratorISsEeqERKS0_
FN:302,_ZNKSt23_Rb_tree_const_iteratorISt4pairIKN4Json5Value8CZStringES2_EEneERKS6_
FN:356,_ZNSt8_Rb_treeISsSsSt9_IdentityISsESt4lessISsESaISsEE21_M_get_Node_allocatorEv
FN:356,_ZNSt8_Rb_treeIN4Json5Value8CZStringESt4pairIKS2_S1_ESt10_Select1stIS5_ESt4lessIS2_ESaIS5_EE21_M_get_Node_allocatorEv
FN:360,_ZNKSt8_Rb_treeIN4Json5Value8CZStringESt4pairIKS2_S1_ESt10_Select1stIS5_ESt4lessIS2_ESaIS5_EE21_M_get_Node_allocatorEv
FN:369,_ZNSt8_Rb_treeISsSsSt9_IdentityISsESt4lessISsESaISsEE11_M_get_nodeEv
FN:369,_ZNSt8_Rb_treeIN4Json5Value8CZStringESt4pairIKS2_S1_ESt10_Select1stIS5_ESt4lessIS2_ESaIS5_EE11_M_get_nodeEv
FN:373,_ZNSt8_Rb_treeISsSsSt9_IdentityISsESt4lessISsESaISsEE11_M_put_nodeEPSt13_Rb_tree_nodeISsE
FN:373,_ZNSt8_Rb_treeIN4Json5Value8CZStringESt4pairIKS2_S1_ESt10_Select1stIS5_ESt4lessIS2_ESaIS5_EE11_M_put_nodeEPSt13_Rb_tree_nodeIS5_E
FN:401,_ZNSt8_Rb_treeISsSsSt9_IdentityISsESt4lessISsESaISsEE14_M_create_nodeIISsEEEPSt13_Rb_tree_nodeISsEDpOT_
FN:401,_ZNSt8_Rb_treeIN4Json5Value8CZStringESt4pairIKS2_S1_ESt10_Select1stIS5_ESt4lessIS2_ESaIS5_EE14_M_create_nodeIIRKS5_EEEPSt13_Rb_tree_nodeIS5_EDpOT_
FN:401,_ZNSt8_Rb_treeIN4Json5Value8CZStringESt4pairIKS2_S1_ESt10_Select1stIS5_ESt4lessIS2_ESaIS5_EE14_M_create_nodeIIRKSt21piecewise_construct_tSt5tupleIIRS4_EESG_IIEEEEEPSt13_Rb_tree_nodeIS5_EDpOT_
FN:401,_ZNSt8_Rb_treeIN4Json5Value8CZStringESt4pairIKS2_S1_ESt10_Select1stIS5_ESt4lessIS2_ESaIS5_EE14_M_create_nodeIIRS5_EEEPSt13_Rb_tree_nodeIS5_EDpOT_
FN:419,_ZNSt8_Rb_treeIN4Json5Value8CZStringESt4pairIKS2_S1_ESt10_Select1stIS5_ESt4lessIS2_ESaIS5_EE15_M_destroy_nodeEPSt13_Rb_tree_nodeIS5_E
FN:419,_ZNSt8_Rb_treeISsSsSt9_IdentityISsESt4lessISsESaISsEE15_M_destroy_nodeEPSt13_Rb_tree_nodeISsE
FN:427,_ZNSt8_Rb_treeIN4Json5Value8CZStringESt4pairIKS2_S1_ESt10_Select1stIS5_ESt4lessIS2_ESaIS5_EE13_M_clone_nodeEPKSt13_Rb_tree_nodeIS5_E
FN:439,_ZNSt8_Rb_treeIN4Json5Value8CZStringESt4pairIKS2_S1_ESt10_Select1stIS5_ESt4lessIS2_ESaIS5_EE13_Rb_tree_implIS9_Lb1EED2Ev
FN:439,_ZNSt8_Rb_treeISsSsSt9_IdentityISsESt4lessISsESaISsEE13_Rb_tree_implIS3_Lb1EED2Ev
FN:445,_ZNSt8_Rb_treeISsSsSt9_IdentityISsESt4lessISsESaISsEE13_Rb_tree_implIS3_Lb1EEC2Ev
FN:445,_ZNSt8_Rb_treeIN4Json5Value8CZStringESt4pairIKS2_S1_ESt10_Select1stIS5_ESt4lessIS2_ESaIS5_EE13_Rb_tree_implIS9_Lb1EEC2Ev
FN:450,_ZNSt8_Rb_treeIN4Json5Value8CZStringESt4pairIKS2_S1_ESt10_Select1stIS5_ESt4lessIS2_ESaIS5_EE13_Rb_tree_implIS9_Lb1EEC2ERKS9_RKSaISt13_Rb_tree_nodeIS5_EE
FN:464,_ZNSt8_Rb_treeISsSsSt9_IdentityISsESt4lessISsESaISsEE13_Rb_tree_implIS3_Lb1EE13_M_initializeEv
FN:464,_ZNSt8_Rb_treeIN4Json5Value8CZStringESt4pairIKS2_S1_ESt10_Select1stIS5_ESt4lessIS2_ESaIS5_EE13_Rb_tree_implIS9_Lb1EE13_M_initializeEv
FN:477,_ZNSt8_Rb_treeISsSsSt9_IdentityISsESt4lessISsESaISsEE7_M_rootEv
FN:477,_ZNSt8_Rb_treeIN4Json5Value8CZStringESt4pairIKS2_S1_ESt10_Select1stIS5_ESt4lessIS2_ESaIS5_EE7_M_rootEv
FN:481,_ZNKSt8_Rb_treeIN4Json5Value8CZStringESt4pairIKS2_S1_ESt10_Select1stIS5_ESt4lessIS2_ESaIS5_EE7_M_rootEv
FN:485,_ZNSt8_Rb_treeISsSsSt9_IdentityISsESt4lessISsESaISsEE11_M_leftmostEv
FN:485,_ZNSt8_Rb_treeIN4Json5Value8CZStringESt4pairIKS2_S1_ESt10_Select1stIS5_ESt4lessIS2_ESaIS5_EE11_M_leftmostEv
FN:493,_ZNSt8_Rb_treeIN4Json5Value8CZStringESt4pairIKS2_S1_ESt10_Select1stIS5_ESt4lessIS2_ESaIS5_EE12_M_rightmostEv
FN:493,_ZNSt8_Rb_treeISsSsSt9_IdentityISsESt4lessISsESaISsEE12_M_rightmostEv
FN:501,_ZNSt8_Rb_treeIN4Json5Value8CZStringESt4pairIKS2_S1_ESt10_Select1stIS5_ESt4lessIS2_ESaIS5_EE8_M_beginEv
FN:501,_ZNSt8_Rb_treeISsSsSt9_IdentityISsESt4lessISsESaISsEE8_M_beginEv
FN:505,_ZNKSt8_Rb_treeIN4Json5Value8CZStringESt4pairIKS2_S1_ESt10_Select1stIS5_ESt4lessIS2_ESaIS5_EE8_M_beginEv
FN:512,_ZNSt8_Rb_treeISsSsSt9_IdentityISsESt4lessISsESaISsEE6_M_endEv
FN:512,_ZNSt8_Rb_treeIN4Json5Value8CZStringESt4pairIKS2_S1_ESt10_Select1stIS5_ESt4lessIS2_ESaIS5_EE6_M_endEv
FN:520,_ZNSt8_Rb_treeIN4Json5Value8CZStringESt4pairIKS2_S1_ESt10_Select1stIS5_ESt4lessIS2_ESaIS5_EE8_S_valueEPKSt13_Rb_tree_nodeIS5_E
FN:520,_ZNSt8_Rb_treeISsSsSt9_IdentityISsESt4lessISsESaISsEE8_S_valueEPKSt13_Rb_tree_nodeISsE
FN:524,_ZNSt8_Rb_treeISsSsSt9_IdentityISsESt4lessISsESaISsEE6_S_keyEPKSt13_Rb_tree_nodeISsE
FN:524,_ZNSt8_Rb_treeIN4Json5Value8CZStringESt4pairIKS2_S1_ESt10_Select1stIS5_ESt4lessIS2_ESaIS5_EE6_S_keyEPKSt13_Rb_tree_nodeIS5_E
FN:528,_ZNSt8_Rb_treeISsSsSt9_IdentityISsESt4lessISsESaISsEE7_S_leftEPSt18_Rb_tree_node_base
FN:528,_ZNSt8_Rb_treeIN4Json5Value8CZStringESt4pairIKS2_S1_ESt10_Select1stIS5_ESt4lessIS2_ESaIS5_EE7_S_leftEPSt18_Rb_tree_node_base
FN:532,_ZNSt8_Rb_treeIN4Json5Value8CZStringESt4pairIKS2_S1_ESt10_Select1stIS5_ESt4lessIS2_ESaIS5_EE7_S_leftEPKSt18_Rb_tree_node_base
FN:536,_ZNSt8_Rb_treeIN4Json5Value8CZStringESt4pairIKS2_S1_ESt10_Select1stIS5_ESt4lessIS2_ESaIS5_EE8_S_rightEPSt18_Rb_tree_node_base
FN:536,_ZNSt8_Rb_treeISsSsSt9_IdentityISsESt4lessISsESaISsEE8_S_rightEPSt18_Rb_tree_node_base
FN:540,_ZNSt8_Rb_treeIN4Json5Value8CZStringESt4pairIKS2_S1_ESt10_Select1stIS5_ESt4lessIS2_ESaIS5_EE8_S_rightEPKSt18_Rb_tree_node_base
FN:544,_ZNSt8_Rb_treeISsSsSt9_IdentityISsESt4lessISsESaISsEE8_S_valueEPKSt18_Rb_tree_node_base
FN:544,_ZNSt8_Rb_treeIN4Json5Value8CZStringESt4pairIKS2_S1_ESt10_Select1stIS5_ESt4lessIS2_ESaIS5_EE8_S_valueEPKSt18_Rb_tree_node_base
FN:548,_ZNSt8_Rb_treeISsSsSt9_IdentityISsESt4lessISsESaISsEE6_S_keyEPKSt18_Rb_tree_node_base
FN:548,_ZNSt8_Rb_treeIN4Json5Value8CZStringESt4pairIKS2_S1_ESt10_Select1stIS5_ESt4lessIS2_ESaIS5_EE6_S_keyEPKSt18_Rb_tree_node_base
FN:552,_ZNSt8_Rb_treeIN4Json5Value8CZStringESt4pairIKS2_S1_ESt10_Select1stIS5_ESt4lessIS2_ESaIS5_EE10_S_minimumEPSt18_Rb_tree_node_base
FN:560,_ZNSt8_Rb_treeIN4Json5Value8CZStringESt4pairIKS2_S1_ESt10_Select1stIS5_ESt4lessIS2_ESaIS5_EE10_S_maximumEPSt18_Rb_tree_node_base
FN:648,_ZNSt8_Rb_treeISsSsSt9_IdentityISsESt4lessISsESaISsEEC2Ev
FN:648,_ZNSt8_Rb_treeIN4Json5Value8CZStringESt4pairIKS2_S1_ESt10_Select1stIS5_ESt4lessIS2_ESaIS5_EEC2Ev
FN:654,_ZNSt8_Rb_treeIN4Json5Value8CZStringESt4pairIKS2_S1_ESt10_Select1stIS5_ESt4lessIS2_ESaIS5_EEC2ERKSB_
FN:670,_ZNSt8_Rb_treeIN4Json5Value8CZStringESt4pairIKS2_S1_ESt10_Select1stIS5_ESt4lessIS2_ESaIS5_EED2Ev
FN:670,_ZNSt8_Rb_treeISsSsSt9_IdentityISsESt4lessISsESaISsEED2Ev
FN:678,_ZNKSt8_Rb_treeIN4Json5Value8CZStringESt4pairIKS2_S1_ESt10_Select1stIS5_ESt4lessIS2_ESaIS5_EE8key_compEv
FN:682,_ZNSt8_Rb_treeIN4Json5Value8CZStringESt4pairIKS2_S1_ESt10_Select1stIS5_ESt4lessIS2_ESaIS5_EE5beginEv
FN:682,_ZNSt8_Rb_treeISsSsSt9_IdentityISsESt4lessISsESaISsEE5beginEv
FN:689,_ZNKSt8_Rb_treeIN4Json5Value8CZStringESt4pairIKS2_S1_ESt10_Select1stIS5_ESt4lessIS2_ESaIS5_EE5beginEv
FN:696,_ZNSt8_Rb_treeIN4Json5Value8CZStringESt4pairIKS2_S1_ESt10_Select1stIS5_ESt4lessIS2_ESaIS5_EE3endEv
FN:696,_ZNSt8_Rb_treeISsSsSt9_IdentityISsESt4lessISsESaISsEE3endEv
FN:700,_ZNKSt8_Rb_treeISsSsSt9_IdentityISsESt4lessISsESaISsEE3endEv
FN:700,_ZNKSt8_Rb_treeIN4Json5Value8CZStringESt4pairIKS2_S1_ESt10_Select1stIS5_ESt4lessIS2_ESaIS5_EE3endEv
FN:723,_ZNKSt8_Rb_treeIN4Json5Value8CZStringESt4pairIKS2_S1_ESt10_Select1stIS5_ESt4lessIS2_ESaIS5_EE5emptyEv
FN:727,_ZNKSt8_Rb_treeIN4Json5Value8CZStringESt4pairIKS2_S1_ESt10_Select1stIS5_ESt4lessIS2_ESaIS5_EE4sizeEv
FN:805,_ZNSt8_Rb_treeIN4Json5Value8CZStringESt4pairIKS2_S1_ESt10_Select1stIS5_ESt4lessIS2_ESaIS5_EE5eraseB5cxx11ESt23_Rb_tree_const_iteratorIS5_E
FN:816,_ZNSt8_Rb_treeIN4Json5Value8CZStringESt4pairIKS2_S1_ESt10_Select1stIS5_ESt4lessIS2_ESaIS5_EE5eraseB5cxx11ESt17_Rb_tree_iteratorIS5_E
FN:840,_ZNSt8_Rb_treeIN4Json5Value8CZStringESt4pairIKS2_S1_ESt10_Select1stIS5_ESt4lessIS2_ESaIS5_EE5eraseB5cxx11ESt23_Rb_tree_const_iteratorIS5_ESD_
FN:858,_ZNSt8_Rb_treeIN4Json5Value8CZStringESt4pairIKS2_S1_ESt10_Select1stIS5_ESt4lessIS2_ESaIS5_EE5clearEv
FN:858,_ZNSt8_Rb_treeISsSsSt9_IdentityISsESt4lessISsESaISsEE5clearEv
FN:878,_ZNSt8_Rb_treeIN4Json5Value8CZStringESt4pairIKS2_S1_ESt10_Select1stIS5_ESt4lessIS2_ESaIS5_EE11lower_boundERS4_
FN:907,_ZSteqIN4Json5Value8CZStringESt4pairIKS2_S1_ESt10_Select1stIS5_ESt4lessIS2_ESaIS5_EEbRKSt8_Rb_treeIT_T0_T1_T2_T3_ESJ_
FN:917,_ZStltIN4Json5Value8CZStringESt4pairIKS2_S1_ESt10_Select1stIS5_ESt4lessIS2_ESaIS5_EEbRKSt8_Rb_treeIT_T0_T1_T2_T3_ESJ_
FN:1012,_ZNSt8_Rb_treeIN4Json5Value8CZStringESt4pairIKS2_S1_ESt10_Select1stIS5_ESt4lessIS2_ESaIS5_EE10_M_insert_IRS5_EESt17_Rb_tree_iteratorIS5_EPSt18_Rb_tree_node_baseSH_OT_
FN:1012,_ZNSt8_Rb_treeISsSsSt9_IdentityISsESt4lessISsESaISsEE10_M_insert_ISsEESt17_Rb_tree_iteratorISsEPSt18_Rb_tree_node_baseSA_OT_
FN:1083,_ZNSt8_Rb_treeIN4Json5Value8CZStringESt4pairIKS2_S1_ESt10_Select1stIS5_ESt4lessIS2_ESaIS5_EE7_M_copyEPKSt13_Rb_tree_nodeIS5_EPSD_
FN:1119,_ZNSt8_Rb_treeISsSsSt9_IdentityISsESt4lessISsESaISsEE8_M_eraseEPSt13_Rb_tree_nodeISsE
FN:1119,_ZNSt8_Rb_treeIN4Json5Value8CZStringESt4pairIKS2_S1_ESt10_Select1stIS5_ESt4lessIS2_ESaIS5_EE8_M_eraseEPSt13_Rb_tree_nodeIS5_E
FN:1136,_ZNSt8_Rb_treeIN4Json5Value8CZStringESt4pairIKS2_S1_ESt10_Select1stIS5_ESt4lessIS2_ESaIS5_EE14_M_lower_boundEPSt13_Rb_tree_nodeIS5_ESE_RS4_
FN:1136,_ZNSt8_Rb_treeISsSsSt9_IdentityISsESt4lessISsESaISsEE14_M_lower_boundEPSt13_Rb_tree_nodeISsES8_RKSs
FN:1168,_ZNSt8_Rb_treeIN4Json5Value8CZStringESt4pairIKS2_S1_ESt10_Select1stIS5_ESt4lessIS2_ESaIS5_EE14_M_upper_boundEPSt13_Rb_tree_nodeIS5_ESE_RS4_
FN:1202,_ZNSt8_Rb_treeIN4Json5Value8CZStringESt4pairIKS2_S1_ESt10_Select1stIS5_ESt4lessIS2_ESaIS5_EE11equal_rangeERS4_
FN:1314,_ZNSt8_Rb_treeIN4Json5Value8CZStringESt4pairIKS2_S1_ESt10_Select1stIS5_ESt4lessIS2_ESaIS5_EE24_M_get_insert_unique_posERS4_
FN:1314,_ZNSt8_Rb_treeISsSsSt9_IdentityISsESt4lessISsESaISsEE24_M_get_insert_unique_posERKSs
FN:1368,_ZNSt8_Rb_treeISsSsSt9_IdentityISsESt4lessISsESaISsEE16_M_insert_uniqueISsEESt4pairISt17_Rb_tree_iteratorISsEbEOT_
FN:1411,_ZNSt8_Rb_treeIN4Json5Value8CZStringESt4pairIKS2_S1_ESt10_Select1stIS5_ESt4lessIS2_ESaIS5_EE29_M_get_insert_hint_unique_posESt23_Rb_tree_const_iteratorIS5_ERS4_
FN:1470,_ZNSt8_Rb_treeIN4Json5Value8CZStringESt4pairIKS2_S1_ESt10_Select1stIS5_ESt4lessIS2_ESaIS5_EE17_M_insert_unique_IRS5_EESt17_Rb_tree_iteratorIS5_ESt23_Rb_tree_const_iteratorIS5_EOT_
FN:1568,_ZNSt8_Rb_treeIN4Json5Value8CZStringESt4pairIKS2_S1_ESt10_Select1stIS5_ESt4lessIS2_ESaIS5_EE14_M_insert_nodeEPSt18_Rb_tree_node_baseSD_PSt13_Rb_tree_nodeIS5_E
FN:1666,_ZNSt8_Rb_treeIN4Json5Value8CZStringESt4pairIKS2_S1_ESt10_Select1stIS5_ESt4lessIS2_ESaIS5_EE22_M_emplace_hint_uniqueIIRKSt21piecewise_construct_tSt5tupleIIRS4_EESG_IIEEEEESt17_Rb_tree_iteratorIS5_ESt23_Rb_tree_const_iteratorIS5_EDpOT_
FN:1739,_ZNSt8_Rb_treeIN4Json5Value8CZStringESt4pairIKS2_S1_ESt10_Select1stIS5_ESt4lessIS2_ESaIS5_EE12_M_erase_auxESt23_Rb_tree_const_iteratorIS5_E
FN:1753,_ZNSt8_Rb_treeIN4Json5Value8CZStringESt4pairIKS2_S1_ESt10_Select1stIS5_ESt4lessIS2_ESaIS5_EE12_M_erase_auxESt23_Rb_tree_const_iteratorIS5_ESD_
FN:1766,_ZNSt8_Rb_treeIN4Json5Value8CZStringESt4pairIKS2_S1_ESt10_Select1stIS5_ESt4lessIS2_ESaIS5_EE5eraseERS4_
FN:1789,_ZNSt8_Rb_treeIN4Json5Value8CZStringESt4pairIKS2_S1_ESt10_Select1stIS5_ESt4lessIS2_ESaIS5_EE4findERS4_
FN:1789,_ZNSt8_Rb_treeISsSsSt9_IdentityISsESt4lessISsESaISsEE4findERKSs
FNDA:0,_ZNSt18_Rb_tree_node_base10_S_minimumEPS_
FNDA:0,_ZNSt18_Rb_tree_node_base10_S_maximumEPS_
FNDA:6380,_ZNSt13_Rb_tree_nodeISt4pairIKN4Json5Value8CZStringES2_EED2Ev
FNDA:170,_ZNSt13_Rb_tree_nodeISsED2Ev
FNDA:3640,_ZNSt13_Rb_tree_nodeISt4pairIKN4Json5Value8CZStringES2_EEC2IIRKS5_EEEDpOT_
FNDA:2740,_ZNSt13_Rb_tree_nodeISt4pairIKN4Json5Value8CZStringES2_EEC2IIRS5_EEEDpOT_
FNDA:0,_ZNSt13_Rb_tree_nodeISsEC2IISsEEEDpOT_
FNDA:0,_ZNSt13_Rb_tree_nodeISt4pairIKN4Json5Value8CZStringES2_EEC2IIRKSt21piecewise_construct_tSt5tupleIIRS4_EESB_IIEEEEEDpOT_
FNDA:0,_ZNSt17_Rb_tree_iteratorISt4pairIKN4Json5Value8CZStringES2_EEC2Ev
FNDA:23050,_ZNSt17_Rb_tree_iteratorISt4pairIKN4Json5Value8CZStringES2_EEC2EPSt13_Rb_tree_nodeIS5_E
FNDA:0,_ZNSt17_Rb_tree_iteratorISsEC2EPSt13_Rb_tree_nodeISsE
FNDA:5340,_ZNKSt17_Rb_tree_iteratorISt4pairIKN4Json5Value8CZStringES2_EEdeEv
FNDA:0,_ZNKSt17_Rb_tree_iteratorISt4pairIKN4Json5Value8CZStringES2_EEptEv
FNDA:0,_ZNSt17_Rb_tree_iteratorISt4pairIKN4Json5Value8CZStringES2_EEppEv
FNDA:0,_ZNSt17_Rb_tree_iteratorISsEmmEv
FNDA:0,_ZNSt17_Rb_tree_iteratorISt4pairIKN4Json5Value8CZStringES2_EEmmEv
FNDA:0,_ZNKSt17_Rb_tree_iteratorISsEeqERKS0_
FNDA:2810,_ZNKSt17_Rb_tree_iteratorISt4pairIKN4Json5Value8CZStringES2_EEeqERKS6_
FNDA:4040,_ZNKSt17_Rb_tree_iteratorISt4pairIKN4Json5Value8CZStringES2_EEneERKS6_
FNDA:0,_ZNSt23_Rb_tree_const_iteratorISt4pairIKN4Json5Value8CZStringES2_EEC2EPKSt13_Rb_tree_nodeIS5_E
FNDA:0,_ZNSt23_Rb_tree_const_iteratorISsEC2EPKSt13_Rb_tree_nodeISsE
FNDA:0,_ZNSt23_Rb_tree_const_iteratorISsEC2ERKSt17_Rb_tree_iteratorISsE
FNDA:8210,_ZNSt23_Rb_tree_const_iteratorISt4pairIKN4Json5Value8CZStringES2_EEC2ERKSt17_Rb_tree_iteratorIS5_E
FNDA:2740,_ZNKSt23_Rb_tree_const_iteratorISt4pairIKN4Json5Value8CZStringES2_EE13_M_const_castEv
FNDA:4810,_ZNKSt23_Rb_tree_const_iteratorISt4pairIKN4Json5Value8CZStringES2_EEdeEv
FNDA:940,_ZNSt23_Rb_tree_const_iteratorISt4pairIKN4Json5Value8CZStringES2_EEppEv
FNDA:0,_ZNSt23_Rb_tree_const_iteratorISt4pairIKN4Json5Value8CZStringES2_EEppEi
FNDA:1330,_ZNSt23_Rb_tree_const_iteratorISt4pairIKN4Json5Value8CZStringES2_EEmmEv
FNDA:1600,_ZNKSt23_Rb_tree_const_iteratorISt4pairIKN4Json5Value8CZStringES2_EEeqERKS6_
FNDA:0,_ZNKSt23_Rb_tree_const_iteratorISsEeqERKS0_
FNDA:1410,_ZNKSt23_Rb_tree_const_iteratorISt4pairIKN4Json5Value8CZStringES2_EEneERKS6_
FNDA:12760,_ZNSt8_Rb_treeIN4Json5Value8CZStringESt4pairIKS2_S1_ESt10_Select1stIS5_ESt4lessIS2_ESaIS5_EE21_M_get_Node_allocatorEv
FNDA:170,_ZNSt8_Rb_treeISsSsSt9_IdentityISsESt4lessISsESaISsEE21_M_get_Node_allocatorEv
FNDA:1720,_ZNKSt8_Rb_treeIN4Json5Value8CZStringESt4pairIKS2_S1_ESt10_Select1stIS5_ESt4lessIS2_ESaIS5_EE21_M_get_Node_allocatorEv
FNDA:0,_ZNSt8_Rb_treeISsSsSt9_IdentityISsESt4lessISsESaISsEE11_M_get_nodeEv
FNDA:6380,_ZNSt8_Rb_treeIN4Json5Value8CZStringESt4pairIKS2_S1_ESt10_Select1stIS5_ESt4lessIS2_ESaIS5_EE11_M_get_nodeEv
FNDA:6380,_ZNSt8_Rb_treeIN4Json5Value8CZStringESt4pairIKS2_S1_ESt10_Select1stIS5_ESt4lessIS2_ESaIS5_EE11_M_put_nodeEPSt13_Rb_tree_nodeIS5_E
FNDA:170,_ZNSt8_Rb_treeISsSsSt9_IdentityISsESt4lessISsESaISsEE11_M_put_nodeEPSt13_Rb_tree_nodeISsE
FNDA:3640,_ZNSt8_Rb_treeIN4Json5Value8CZStringESt4pairIKS2_S1_ESt10_Select1stIS5_ESt4lessIS2_ESaIS5_EE14_M_create_nodeIIRKS5_EEEPSt13_Rb_tree_nodeIS5_EDpOT_
FNDA:2740,_ZNSt8_Rb_treeIN4Json5Value8CZStringESt4pairIKS2_S1_ESt10_Select1stIS5_ESt4lessIS2_ESaIS5_EE14_M_create_nodeIIRS5_EEEPSt13_Rb_tree_nodeIS5_EDpOT_
FNDA:0,_ZNSt8_Rb_treeISsSsSt9_IdentityISsESt4lessISsESaISsEE14_M_create_nodeIISsEEEPSt13_Rb_tree_nodeISsEDpOT_
FNDA:0,_ZNSt8_Rb_treeIN4Json5Value8CZStringESt4pairIKS2_S1_ESt10_Select1stIS5_ESt4lessIS2_ESaIS5_EE14_M_create_nodeIIRKSt21piecewise_construct_tSt5tupleIIRS4_EESG_IIEEEEEPSt13_Rb_tree_nodeIS5_EDpOT_
FNDA:6380,_ZNSt8_Rb_treeIN4Json5Value8CZStringESt4pairIKS2_S1_ESt10_Select1stIS5_ESt4lessIS2_ESaIS5_EE15_M_destroy_nodeEPSt13_Rb_tree_nodeIS5_E
FNDA:170,_ZNSt8_Rb_treeISsSsSt9_IdentityISsESt4lessISsESaISsEE15_M_destroy_nodeEPSt13_Rb_tree_nodeISsE
FNDA:3640,_ZNSt8_Rb_treeIN4Json5Value8CZStringESt4pairIKS2_S1_ESt10_Select1stIS5_ESt4lessIS2_ESaIS5_EE13_M_clone_nodeEPKSt13_Rb_tree_nodeIS5_E
FNDA:3200,_ZNSt8_Rb_treeIN4Json5Value8CZStringESt4pairIKS2_S1_ESt10_Select1stIS5_ESt4lessIS2_ESaIS5_EE13_Rb_tree_implIS9_Lb1EED2Ev
FNDA:10,_ZNSt8_Rb_treeISsSsSt9_IdentityISsESt4lessISsESaISsEE13_Rb_tree_implIS3_Lb1EED2Ev
FNDA:1480,_ZNSt8_Rb_treeIN4Json5Value8CZStringESt4pairIKS2_S1_ESt10_Select1stIS5_ESt4lessIS2_ESaIS5_EE13_Rb_tree_implIS9_Lb1EEC2Ev
FNDA:0,_ZNSt8_Rb_treeISsSsSt9_IdentityISsESt4lessISsESaISsEE13_Rb_tree_implIS3_Lb1EEC2Ev
FNDA:1720,_ZNSt8_Rb_treeIN4Json5Value8CZStringESt4pairIKS2_S1_ESt10_Select1stIS5_ESt4lessIS2_ESaIS5_EE13_Rb_tree_implIS9_Lb1EEC2ERKS9_RKSaISt13_Rb_tree_nodeIS5_EE
FNDA:3200,_ZNSt8_Rb_treeIN4Json5Value8CZStringESt4pairIKS2_S1_ESt10_Select1stIS5_ESt4lessIS2_ESaIS5_EE13_Rb_tree_implIS9_Lb1EE13_M_initializeEv
FNDA:0,_ZNSt8_Rb_treeISsSsSt9_IdentityISsESt4lessISsESaISsEE13_Rb_tree_implIS3_Lb1EE13_M_initializeEv
FNDA:5130,_ZNSt8_Rb_treeIN4Json5Value8CZStringESt4pairIKS2_S1_ESt10_Select1stIS5_ESt4lessIS2_ESaIS5_EE7_M_rootEv
FNDA:0,_ZNSt8_Rb_treeISsSsSt9_IdentityISsESt4lessISsESaISsEE7_M_rootEv
FNDA:1720,_ZNKSt8_Rb_treeIN4Json5Value8CZStringESt4pairIKS2_S1_ESt10_Select1stIS5_ESt4lessIS2_ESaIS5_EE7_M_rootEv
FNDA:1710,_ZNSt8_Rb_treeIN4Json5Value8CZStringESt4pairIKS2_S1_ESt10_Select1stIS5_ESt4lessIS2_ESaIS5_EE11_M_leftmostEv
FNDA:0,_ZNSt8_Rb_treeISsSsSt9_IdentityISsESt4lessISsESaISsEE11_M_leftmostEv
FNDA:4770,_ZNSt8_Rb_treeIN4Json5Value8CZStringESt4pairIKS2_S1_ESt10_Select1stIS5_ESt4lessIS2_ESaIS5_EE12_M_rightmostEv
FNDA:0,_ZNSt8_Rb_treeISsSsSt9_IdentityISsESt4lessISsESaISsEE12_M_rightmostEv
FNDA:10050,_ZNSt8_Rb_treeIN4Json5Value8CZStringESt4pairIKS2_S1_ESt10_Select1stIS5_ESt4lessIS2_ESaIS5_EE8_M_beginEv
FNDA:10,_ZNSt8_Rb_treeISsSsSt9_IdentityISsESt4lessISsESaISsEE8_M_beginEv
FNDA:1710,_ZNKSt8_Rb_treeIN4Json5Value8CZStringESt4pairIKS2_S1_ESt10_Select1stIS5_ESt4lessIS2_ESaIS5_EE8_M_beginEv
FNDA:14040,_ZNSt8_Rb_treeIN4Json5Value8CZStringESt4pairIKS2_S1_ESt10_Select1stIS5_ESt4lessIS2_ESaIS5_EE6_M_endEv
FNDA:0,_ZNSt8_Rb_treeISsSsSt9_IdentityISsESt4lessISsESaISsEE6_M_endEv
FNDA:0,_ZNSt8_Rb_treeISsSsSt9_IdentityISsESt4lessISsESaISsEE8_S_valueEPKSt13_Rb_tree_nodeISsE
FNDA:7190,_ZNSt8_Rb_treeIN4Json5Value8CZStringESt4pairIKS2_S1_ESt10_Select1stIS5_ESt4lessIS2_ESaIS5_EE8_S_valueEPKSt13_Rb_tree_nodeIS5_E
FNDA:0,_ZNSt8_Rb_treeISsSsSt9_IdentityISsESt4lessISsESaISsEE6_S_keyEPKSt13_Rb_tree_nodeISsE
FNDA:7190,_ZNSt8_Rb_treeIN4Json5Value8CZStringESt4pairIKS2_S1_ESt10_Select1stIS5_ESt4lessIS2_ESaIS5_EE6_S_keyEPKSt13_Rb_tree_nodeIS5_E
FNDA:9630,_ZNSt8_Rb_treeIN4Json5Value8CZStringESt4pairIKS2_S1_ESt10_Select1stIS5_ESt4lessIS2_ESaIS5_EE7_S_leftEPSt18_Rb_tree_node_base
FNDA:170,_ZNSt8_Rb_treeISsSsSt9_IdentityISsESt4lessISsESaISsEE7_S_leftEPSt18_Rb_tree_node_base
FNDA:3640,_ZNSt8_Rb_treeIN4Json5Value8CZStringESt4pairIKS2_S1_ESt10_Select1stIS5_ESt4lessIS2_ESaIS5_EE7_S_leftEPKSt18_Rb_tree_node_base
FNDA:10320,_ZNSt8_Rb_treeIN4Json5Value8CZStringESt4pairIKS2_S1_ESt10_Select1stIS5_ESt4lessIS2_ESaIS5_EE8_S_rightEPSt18_Rb_tree_node_base
FNDA:170,_ZNSt8_Rb_treeISsSsSt9_IdentityISsESt4lessISsESaISsEE8_S_rightEPSt18_Rb_tree_node_base
FNDA:1730,_ZNSt8_Rb_treeIN4Json5Value8CZStringESt4pairIKS2_S1_ESt10_Select1stIS5_ESt4lessIS2_ESaIS5_EE8_S_rightEPKSt18_Rb_tree_node_base
FNDA:4660,_ZNSt8_Rb_treeIN4Json5Value8CZStringESt4pairIKS2_S1_ESt10_Select1stIS5_ESt4lessIS2_ESaIS5_EE8_S_valueEPKSt18_Rb_tree_node_base
FNDA:0,_ZNSt8_Rb_treeISsSsSt9_IdentityISsESt4lessISsESaISsEE8_S_valueEPKSt18_Rb_tree_node_base
FNDA:4660,_ZNSt8_Rb_treeIN4Json5Value8CZStringESt4pairIKS2_S1_ESt10_Select1stIS5_ESt4lessIS2_ESaIS5_EE6_S_keyEPKSt18_Rb_tree_node_base
FNDA:0,_ZNSt8_Rb_treeISsSsSt9_IdentityISsESt4lessISsESaISsEE6_S_keyEPKSt18_Rb_tree_node_base
FNDA:1710,_ZNSt8_Rb_treeIN4Json5Value8CZStringESt4pairIKS2_S1_ESt10_Select1stIS5_ESt4lessIS2_ESaIS5_EE10_S_minimumEPSt18_Rb_tree_node_base
FNDA:1710,_ZNSt8_Rb_treeIN4Json5Value8CZStringESt4pairIKS2_S1_ESt10_Select1stIS5_ESt4lessIS2_ESaIS5_EE10_S_maximumEPSt18_Rb_tree_node_base
FNDA:1480,_ZNSt8_Rb_treeIN4Json5Value8CZStringESt4pairIKS2_S1_ESt10_Select1stIS5_ESt4lessIS2_ESaIS5_EEC2Ev
FNDA:0,_ZNSt8_Rb_treeISsSsSt9_IdentityISsESt4lessISsESaISsEEC2Ev
FNDA:1720,_ZNSt8_Rb_treeIN4Json5Value8CZStringESt4pairIKS2_S1_ESt10_Select1stIS5_ESt4lessIS2_ESaIS5_EEC2ERKSB_
FNDA:3200,_ZNSt8_Rb_treeIN4Json5Value8CZStringESt4pairIKS2_S1_ESt10_Select1stIS5_ESt4lessIS2_ESaIS5_EED2Ev
FNDA:10,_ZNSt8_Rb_treeISsSsSt9_IdentityISsESt4lessISsESaISsEED2Ev
FNDA:0,_ZNKSt8_Rb_treeIN4Json5Value8CZStringESt4pairIKS2_S1_ESt10_Select1stIS5_ESt4lessIS2_ESaIS5_EE8key_compEv
FNDA:0,_ZNSt8_Rb_treeISsSsSt9_IdentityISsESt4lessISsESaISsEE5beginEv
FNDA:1680,_ZNSt8_Rb_treeIN4Json5Value8CZStringESt4pairIKS2_S1_ESt10_Select1stIS5_ESt4lessIS2_ESaIS5_EE5beginEv
FNDA:0,_ZNKSt8_Rb_treeIN4Json5Value8CZStringESt4pairIKS2_S1_ESt10_Select1stIS5_ESt4lessIS2_ESaIS5_EE5beginEv
FNDA:0,_ZNSt8_Rb_treeISsSsSt9_IdentityISsESt4lessISsESaISsEE3endEv
FNDA:9040,_ZNSt8_Rb_treeIN4Json5Value8CZStringESt4pairIKS2_S1_ESt10_Select1stIS5_ESt4lessIS2_ESaIS5_EE3endEv
FNDA:0,_ZNKSt8_Rb_treeIN4Json5Value8CZStringESt4pairIKS2_S1_ESt10_Select1stIS5_ESt4lessIS2_ESaIS5_EE3endEv
FNDA:0,_ZNKSt8_Rb_treeISsSsSt9_IdentityISsESt4lessISsESaISsEE3endEv
FNDA:1480,_ZNKSt8_Rb_treeIN4Json5Value8CZStringESt4pairIKS2_S1_ESt10_Select1stIS5_ESt4lessIS2_ESaIS5_EE5emptyEv
FNDA:3210,_ZNKSt8_Rb_treeIN4Json5Value8CZStringESt4pairIKS2_S1_ESt10_Select1stIS5_ESt4lessIS2_ESaIS5_EE4sizeEv
FNDA:0,_ZNSt8_Rb_treeIN4Json5Value8CZStringESt4pairIKS2_S1_ESt10_Select1stIS5_ESt4lessIS2_ESaIS5_EE5eraseB5cxx11ESt23_Rb_tree_const_iteratorIS5_E
FNDA:0,_ZNSt8_Rb_treeIN4Json5Value8CZStringESt4pairIKS2_S1_ESt10_Select1stIS5_ESt4lessIS2_ESaIS5_EE5eraseB5cxx11ESt17_Rb_tree_iteratorIS5_E
FNDA:0,_ZNSt8_Rb_treeIN4Json5Value8CZStringESt4pairIKS2_S1_ESt10_Select1stIS5_ESt4lessIS2_ESaIS5_EE5eraseB5cxx11ESt23_Rb_tree_const_iteratorIS5_ESD_
FNDA:0,_ZNSt8_Rb_treeIN4Json5Value8CZStringESt4pairIKS2_S1_ESt10_Select1stIS5_ESt4lessIS2_ESaIS5_EE5clearEv
FNDA:0,_ZNSt8_Rb_treeISsSsSt9_IdentityISsESt4lessISsESaISsEE5clearEv
FNDA:4040,_ZNSt8_Rb_treeIN4Json5Value8CZStringESt4pairIKS2_S1_ESt10_Select1stIS5_ESt4lessIS2_ESaIS5_EE11lower_boundERS4_
FNDA:0,_ZSteqIN4Json5Value8CZStringESt4pairIKS2_S1_ESt10_Select1stIS5_ESt4lessIS2_ESaIS5_EEbRKSt8_Rb_treeIT_T0_T1_T2_T3_ESJ_
FNDA:0,_ZStltIN4Json5Value8CZStringESt4pairIKS2_S1_ESt10_Select1stIS5_ESt4lessIS2_ESaIS5_EEbRKSt8_Rb_treeIT_T0_T1_T2_T3_ESJ_
FNDA:2740,_ZNSt8_Rb_treeIN4Json5Value8CZStringESt4pairIKS2_S1_ESt10_Select1stIS5_ESt4lessIS2_ESaIS5_EE10_M_insert_IRS5_EESt17_Rb_tree_iteratorIS5_EPSt18_Rb_tree_node_baseSH_OT_
FNDA:0,_ZNSt8_Rb_treeISsSsSt9_IdentityISsESt4lessISsESaISsEE10_M_insert_ISsEESt17_Rb_tree_iteratorISsEPSt18_Rb_tree_node_baseSA_OT_
FNDA:3440,_ZNSt8_Rb_treeIN4Json5Value8CZStringESt4pairIKS2_S1_ESt10_Select1stIS5_ESt4lessIS2_ESaIS5_EE7_M_copyEPKSt13_Rb_tree_nodeIS5_EPSD_
FNDA:9580,_ZNSt8_Rb_treeIN4Json5Value8CZStringESt4pairIKS2_S1_ESt10_Select1stIS5_ESt4lessIS2_ESaIS5_EE8_M_eraseEPSt13_Rb_tree_nodeIS5_E
FNDA:350,_ZNSt8_Rb_treeISsSsSt9_IdentityISsESt4lessISsESaISsEE8_M_eraseEPSt13_Rb_tree_nodeISsE
FNDA:5640,_ZNSt8_Rb_treeIN4Json5Value8CZStringESt4pairIKS2_S1_ESt10_Select1stIS5_ESt4lessIS2_ESaIS5_EE14_M_lower_boundEPSt13_Rb_tree_nodeIS5_ESE_RS4_
FNDA:0,_ZNSt8_Rb_treeISsSsSt9_IdentityISsESt4lessISsESaISsEE14_M_lower_boundEPSt13_Rb_tree_nodeISsES8_RKSs
FNDA:0,_ZNSt8_Rb_treeIN4Json5Value8CZStringESt4pairIKS2_S1_ESt10_Select1stIS5_ESt4lessIS2_ESaIS5_EE14_M_upper_boundEPSt13_Rb_tree_nodeIS5_ESE_RS4_
FNDA:0,_ZNSt8_Rb_treeIN4Json5Value8CZStringESt4pairIKS2_S1_ESt10_Select1stIS5_ESt4lessIS2_ESaIS5_EE11equal_rangeERS4_
FNDA:1210,_ZNSt8_Rb_treeIN4Json5Value8CZStringESt4pairIKS2_S1_ESt10_Select1stIS5_ESt4lessIS2_ESaIS5_EE24_M_get_insert_unique_posERS4_
FNDA:0,_ZNSt8_Rb_treeISsSsSt9_IdentityISsESt4lessISsESaISsEE24_M_get_insert_unique_posERKSs
FNDA:0,_ZNSt8_Rb_treeISsSsSt9_IdentityISsESt4lessISsESaISsEE16_M_insert_uniqueISsEESt4pairISt17_Rb_tree_iteratorISsEbEOT_
FNDA:2740,_ZNSt8_Rb_treeIN4Json5Value8CZStringESt4pairIKS2_S1_ESt10_Select1stIS5_ESt4lessIS2_ESaIS5_EE29_M_get_insert_hint_unique_posESt23_Rb_tree_const_iteratorIS5_ERS4_
FNDA:2740,_ZNSt8_Rb_treeIN4Json5Value8CZStringESt4pairIKS2_S1_ESt10_Select1stIS5_ESt4lessIS2_ESaIS5_EE17_M_insert_unique_IRS5_EESt17_Rb_tree_iteratorIS5_ESt23_Rb_tree_const_iteratorIS5_EOT_
FNDA:0,_ZNSt8_Rb_treeIN4Json5Value8CZStringESt4pairIKS2_S1_ESt10_Select1stIS5_ESt4lessIS2_ESaIS5_EE14_M_insert_nodeEPSt18_Rb_tree_node_baseSD_PSt13_Rb_tree_nodeIS5_E
FNDA:0,_ZNSt8_Rb_treeIN4Json5Value8CZStringESt4pairIKS2_S1_ESt10_Select1stIS5_ESt4lessIS2_ESaIS5_EE22_M_emplace_hint_uniqueIIRKSt21piecewise_construct_tSt5tupleIIRS4_EESG_IIEEEEESt17_Rb_tree_iteratorIS5_ESt23_Rb_tree_const_iteratorIS5_EDpOT_
FNDA:0,_ZNSt8_Rb_treeIN4Json5Value8CZStringESt4pairIKS2_S1_ESt10_Select1stIS5_ESt4lessIS2_ESaIS5_EE12_M_erase_auxESt23_Rb_tree_const_iteratorIS5_E
FNDA:0,_ZNSt8_Rb_treeIN4Json5Value8CZStringESt4pairIKS2_S1_ESt10_Select1stIS5_ESt4lessIS2_ESaIS5_EE12_M_erase_auxESt23_Rb_tree_const_iteratorIS5_ESD_
FNDA:0,_ZNSt8_Rb_treeIN4Json5Value8CZStringESt4pairIKS2_S1_ESt10_Select1stIS5_ESt4lessIS2_ESaIS5_EE5eraseERS4_
FNDA:1600,_ZNSt8_Rb_treeIN4Json5Value8CZStringESt4pairIKS2_S1_ESt10_Select1stIS5_ESt4lessIS2_ESaIS5_EE4findERS4_
FNDA:0,_ZNSt8_Rb_treeISsSsSt9_IdentityISsESt4lessISsESaISsEE4findERKSs
FNF:124
FNH:69
DA:102,0
DA:104,0
DA:105,0
DA:116,0
DA:118,0
DA:119,0
DA:131,6550
DA:138,6380
DA:140,6380
DA:170,0
DA:171,0
DA:174,23050
DA:175,23050
DA:178,5340
DA:179,5340
DA:182,0
DA:184,0
DA:187,0
DA:189,0
DA:190,0
DA:202,0
DA:204,0
DA:205,0
DA:217,2810
DA:218,2810
DA:221,4040
DA:222,4040
DA:247,0
DA:248,0
DA:250,8210
DA:251,8210
DA:254,2740
DA:256,2740
DA:259,4810
DA:260,4810
DA:268,940
DA:270,940
DA:271,940
DA:275,0
DA:277,0
DA:278,0
DA:279,0
DA:283,1330
DA:285,1330
DA:286,1330
DA:298,1600
DA:299,1600
DA:302,1410
DA:303,1410
DA:356,12930
DA:357,12930
DA:360,1720
DA:361,1720
DA:369,6380
DA:370,6380
DA:373,6550
DA:374,6550
DA:401,6380
DA:403,6380
DA:406,6380
DA:407,6380
DA:408,6380
DA:410,=====
DA:412,=====
DA:413,=====
DA:415,6380
DA:419,6550
DA:421,6550
DA:422,6550
DA:423,6550
DA:427,3640
DA:429,3640
DA:430,3640
DA:431,3640
DA:432,3640
DA:433,3640
DA:439,3210
DA:445,1480
DA:447,1480
DA:448,1480
DA:450,1720
DA:452,1720
DA:453,1720
DA:464,3200
DA:466,3200
DA:467,3200
DA:468,3200
DA:469,3200
DA:470,3200
DA:477,5130
DA:478,5130
DA:481,1720
DA:482,1720
DA:485,1710
DA:486,1710
DA:493,4770
DA:494,4770
DA:501,10060
DA:502,10060
DA:505,1710
DA:508,1710
DA:512,14040
DA:513,14040
DA:520,7190
DA:521,7190
DA:524,7190
DA:525,7190
DA:528,9800
DA:529,9800
DA:532,3640
DA:533,3640
DA:536,10490
DA:537,10490
DA:540,1730
DA:541,1730
DA:544,4660
DA:545,4660
DA:548,4660
DA:549,4660
DA:552,1710
DA:553,1710
DA:560,1710
DA:561,1710
DA:648,1480
DA:654,1720
DA:655,1720
DA:657,1720
DA:659,1710
DA:660,1710
DA:661,1710
DA:662,1710
DA:664,1720
DA:670,3210
DA:671,3210
DA:678,0
DA:679,0
DA:682,1680
DA:685,1680
DA:689,0
DA:692,0
DA:696,9040
DA:697,9040
DA:700,0
DA:703,0
DA:723,1480
DA:724,1480
DA:727,3210
DA:728,3210
DA:805,0
DA:807,0
DA:808,0
DA:809,0
DA:810,0
DA:816,0
DA:818,0
DA:819,0
DA:820,0
DA:821,0
DA:840,0
DA:842,0
DA:843,0
DA:858,0
DA:860,0
DA:861,0
DA:862,0
DA:863,0
DA:864,0
DA:865,0
DA:878,4040
DA:879,4040
DA:907,0
DA:910,0
DA:911,0
DA:917,0
DA:921,0
DA:1012,2740
DA:1019,2740
DA:1020,5800
DA:1021,8220
DA:1023,2740
DA:1025,2740
DA:1026,2740
DA:1027,2740
DA:1028,2740
DA:1083,3440
DA:1087,3440
DA:1088,3440
DA:1092,3440
DA:1093,1730
DA:1094,3440
DA:1095,3440
DA:1097,7080
DA:1099,200
DA:1100,200
DA:1101,200
DA:1102,200
DA:1103,0
DA:1104,200
DA:1105,200
DA:1108,=====
DA:1110,=====
DA:1111,=====
DA:1113,3440
DA:1119,9930
DA:1123,26410
DA:1125,6550
DA:1126,6550
DA:1127,6550
DA:1128,6550
DA:1130,9930
DA:1136,5640
DA:1140,18470
DA:1141,7190
DA:1142,3250
DA:1144,3940
DA:1145,5640
DA:1168,0
DA:1172,0
DA:1173,0
DA:1174,0
DA:1176,0
DA:1177,0
DA:1202,0
DA:1205,0
DA:1206,0
DA:1207,0
DA:1209,0
DA:1210,0
DA:1211,0
DA:1212,0
DA:1215,0
DA:1216,0
DA:1217,0
DA:1220,0
DA:1224,0
DA:1314,1210
DA:1318,1210
DA:1319,1210
DA:1320,1210
DA:1321,2420
DA:1323,0
DA:1324,0
DA:1325,0
DA:1327,1210
DA:1328,1210
DA:1330,1210
DA:1331,1210
DA:1333,0
DA:1335,0
DA:1336,0
DA:1337,0
DA:1368,0
DA:1377,0
DA:1379,0
DA:1381,0
DA:1382,0
DA:1384,0
DA:1411,2740
DA:1415,2740
DA:1419,2740
DA:1421,4270
DA:1422,1530
DA:1423,1530
DA:1425,1210
DA:1427,0
DA:1430,0
DA:1431,0
DA:1432,0
DA:1433,0
DA:1435,0
DA:1436,0
DA:1438,0
DA:1441,0
DA:1443,0
DA:1446,0
DA:1447,0
DA:1448,0
DA:1449,0
DA:1451,0
DA:1452,0
DA:1454,0
DA:1457,0
DA:1461,0
DA:1470,2740
DA:1478,2740
DA:1480,2740
DA:1482,2740
DA:1483,0
DA:1568,0
DA:1571,0
DA:1572,0
DA:1573,0
DA:1575,0
DA:1576,0
DA:1577,0
DA:1578,0
DA:1666,0
DA:1669,0
DA:1673,0
DA:1675,0
DA:1676,0
DA:1678,0
DA:1679,0
DA:1681,=====
DA:1683,=====
DA:1684,=====
DA:1739,0
DA:1745,0
DA:1746,0
DA:1747,0
DA:1748,0
DA:1753,0
DA:1756,0
DA:1757,0
DA:1759,0
DA:1760,0
DA:1761,0
DA:1766,0
DA:1769,0
DA:1770,0
DA:1771,0
DA:1772,0
DA:1789,1600
DA:1792,1600
DA:1793,6400
DA:1794,1600
DA:1795,8000
LF:327
LH:181
end_of_record
SF:/usr/include/c++/4.8/bits/stl_uninitialized.h
FN:68,_ZNSt20__uninitialized_copyILb0EE13__uninit_copyISt13move_iteratorIPN4Json12PathArgumentEES5_EET0_T_S8_S7_
FN:68,_ZNSt20__uninitialized_copyILb0EE13__uninit_copyISt13move_iteratorIPSsES3_EET0_T_S6_S5_
FN:68,_ZNSt20__uninitialized_copyILb0EE13__uninit_copyISt13move_iteratorIPN4Json6Reader15StructuredErrorEES6_EET0_T_S9_S8_
FN:68,_ZNSt20__uninitialized_copyILb0EE13__uninit_copyISt13move_iteratorIPN4Json9OurReader15StructuredErrorEES6_EET0_T_S9_S8_
FN:91,_ZNSt20__uninitialized_copyILb1EE13__uninit_copyISt13move_iteratorIPPKN4Json12PathArgumentEES7_EET0_T_SA_S9_
FN:107,_ZSt18uninitialized_copyISt13move_iteratorIPN4Json9OurReader15StructuredErrorEES4_ET0_T_S7_S6_
FN:107,_ZSt18uninitialized_copyISt13move_iteratorIPN4Json6Reader15StructuredErrorEES4_ET0_T_S7_S6_
FN:107,_ZSt18uninitialized_copyISt13move_iteratorIPSsES1_ET0_T_S4_S3_
FN:107,_ZSt18uninitialized_copyISt13move_iteratorIPN4Json12PathArgumentEES3_ET0_T_S6_S5_
FN:107,_ZSt18uninitialized_copyISt13move_iteratorIPPKN4Json12PathArgumentEES5_ET0_T_S8_S7_
FN:256,_ZSt22__uninitialized_copy_aISt13move_iteratorIPN4Json9OurReader15StructuredErrorEES4_S3_ET0_T_S7_S6_RSaIT1_E
FN:256,_ZSt22__uninitialized_copy_aISt13move_iteratorIPN4Json6Reader15StructuredErrorEES4_S3_ET0_T_S7_S6_RSaIT1_E
FN:256,_ZSt22__uninitialized_copy_aISt13move_iteratorIPN4Json12PathArgumentEES3_S2_ET0_T_S6_S5_RSaIT1_E
FN:256,_ZSt22__uninitialized_copy_aISt13move_iteratorIPPKN4Json12PathArgumentEES5_S4_ET0_T_S8_S7_RSaIT1_E
FN:256,_ZSt22__uninitialized_copy_aISt13move_iteratorIPSsES1_SsET0_T_S4_S3_RSaIT1_E
FN:274,_ZSt34__uninitialized_move_if_noexcept_aIPSsS0_SaISsEET0_T_S3_S2_RT1_
FN:274,_ZSt34__uninitialized_move_if_noexcept_aIPPKN4Json12PathArgumentES4_SaIS3_EET0_T_S7_S6_RT1_
FN:274,_ZSt34__uninitialized_move_if_noexcept_aIPN4Json6Reader15StructuredErrorES3_SaIS2_EET0_T_S6_S5_RT1_
FN:274,_ZSt34__uninitialized_move_if_noexcept_aIPN4Json12PathArgumentES2_SaIS1_EET0_T_S5_S4_RT1_
FN:274,_ZSt34__uninitialized_move_if_noexcept_aIPN4Json9OurReader15StructuredErrorES3_SaIS2_EET0_T_S6_S5_RT1_
FN:454,_ZNSt25__uninitialized_default_1ILb0EE16__uninit_defaultISt15_Deque_iteratorIN4Json6Reader9ErrorInfoERS5_PS5_EEEvT_S9_
FN:454,_ZNSt25__uninitialized_default_1ILb0EE16__uninit_defaultISt15_Deque_iteratorIN4Json9OurReader9ErrorInfoERS5_PS5_EEEvT_S9_
FN:524,_ZSt23__uninitialized_defaultISt15_Deque_iteratorIN4Json9OurReader9ErrorInfoERS3_PS3_EEvT_S7_
FN:524,_ZSt23__uninitialized_defaultISt15_Deque_iteratorIN4Json6Reader9ErrorInfoERS3_PS3_EEvT_S7_
FN:573,_ZSt25__uninitialized_default_aISt15_Deque_iteratorIN4Json6Reader9ErrorInfoERS3_PS3_ES3_EvT_S7_RSaIT0_E
FN:573,_ZSt25__uninitialized_default_aISt15_Deque_iteratorIN4Json9OurReader9ErrorInfoERS3_PS3_ES3_EvT_S7_RSaIT0_E
FNDA:0,_ZNSt20__uninitialized_copyILb0EE13__uninit_copyISt13move_iteratorIPN4Json12PathArgumentEES5_EET0_T_S8_S7_
FNDA:0,_ZNSt20__uninitialized_copyILb0EE13__uninit_copyISt13move_iteratorIPN4Json9OurReader15StructuredErrorEES6_EET0_T_S9_S8_
FNDA:0,_ZNSt20__uninitialized_copyILb0EE13__uninit_copyISt13move_iteratorIPN4Json6Reader15StructuredErrorEES6_EET0_T_S9_S8_
FNDA:4810,_ZNSt20__uninitialized_copyILb0EE13__uninit_copyISt13move_iteratorIPSsES3_EET0_T_S6_S5_
FNDA:0,_ZNSt20__uninitialized_copyILb1EE13__uninit_copyISt13move_iteratorIPPKN4Json12PathArgumentEES7_EET0_T_SA_S9_
FNDA:0,_ZSt18uninitialized_copyISt13move_iteratorIPPKN4Json12PathArgumentEES5_ET0_T_S8_S7_
FNDA:0,_ZSt18uninitialized_copyISt13move_iteratorIPN4Json12PathArgumentEES3_ET0_T_S6_S5_
FNDA:0,_ZSt18uninitialized_copyISt13move_iteratorIPN4Json9OurReader15StructuredErrorEES4_ET0_T_S7_S6_
FNDA:0,_ZSt18uninitialized_copyISt13move_iteratorIPN4Json6Reader15StructuredErrorEES4_ET0_T_S7_S6_
FNDA:4810,_ZSt18uninitialized_copyISt13move_iteratorIPSsES1_ET0_T_S4_S3_
FNDA:0,_ZSt22__uninitialized_copy_aISt13move_iteratorIPPKN4Json12PathArgumentEES5_S4_ET0_T_S8_S7_RSaIT1_E
FNDA:0,_ZSt22__uninitialized_copy_aISt13move_iteratorIPN4Json12PathArgumentEES3_S2_ET0_T_S6_S5_RSaIT1_E
FNDA:0,_ZSt22__uninitialized_copy_aISt13move_iteratorIPN4Json9OurReader15StructuredErrorEES4_S3_ET0_T_S7_S6_RSaIT1_E
FNDA:0,_ZSt22__uninitialized_copy_aISt13move_iteratorIPN4Json6Reader15StructuredErrorEES4_S3_ET0_T_S7_S6_RSaIT1_E
FNDA:4810,_ZSt22__uninitialized_copy_aISt13move_iteratorIPSsES1_SsET0_T_S4_S3_RSaIT1_E
FNDA:0,_ZSt34__uninitialized_move_if_noexcept_aIPPKN4Json12PathArgumentES4_SaIS3_EET0_T_S7_S6_RT1_
FNDA:4340,_ZSt34__uninitialized_move_if_noexcept_aIPSsS0_SaISsEET0_T_S3_S2_RT1_
FNDA:0,_ZSt34__uninitialized_move_if_noexcept_aIPN4Json12PathArgumentES2_SaIS1_EET0_T_S5_S4_RT1_
FNDA:0,_ZSt34__uninitialized_move_if_noexcept_aIPN4Json9OurReader15StructuredErrorES3_SaIS2_EET0_T_S6_S5_RT1_
FNDA:0,_ZSt34__uninitialized_move_if_noexcept_aIPN4Json6Reader15StructuredErrorES3_SaIS2_EET0_T_S6_S5_RT1_
FNDA:0,_ZNSt25__uninitialized_default_1ILb0EE16__uninit_defaultISt15_Deque_iteratorIN4Json9OurReader9ErrorInfoERS5_PS5_EEEvT_S9_
FNDA:0,_ZNSt25__uninitialized_default_1ILb0EE16__uninit_defaultISt15_Deque_iteratorIN4Json6Reader9ErrorInfoERS5_PS5_EEEvT_S9_
FNDA:0,_ZSt23__uninitialized_defaultISt15_Deque_iteratorIN4Json9OurReader9ErrorInfoERS3_PS3_EEvT_S7_
FNDA:0,_ZSt23__uninitialized_defaultISt15_Deque_iteratorIN4Json6Reader9ErrorInfoERS3_PS3_EEvT_S7_
FNDA:0,_ZSt25__uninitialized_default_aISt15_Deque_iteratorIN4Json9OurReader9ErrorInfoERS3_PS3_ES3_EvT_S7_RSaIT0_E
FNDA:0,_ZSt25__uninitialized_default_aISt15_Deque_iteratorIN4Json6Reader9ErrorInfoERS3_PS3_ES3_EvT_S7_RSaIT0_E
FNF:26
FNH:4
DA:68,4810
DA:71,4810
DA:74,14700
DA:75,9890
DA:76,4810
DA:78,=====
DA:80,=====
DA:81,=====
DA:91,0
DA:93,0
DA:107,4810
DA:117,4810
DA:256,4810
DA:258,4810
DA:274,4340
DA:281,4340
DA:454,0
DA:456,0
DA:459,0
DA:460,0
DA:462,=====
DA:464,=====
DA:465,=====
DA:467,0
DA:524,0
DA:530,0
DA:531,0
DA:532,0
DA:573,0
DA:576,0
LF:30
LH:11
end_of_record
SF:/usr/include/c++/4.8/bits/stl_vector.h
FN:79,_ZNSt12_Vector_baseIN4Json12PathArgumentESaIS1_EE12_Vector_implD2Ev
FN:79,_ZNSt12_Vector_baseISsSaISsEE12_Vector_implD2Ev
FN:79,_ZNSt12_Vector_baseIPKN4Json12PathArgumentESaIS3_EE12_Vector_implD2Ev
FN:79,_ZNSt12_Vector_baseIN4Json9OurReader15StructuredErrorESaIS2_EE12_Vector_implD2Ev
FN:79,_ZNSt12_Vector_baseIN4Json6Reader15StructuredErrorESaIS2_EE12_Vector_implD2Ev
FN:86,_ZNSt12_Vector_baseIN4Json12PathArgumentESaIS1_EE12_Vector_implC2Ev
FN:86,_ZNSt12_Vector_baseIN4Json6Reader15StructuredErrorESaIS2_EE12_Vector_implC2Ev
FN:86,_ZNSt12_Vector_baseIN4Json9OurReader15StructuredErrorESaIS2_EE12_Vector_implC2Ev
FN:86,_ZNSt12_Vector_baseIPKN4Json12PathArgumentESaIS3_EE12_Vector_implC2Ev
FN:86,_ZNSt12_Vector_baseISsSaISsEE12_Vector_implC2Ev
FN:95,_ZNSt12_Vector_baseISsSaISsEE12_Vector_implC2EOS0_
FN:101,_ZNSt12_Vector_baseISsSaISsEE12_Vector_impl12_M_swap_dataERS2_
FN:113,_ZNSt12_Vector_baseIN4Json9OurReader15StructuredErrorESaIS2_EE19_M_get_Tp_allocatorEv
FN:113,_ZNSt12_Vector_baseIN4Json12PathArgumentESaIS1_EE19_M_get_Tp_allocatorEv
FN:113,_ZNSt12_Vector_baseISsSaISsEE19_M_get_Tp_allocatorEv
FN:113,_ZNSt12_Vector_baseIPKN4Json12PathArgumentESaIS3_EE19_M_get_Tp_allocatorEv
FN:113,_ZNSt12_Vector_baseIN4Json6Reader15StructuredErrorESaIS2_EE19_M_get_Tp_allocatorEv
FN:117,_ZNKSt12_Vector_baseIPKN4Json12PathArgumentESaIS3_EE19_M_get_Tp_allocatorEv
FN:117,_ZNKSt12_Vector_baseIN4Json12PathArgumentESaIS1_EE19_M_get_Tp_allocatorEv
FN:117,_ZNKSt12_Vector_baseISsSaISsEE19_M_get_Tp_allocatorEv
FN:117,_ZNKSt12_Vector_baseIN4Json6Reader15StructuredErrorESaIS2_EE19_M_get_Tp_allocatorEv
FN:117,_ZNKSt12_Vector_baseIN4Json9OurReader15StructuredErrorESaIS2_EE19_M_get_Tp_allocatorEv
FN:124,_ZNSt12_Vector_baseIN4Json6Reader15StructuredErrorESaIS2_EEC2Ev
FN:124,_ZNSt12_Vector_baseIN4Json9OurReader15StructuredErrorESaIS2_EEC2Ev
FN:124,_ZNSt12_Vector_baseIPKN4Json12PathArgumentESaIS3_EEC2Ev
FN:124,_ZNSt12_Vector_baseISsSaISsEEC2Ev
FN:124,_ZNSt12_Vector_baseIN4Json12PathArgumentESaIS1_EEC2Ev
FN:142,_ZNSt12_Vector_baseISsSaISsEEC2EOS1_
FN:159,_ZNSt12_Vector_baseIPKN4Json12PathArgumentESaIS3_EED2Ev
FN:159,_ZNSt12_Vector_baseIN4Json9OurReader15StructuredErrorESaIS2_EED2Ev
FN:159,_ZNSt12_Vector_baseIN4Json12PathArgumentESaIS1_EED2Ev
FN:159,_ZNSt12_Vector_baseISsSaISsEED2Ev
FN:159,_ZNSt12_Vector_baseIN4Json6Reader15StructuredErrorESaIS2_EED2Ev
FN:167,_ZNSt12_Vector_baseIPKN4Json12PathArgumentESaIS3_EE11_M_allocateEm
FN:167,_ZNSt12_Vector_baseIN4Json12PathArgumentESaIS1_EE11_M_allocateEm
FN:167,_ZNSt12_Vector_baseIN4Json6Reader15StructuredErrorESaIS2_EE11_M_allocateEm
FN:167,_ZNSt12_Vector_baseIN4Json9OurReader15StructuredErrorESaIS2_EE11_M_allocateEm
FN:167,_ZNSt12_Vector_baseISsSaISsEE11_M_allocateEm
FN:171,_ZNSt12_Vector_baseIN4Json6Reader15StructuredErrorESaIS2_EE13_M_deallocateEPS2_m
FN:171,_ZNSt12_Vector_baseIN4Json9OurReader15StructuredErrorESaIS2_EE13_M_deallocateEPS2_m
FN:171,_ZNSt12_Vector_baseIPKN4Json12PathArgumentESaIS3_EE13_M_deallocateEPS3_m
FN:171,_ZNSt12_Vector_baseIN4Json12PathArgumentESaIS1_EE13_M_deallocateEPS1_m
FN:171,_ZNSt12_Vector_baseISsSaISsEE13_M_deallocateEPSsm
FN:248,_ZNSt6vectorIN4Json6Reader15StructuredErrorESaIS2_EEC2Ev
FN:248,_ZNSt6vectorIPKN4Json12PathArgumentESaIS3_EEC2Ev
FN:248,_ZNSt6vectorIN4Json12PathArgumentESaIS1_EEC2Ev
FN:248,_ZNSt6vectorIN4Json9OurReader15StructuredErrorESaIS2_EEC2Ev
FN:248,_ZNSt6vectorISsSaISsEEC2Ev
FN:327,_ZNSt6vectorISsSaISsEEC2EOS1_
FN:414,_ZNSt6vectorIPKN4Json12PathArgumentESaIS3_EED2Ev
FN:414,_ZNSt6vectorIN4Json12PathArgumentESaIS1_EED2Ev
FN:414,_ZNSt6vectorIN4Json6Reader15StructuredErrorESaIS2_EED2Ev
FN:414,_ZNSt6vectorISsSaISsEED2Ev
FN:414,_ZNSt6vectorIN4Json9OurReader15StructuredErrorESaIS2_EED2Ev
FN:538,_ZNSt6vectorISsSaISsEE5beginEv
FN:547,_ZNKSt6vectorIPKN4Json12PathArgumentESaIS3_EE5beginEv
FN:547,_ZNKSt6vectorISsSaISsEE5beginEv
FN:547,_ZNKSt6vectorIN4Json12PathArgumentESaIS1_EE5beginEv
FN:556,_ZNSt6vectorISsSaISsEE3endEv
FN:565,_ZNKSt6vectorIN4Json12PathArgumentESaIS1_EE3endEv
FN:565,_ZNKSt6vectorIPKN4Json12PathArgumentESaIS3_EE3endEv
FN:565,_ZNKSt6vectorISsSaISsEE3endEv
FN:645,_ZNKSt6vectorIN4Json12PathArgumentESaIS1_EE4sizeEv
FN:645,_ZNKSt6vectorIPKN4Json12PathArgumentESaIS3_EE4sizeEv
FN:645,_ZNKSt6vectorIN4Json9OurReader15StructuredErrorESaIS2_EE4sizeEv
FN:645,_ZNKSt6vectorISsSaISsEE4sizeEv
FN:645,_ZNKSt6vectorIN4Json6Reader15StructuredErrorESaIS2_EE4sizeEv
FN:650,_ZNKSt6vectorISsSaISsEE8max_sizeEv
FN:650,_ZNKSt6vectorIN4Json9OurReader15StructuredErrorESaIS2_EE8max_sizeEv
FN:650,_ZNKSt6vectorIPKN4Json12PathArgumentESaIS3_EE8max_sizeEv
FN:650,_ZNKSt6vectorIN4Json12PathArgumentESaIS1_EE8max_sizeEv
FN:650,_ZNKSt6vectorIN4Json6Reader15StructuredErrorESaIS2_EE8max_sizeEv
FN:725,_ZNKSt6vectorISsSaISsEE8capacityEv
FN:734,_ZNKSt6vectorISsSaISsEE5emptyEv
FN:770,_ZNSt6vectorISsSaISsEEixEm
FN:901,_ZNSt6vectorISsSaISsEE9push_backERKSs
FN:901,_ZNSt6vectorIN4Json6Reader15StructuredErrorESaIS2_EE9push_backERKS2_
FN:901,_ZNSt6vectorIN4Json12PathArgumentESaIS1_EE9push_backERKS1_
FN:901,_ZNSt6vectorIN4Json9OurReader15StructuredErrorESaIS2_EE9push_backERKS2_
FN:919,_ZNSt6vectorISsSaISsEE9push_backEOSs
FN:919,_ZNSt6vectorIPKN4Json12PathArgumentESaIS3_EE9push_backEOS3_
FN:919,_ZNSt6vectorIN4Json12PathArgumentESaIS1_EE9push_backEOS1_
FN:1125,_ZNSt6vectorISsSaISsEE5clearEv
FN:1135,_ZNSt6vectorISsSaISsEE20_M_allocate_and_copyISt13move_iteratorIPSsEEES4_mT_S6_
FN:1336,_ZNKSt6vectorIN4Json12PathArgumentESaIS1_EE12_M_check_lenEmPKc
FN:1336,_ZNKSt6vectorIPKN4Json12PathArgumentESaIS3_EE12_M_check_lenEmPKc
FN:1336,_ZNKSt6vectorISsSaISsEE12_M_check_lenEmPKc
FN:1336,_ZNKSt6vectorIN4Json9OurReader15StructuredErrorESaIS2_EE12_M_check_lenEmPKc
FN:1336,_ZNKSt6vectorIN4Json6Reader15StructuredErrorESaIS2_EE12_M_check_lenEmPKc
FN:1350,_ZNSt6vectorISsSaISsEE15_M_erase_at_endEPSs
FNDA:0,_ZNSt12_Vector_baseIPKN4Json12PathArgumentESaIS3_EE12_Vector_implD2Ev
FNDA:0,_ZNSt12_Vector_baseIN4Json12PathArgumentESaIS1_EE12_Vector_implD2Ev
FNDA:0,_ZNSt12_Vector_baseIN4Json9OurReader15StructuredErrorESaIS2_EE12_Vector_implD2Ev
FNDA:0,_ZNSt12_Vector_baseIN4Json6Reader15StructuredErrorESaIS2_EE12_Vector_implD2Ev
FNDA:0,_ZNSt12_Vector_baseISsSaISsEE12_Vector_implD2Ev
FNDA:0,_ZNSt12_Vector_baseIPKN4Json12PathArgumentESaIS3_EE12_Vector_implC2Ev
FNDA:0,_ZNSt12_Vector_baseIN4Json12PathArgumentESaIS1_EE12_Vector_implC2Ev
FNDA:480,_ZNSt12_Vector_baseISsSaISsEE12_Vector_implC2Ev
FNDA:0,_ZNSt12_Vector_baseIN4Json9OurReader15StructuredErrorESaIS2_EE12_Vector_implC2Ev
FNDA:0,_ZNSt12_Vector_baseIN4Json6Reader15StructuredErrorESaIS2_EE12_Vector_implC2Ev
FNDA:470,_ZNSt12_Vector_baseISsSaISsEE12_Vector_implC2EOS0_
FNDA:470,_ZNSt12_Vector_baseISsSaISsEE12_Vector_impl12_M_swap_dataERS2_
FNDA:0,_ZNSt12_Vector_baseIPKN4Json12PathArgumentESaIS3_EE19_M_get_Tp_allocatorEv
FNDA:0,_ZNSt12_Vector_baseIN4Json12PathArgumentESaIS1_EE19_M_get_Tp_allocatorEv
FNDA:0,_ZNSt12_Vector_baseIN4Json9OurReader15StructuredErrorESaIS2_EE19_M_get_Tp_allocatorEv
FNDA:0,_ZNSt12_Vector_baseIN4Json6Reader15StructuredErrorESaIS2_EE19_M_get_Tp_allocatorEv
FNDA:0,_ZNSt12_Vector_baseISsSaISsEE19_M_get_Tp_allocatorEv
FNDA:0,_ZNKSt12_Vector_baseIPKN4Json12PathArgumentESaIS3_EE19_M_get_Tp_allocatorEv
FNDA:0,_ZNKSt12_Vector_baseIN4Json12PathArgumentESaIS1_EE19_M_get_Tp_allocatorEv
FNDA:0,_ZNKSt12_Vector_baseIN4Json9OurReader15StructuredErrorESaIS2_EE19_M_get_Tp_allocatorEv
FNDA:0,_ZNKSt12_Vector_baseIN4Json6Reader15StructuredErrorESaIS2_EE19_M_get_Tp_allocatorEv
FNDA:9150,_ZNKSt12_Vector_baseISsSaISsEE19_M_get_Tp_allocatorEv
FNDA:0,_ZNSt12_Vector_baseIPKN4Json12PathArgumentESaIS3_EEC2Ev
FNDA:0,_ZNSt12_Vector_baseIN4Json12PathArgumentESaIS1_EEC2Ev
FNDA:480,_ZNSt12_Vector_baseISsSaISsEEC2Ev
FNDA:0,_ZNSt12_Vector_baseIN4Json9OurReader15StructuredErrorESaIS2_EEC2Ev
FNDA:0,_ZNSt12_Vector_baseIN4Json6Reader15StructuredErrorESaIS2_EEC2Ev
FNDA:470,_ZNSt12_Vector_baseISsSaISsEEC2EOS1_
FNDA:0,_ZNSt12_Vector_baseIPKN4Json12PathArgumentESaIS3_EED2Ev
FNDA:0,_ZNSt12_Vector_baseIN4Json12PathArgumentESaIS1_EED2Ev
FNDA:0,_ZNSt12_Vector_baseIN4Json9OurReader15StructuredErrorESaIS2_EED2Ev
FNDA:0,_ZNSt12_Vector_baseIN4Json6Reader15StructuredErrorESaIS2_EED2Ev
FNDA:0,_ZNSt12_Vector_baseISsSaISsEED2Ev
FNDA:0,_ZNSt12_Vector_baseIPKN4Json12PathArgumentESaIS3_EE11_M_allocateEm
FNDA:0,_ZNSt12_Vector_baseIN4Json12PathArgumentESaIS1_EE11_M_allocateEm
FNDA:4810,_ZNSt12_Vector_baseISsSaISsEE11_M_allocateEm
FNDA:0,_ZNSt12_Vector_baseIN4Json9OurReader15StructuredErrorESaIS2_EE11_M_allocateEm
FNDA:0,_ZNSt12_Vector_baseIN4Json6Reader15StructuredErrorESaIS2_EE11_M_allocateEm
FNDA:0,_ZNSt12_Vector_baseIPKN4Json12PathArgumentESaIS3_EE13_M_deallocateEPS3_m
FNDA:0,_ZNSt12_Vector_baseIN4Json12PathArgumentESaIS1_EE13_M_deallocateEPS1_m
FNDA:0,_ZNSt12_Vector_baseIN4Json9OurReader15StructuredErrorESaIS2_EE13_M_deallocateEPS2_m
FNDA:0,_ZNSt12_Vector_baseIN4Json6Reader15StructuredErrorESaIS2_EE13_M_deallocateEPS2_m
FNDA:0,_ZNSt12_Vector_baseISsSaISsEE13_M_deallocateEPSsm
FNDA:0,_ZNSt6vectorIPKN4Json12PathArgumentESaIS3_EEC2Ev
FNDA:0,_ZNSt6vectorIN4Json12PathArgumentESaIS1_EEC2Ev
FNDA:480,_ZNSt6vectorISsSaISsEEC2Ev
FNDA:0,_ZNSt6vectorIN4Json9OurReader15StructuredErrorESaIS2_EEC2Ev
FNDA:0,_ZNSt6vectorIN4Json6Reader15StructuredErrorESaIS2_EEC2Ev
FNDA:470,_ZNSt6vectorISsSaISsEEC2EOS1_
FNDA:0,_ZNSt6vectorIPKN4Json12PathArgumentESaIS3_EED2Ev
FNDA:0,_ZNSt6vectorIN4Json12PathArgumentESaIS1_EED2Ev
FNDA:0,_ZNSt6vectorIN4Json9OurReader15StructuredErrorESaIS2_EED2Ev
FNDA:0,_ZNSt6vectorIN4Json6Reader15StructuredErrorESaIS2_EED2Ev
FNDA:0,_ZNSt6vectorISsSaISsEED2Ev
FNDA:1410,_ZNSt6vectorISsSaISsEE5beginEv
FNDA:0,_ZNKSt6vectorISsSaISsEE5beginEv
FNDA:0,_ZNKSt6vectorIN4Json12PathArgumentESaIS1_EE5beginEv
FNDA:0,_ZNKSt6vectorIPKN4Json12PathArgumentESaIS3_EE5beginEv
FNDA:1410,_ZNSt6vectorISsSaISsEE3endEv
FNDA:0,_ZNKSt6vectorISsSaISsEE3endEv
FNDA:0,_ZNKSt6vectorIN4Json12PathArgumentESaIS1_EE3endEv
FNDA:0,_ZNKSt6vectorIPKN4Json12PathArgumentESaIS3_EE3endEv
FNDA:0,_ZNKSt6vectorIPKN4Json12PathArgumentESaIS3_EE4sizeEv
FNDA:0,_ZNKSt6vectorIN4Json12PathArgumentESaIS1_EE4sizeEv
FNDA:0,_ZNKSt6vectorIN4Json9OurReader15StructuredErrorESaIS2_EE4sizeEv
FNDA:0,_ZNKSt6vectorIN4Json6Reader15StructuredErrorESaIS2_EE4sizeEv
FNDA:22190,_ZNKSt6vectorISsSaISsEE4sizeEv
FNDA:0,_ZNKSt6vectorIPKN4Json12PathArgumentESaIS3_EE8max_sizeEv
FNDA:0,_ZNKSt6vectorIN4Json12PathArgumentESaIS1_EE8max_sizeEv
FNDA:0,_ZNKSt6vectorIN4Json9OurReader15StructuredErrorESaIS2_EE8max_sizeEv
FNDA:0,_ZNKSt6vectorIN4Json6Reader15StructuredErrorESaIS2_EE8max_sizeEv
FNDA:9150,_ZNKSt6vectorISsSaISsEE8max_sizeEv
FNDA:470,_ZNKSt6vectorISsSaISsEE8capacityEv
FNDA:0,_ZNKSt6vectorISsSaISsEE5emptyEv
FNDA:0,_ZNSt6vectorISsSaISsEEixEm
FNDA:10,_ZNSt6vectorISsSaISsEE9push_backERKSs
FNDA:0,_ZNSt6vectorIN4Json12PathArgumentESaIS1_EE9push_backERKS1_
FNDA:0,_ZNSt6vectorIN4Json9OurReader15StructuredErrorESaIS2_EE9push_backERKS2_
FNDA:0,_ZNSt6vectorIN4Json6Reader15StructuredErrorESaIS2_EE9push_backERKS2_
FNDA:0,_ZNSt6vectorIN4Json12PathArgumentESaIS1_EE9push_backEOS1_
FNDA:0,_ZNSt6vectorIPKN4Json12PathArgumentESaIS3_EE9push_backEOS3_
FNDA:940,_ZNSt6vectorISsSaISsEE9push_backEOSs
FNDA:10,_ZNSt6vectorISsSaISsEE5clearEv
FNDA:470,_ZNSt6vectorISsSaISsEE20_M_allocate_and_copyISt13move_iteratorIPSsEEES4_mT_S6_
FNDA:0,_ZNKSt6vectorIPKN4Json12PathArgumentESaIS3_EE12_M_check_lenEmPKc
FNDA:4340,_ZNKSt6vectorISsSaISsEE12_M_check_lenEmPKc
FNDA:0,_ZNKSt6vectorIN4Json12PathArgumentESaIS1_EE12_M_check_lenEmPKc
FNDA:0,_ZNKSt6vectorIN4Json9OurReader15StructuredErrorESaIS2_EE12_M_check_lenEmPKc
FNDA:0,_ZNKSt6vectorIN4Json6Reader15StructuredErrorESaIS2_EE12_M_check_lenEmPKc
FNDA:10,_ZNSt6vectorISsSaISsEE15_M_erase_at_endEPSs
FNF:90
FNH:20
DA:79,0
DA:86,480
DA:87,480
DA:88,480
DA:95,470
DA:96,470
DA:97,470
DA:98,470
DA:101,470
DA:103,470
DA:104,470
DA:105,470
DA:106,470
DA:113,0
DA:114,0
DA:117,9150
DA:118,9150
DA:124,480
DA:125,480
DA:142,470
DA:143,470
DA:144,470
DA:159,0
DA:160,0
DA:161,0
DA:167,4810
DA:168,4810
DA:171,0
DA:173,0
DA:174,0
DA:175,0
DA:248,480
DA:249,480
DA:327,470
DA:328,470
DA:414,0
DA:415,0
DA:416,0
DA:538,1410
DA:539,1410
DA:547,0
DA:548,0
DA:556,1410
DA:557,1410
DA:565,0
DA:566,0
DA:645,22190
DA:646,22190
DA:650,9150
DA:651,9150
DA:725,470
DA:727,470
DA:734,0
DA:735,0
DA:770,0
DA:771,0
DA:901,10
DA:903,10
DA:905,0
DA:906,0
DA:907,0
DA:911,10
DA:915,10
DA:919,940
DA:920,940
DA:1125,10
DA:1126,10
DA:1135,470
DA:1138,470
DA:1141,470
DA:1142,470
DA:1143,470
DA:1145,=====
DA:1147,=====
DA:1148,=====
DA:1336,4340
DA:1338,4340
DA:1339,0
DA:1341,4340
DA:1342,4340
DA:1350,10
DA:1352,10
DA:1353,10
DA:1354,10
LF:84
LH:56
end_of_record
SF:/usr/include/c++/4.8/bits/unique_ptr.h
FN:63,_ZNKSt14default_deleteIN4Json10CharReaderEEclEPS1_
FN:63,_ZNKSt14default_deleteIN4Json12StreamWriterEEclEPS1_
FN:141,_ZNSt10unique_ptrIN4Json12StreamWriterESt14default_deleteIS1_EEC2EPS1_
FN:141,_ZNSt10unique_ptrIN4Json10CharReaderESt14default_deleteIS1_EEC2EPS1_
FN:180,_ZNSt10unique_ptrIN4Json10CharReaderESt14default_deleteIS1_EED2Ev
FN:180,_ZNSt10unique_ptrIN4Json12StreamWriterESt14default_deleteIS1_EED2Ev
FN:226,_ZNKSt10unique_ptrIN4Json10CharReaderESt14default_deleteIS1_EEptEv
FN:226,_ZNKSt10unique_ptrIN4Json12StreamWriterESt14default_deleteIS1_EEptEv
FN:233,_ZNKSt10unique_ptrIN4Json12StreamWriterESt14default_deleteIS1_EE3getEv
FN:233,_ZNKSt10unique_ptrIN4Json10CharReaderESt14default_deleteIS1_EE3getEv
FN:237,_ZNSt10unique_ptrIN4Json12StreamWriterESt14default_deleteIS1_EE11get_deleterEv
FN:237,_ZNSt10unique_ptrIN4Json10CharReaderESt14default_deleteIS1_EE11get_deleterEv
FNDA:0,_ZNKSt14default_deleteIN4Json12StreamWriterEEclEPS1_
FNDA:0,_ZNKSt14default_deleteIN4Json10CharReaderEEclEPS1_
FNDA:0,_ZNSt10unique_ptrIN4Json12StreamWriterESt14default_deleteIS1_EEC2EPS1_
FNDA:0,_ZNSt10unique_ptrIN4Json10CharReaderESt14default_deleteIS1_EEC2EPS1_
FNDA:0,_ZNSt10unique_ptrIN4Json12StreamWriterESt14default_deleteIS1_EED2Ev
FNDA:0,_ZNSt10unique_ptrIN4Json10CharReaderESt14default_deleteIS1_EED2Ev
FNDA:0,_ZNKSt10unique_ptrIN4Json12StreamWriterESt14default_deleteIS1_EEptEv
FNDA:0,_ZNKSt10unique_ptrIN4Json10CharReaderESt14default_deleteIS1_EEptEv
FNDA:0,_ZNKSt10unique_ptrIN4Json12StreamWriterESt14default_deleteIS1_EE3getEv
FNDA:0,_ZNKSt10unique_ptrIN4Json10CharReaderESt14default_deleteIS1_EE3getEv
FNDA:0,_ZNSt10unique_ptrIN4Json12StreamWriterESt14default_deleteIS1_EE11get_deleterEv
FNDA:0,_ZNSt10unique_ptrIN4Json10CharReaderESt14default_deleteIS1_EE11get_deleterEv
FNF:12
FNH:0
DA:63,0
DA:67,0
DA:68,0
DA:141,0
DA:142,0
DA:144,0
DA:180,0
DA:182,0
DA:183,0
DA:184,0
DA:185,0
DA:186,0
DA:226,0
DA:229,0
DA:233,0
DA:234,0
DA:237,0
DA:238,0
LF:18
LH:0
end_of_record
SF:/usr/include/c++/4.8/bits/vector.tcc
FN:65,_ZNSt6vectorISsSaISsEE7reserveEm
FN:91,_ZNSt6vectorIPKN4Json12PathArgumentESaIS3_EE12emplace_backIIS3_EEEvDpOT_
FN:91,_ZNSt6vectorIN4Json12PathArgumentESaIS1_EE12emplace_backIIS1_EEEvDpOT_
FN:91,_ZNSt6vectorISsSaISsEE12emplace_backIISsEEEvDpOT_
FN:399,_ZNSt6vectorIN4Json6Reader15StructuredErrorESaIS2_EE19_M_emplace_back_auxIIRKS2_EEEvDpOT_
FN:399,_ZNSt6vectorIN4Json12PathArgumentESaIS1_EE19_M_emplace_back_auxIIS1_EEEvDpOT_
FN:399,_ZNSt6vectorISsSaISsEE19_M_emplace_back_auxIIRKSsEEEvDpOT_
FN:399,_ZNSt6vectorIN4Json12PathArgumentESaIS1_EE19_M_emplace_back_auxIIRKS1_EEEvDpOT_
FN:399,_ZNSt6vectorIN4Json9OurReader15StructuredErrorESaIS2_EE19_M_emplace_back_auxIIRKS2_EEEvDpOT_
FN:399,_ZNSt6vectorIPKN4Json12PathArgumentESaIS3_EE19_M_emplace_back_auxIIS3_EEEvDpOT_
FN:399,_ZNSt6vectorISsSaISsEE19_M_emplace_back_auxIISsEEEvDpOT_
FNDA:470,_ZNSt6vectorISsSaISsEE7reserveEm
FNDA:0,_ZNSt6vectorIN4Json12PathArgumentESaIS1_EE12emplace_backIIS1_EEEvDpOT_
FNDA:0,_ZNSt6vectorIPKN4Json12PathArgumentESaIS3_EE12emplace_backIIS3_EEEvDpOT_
FNDA:940,_ZNSt6vectorISsSaISsEE12emplace_backIISsEEEvDpOT_
FNDA:0,_ZNSt6vectorIN4Json12PathArgumentESaIS1_EE19_M_emplace_back_auxIIS1_EEEvDpOT_
FNDA:0,_ZNSt6vectorIPKN4Json12PathArgumentESaIS3_EE19_M_emplace_back_auxIIS3_EEEvDpOT_
FNDA:3810,_ZNSt6vectorISsSaISsEE19_M_emplace_back_auxIISsEEEvDpOT_
FNDA:530,_ZNSt6vectorISsSaISsEE19_M_emplace_back_auxIIRKSsEEEvDpOT_
FNDA:0,_ZNSt6vectorIN4Json12PathArgumentESaIS1_EE19_M_emplace_back_auxIIRKS1_EEEvDpOT_
FNDA:0,_ZNSt6vectorIN4Json9OurReader15StructuredErrorESaIS2_EE19_M_emplace_back_auxIIRKS2_EEEvDpOT_
FNDA:0,_ZNSt6vectorIN4Json6Reader15StructuredErrorESaIS2_EE19_M_emplace_back_auxIIRKS2_EEEvDpOT_
FNF:11
FNH:4
DA:65,470
DA:68,470
DA:69,0
DA:70,470
DA:72,470
DA:75,470
DA:76,470
DA:77,470
DA:78,470
DA:80,470
DA:81,470
DA:82,470
DA:83,470
DA:85,470
DA:91,940
DA:94,940
DA:96,940
DA:97,940
DA:98,940
DA:101,0
DA:102,940
DA:399,4340
DA:403,4340
DA:404,4340
DA:405,4340
DA:408,8680
DA:409,8680
DA:410,4340
DA:412,4340
DA:415,4340
DA:417,4340
DA:419,=====
DA:421,=====
DA:422,=====
DA:424,=====
DA:425,=====
DA:426,=====
DA:428,4340
DA:429,4340
DA:430,4340
DA:432,4340
DA:433,4340
DA:434,4340
DA:435,4340
DA:436,4340
LF:45
LH:37
end_of_record
SF:/usr/include/c++/4.8/cmath
FN:586,_ZSt8isfinited
FNDA:0,_ZSt8isfinited
FNF:1
FNH:0
DA:586,0
DA:587,0
LF:2
LH:0
end_of_record
SF:/usr/include/c++/4.8/exception
FN:63,_ZNSt9exceptionC2Ev
FNDA:0,_ZNSt9exceptionC2Ev
FNF:1
FNH:0
DA:63,0
LF:1
LH:0
end_of_record
SF:/usr/include/c++/4.8/ext/atomicity.h
FN:48,_ZN9__gnu_cxxL18__exchange_and_addEPVii
FN:65,_ZN9__gnu_cxxL25__exchange_and_add_singleEPii
FN:78,_ZN9__gnu_cxxL27__exchange_and_add_dispatchEPii
FNDA:0,_ZN9__gnu_cxxL18__exchange_and_addEPVii
FNDA:0,_ZN9__gnu_cxxL25__exchange_and_add_singleEPii
FNDA:0,_ZN9__gnu_cxxL27__exchange_and_add_dispatchEPii
FNF:3
FNH:0
DA:48,0
DA:49,0
DA:65,0
DA:67,0
DA:68,0
DA:69,0
DA:78,0
DA:81,0
DA:82,0
DA:84,0
LF:10
LH:0
end_of_record
SF:/usr/include/c++/4.8/ext/new_allocator.h
FN:79,_ZN9__gnu_cxx13new_allocatorIPKN4Json12PathArgumentEEC2Ev
FN:79,_ZN9__gnu_cxx13new_allocatorIN4Json12PathArgumentEEC2Ev
FN:79,_ZN9__gnu_cxx13new_allocatorIPN4Json6Reader9ErrorInfoEEC2Ev
FN:79,_ZN9__gnu_cxx13new_allocatorIN4Json9OurReader15StructuredErrorEEC2Ev
FN:79,_ZN9__gnu_cxx13new_allocatorIN4Json6Reader15StructuredErrorEEC2Ev
FN:79,_ZN9__gnu_cxx13new_allocatorISsEC2Ev
FN:79,_ZN9__gnu_cxx13new_allocatorIPN4Json9OurReader9ErrorInfoEEC2Ev
FN:79,_ZN9__gnu_cxx13new_allocatorISt13_Rb_tree_nodeISt4pairIKN4Json5Value8CZStringES4_EEEC2Ev
FN:79,_ZN9__gnu_cxx13new_allocatorIPN4Json5ValueEEC2Ev
FN:79,_ZN9__gnu_cxx13new_allocatorIPPN4Json5ValueEEC2Ev
FN:79,_ZN9__gnu_cxx13new_allocatorISt13_Rb_tree_nodeISsEEC2Ev
FN:79,_ZN9__gnu_cxx13new_allocatorIcEC2Ev
FN:79,_ZN9__gnu_cxx13new_allocatorIN4Json9OurReader9ErrorInfoEEC2Ev
FN:79,_ZN9__gnu_cxx13new_allocatorIN4Json6Reader9ErrorInfoEEC2Ev
FN:81,_ZN9__gnu_cxx13new_allocatorIcEC2ERKS1_
FN:81,_ZN9__gnu_cxx13new_allocatorISsEC2ERKS1_
FN:81,_ZN9__gnu_cxx13new_allocatorISt13_Rb_tree_nodeISt4pairIKN4Json5Value8CZStringES4_EEEC2ERKS9_
FN:81,_ZN9__gnu_cxx13new_allocatorIPN4Json5ValueEEC2ERKS4_
FN:86,_ZN9__gnu_cxx13new_allocatorIPKN4Json12PathArgumentEED2Ev
FN:86,_ZN9__gnu_cxx13new_allocatorIPN4Json9OurReader9ErrorInfoEED2Ev
FN:86,_ZN9__gnu_cxx13new_allocatorISt13_Rb_tree_nodeISt4pairIKN4Json5Value8CZStringES4_EEED2Ev
FN:86,_ZN9__gnu_cxx13new_allocatorIN4Json12PathArgumentEED2Ev
FN:86,_ZN9__gnu_cxx13new_allocatorIPN4Json5ValueEED2Ev
FN:86,_ZN9__gnu_cxx13new_allocatorIN4Json9OurReader15StructuredErrorEED2Ev
FN:86,_ZN9__gnu_cxx13new_allocatorIPN4Json6Reader9ErrorInfoEED2Ev
FN:86,_ZN9__gnu_cxx13new_allocatorIN4Json6Reader15StructuredErrorEED2Ev
FN:86,_ZN9__gnu_cxx13new_allocatorIN4Json9OurReader9ErrorInfoEED2Ev
FN:86,_ZN9__gnu_cxx13new_allocatorIPPN4Json5ValueEED2Ev
FN:86,_ZN9__gnu_cxx13new_allocatorISt13_Rb_tree_nodeISsEED2Ev
FN:86,_ZN9__gnu_cxx13new_allocatorIcED2Ev
FN:86,_ZN9__gnu_cxx13new_allocatorIN4Json6Reader9ErrorInfoEED2Ev
FN:86,_ZN9__gnu_cxx13new_allocatorISsED2Ev
FN:99,_ZN9__gnu_cxx13new_allocatorISsE8allocateEmPKv
FN:99,_ZN9__gnu_cxx13new_allocatorIPPN4Json5ValueEE8allocateEmPKv
FN:99,_ZN9__gnu_cxx13new_allocatorIPN4Json5ValueEE8allocateEmPKv
FN:99,_ZN9__gnu_cxx13new_allocatorIN4Json6Reader15StructuredErrorEE8allocateEmPKv
FN:99,_ZN9__gnu_cxx13new_allocatorISt13_Rb_tree_nodeISsEE8allocateEmPKv
FN:99,_ZN9__gnu_cxx13new_allocatorIN4Json9OurReader9ErrorInfoEE8allocateEmPKv
FN:99,_ZN9__gnu_cxx13new_allocatorIPN4Json9OurReader9ErrorInfoEE8allocateEmPKv
FN:99,_ZN9__gnu_cxx13new_allocatorIPKN4Json12PathArgumentEE8allocateEmPKv
FN:99,_ZN9__gnu_cxx13new_allocatorIN4Json9OurReader15StructuredErrorEE8allocateEmPKv
FN:99,_ZN9__gnu_cxx13new_allocatorIN4Json12PathArgumentEE8allocateEmPKv
FN:99,_ZN9__gnu_cxx13new_allocatorIPN4Json6Reader9ErrorInfoEE8allocateEmPKv
FN:99,_ZN9__gnu_cxx13new_allocatorIN4Json6Reader9ErrorInfoEE8allocateEmPKv
FN:99,_ZN9__gnu_cxx13new_allocatorISt13_Rb_tree_nodeISt4pairIKN4Json5Value8CZStringES4_EEE8allocateEmPKv
FN:109,_ZN9__gnu_cxx13new_allocatorIN4Json6Reader15StructuredErrorEE10deallocateEPS3_m
FN:109,_ZN9__gnu_cxx13new_allocatorIN4Json12PathArgumentEE10deallocateEPS2_m
FN:109,_ZN9__gnu_cxx13new_allocatorISsE10deallocateEPSsm
FN:109,_ZN9__gnu_cxx13new_allocatorIPKN4Json12PathArgumentEE10deallocateEPS4_m
FN:109,_ZN9__gnu_cxx13new_allocatorIN4Json6Reader9ErrorInfoEE10deallocateEPS3_m
FN:109,_ZN9__gnu_cxx13new_allocatorIN4Json9OurReader9ErrorInfoEE10deallocateEPS3_m
FN:109,_ZN9__gnu_cxx13new_allocatorIPN4Json5ValueEE10deallocateEPS3_m
FN:109,_ZN9__gnu_cxx13new_allocatorIPPN4Json5ValueEE10deallocateEPS4_m
FN:109,_ZN9__gnu_cxx13new_allocatorISt13_Rb_tree_nodeISsEE10deallocateEPS2_m
FN:109,_ZN9__gnu_cxx13new_allocatorISt13_Rb_tree_nodeISt4pairIKN4Json5Value8CZStringES4_EEE10deallocateEPS8_m
FN:109,_ZN9__gnu_cxx13new_allocatorIN4Json9OurReader15StructuredErrorEE10deallocateEPS3_m
FN:109,_ZN9__gnu_cxx13new_allocatorIPN4Json9OurReader9ErrorInfoEE10deallocateEPS4_m
FN:109,_ZN9__gnu_cxx13new_allocatorIPN4Json6Reader9ErrorInfoEE10deallocateEPS4_m
FN:113,_ZNK9__gnu_cxx13new_allocatorIPN4Json6Reader9ErrorInfoEE8max_sizeEv
FN:113,_ZNK9__gnu_cxx13new_allocatorIN4Json6Reader9ErrorInfoEE8max_sizeEv
FN:113,_ZNK9__gnu_cxx13new_allocatorISt13_Rb_tree_nodeISt4pairIKN4Json5Value8CZStringES4_EEE8max_sizeEv
FN:113,_ZNK9__gnu_cxx13new_allocatorIPKN4Json12PathArgumentEE8max_sizeEv
FN:113,_ZNK9__gnu_cxx13new_allocatorIPPN4Json5ValueEE8max_sizeEv
FN:113,_ZNK9__gnu_cxx13new_allocatorIN4Json9OurReader15StructuredErrorEE8max_sizeEv
FN:113,_ZNK9__gnu_cxx13new_allocatorIPN4Json9OurReader9ErrorInfoEE8max_sizeEv
FN:113,_ZNK9__gnu_cxx13new_allocatorIN4Json9OurReader9ErrorInfoEE8max_sizeEv
FN:113,_ZNK9__gnu_cxx13new_allocatorISt13_Rb_tree_nodeISsEE8max_sizeEv
FN:113,_ZNK9__gnu_cxx13new_allocatorIN4Json12PathArgumentEE8max_sizeEv
FN:113,_ZNK9__gnu_cxx13new_allocatorISsE8max_sizeEv
FN:113,_ZNK9__gnu_cxx13new_allocatorIN4Json6Reader15StructuredErrorEE8max_sizeEv
FN:113,_ZNK9__gnu_cxx13new_allocatorIPN4Json5ValueEE8max_sizeEv
FN:119,_ZN9__gnu_cxx13new_allocatorISt13_Rb_tree_nodeISt4pairIKN4Json5Value8CZStringES4_EEE9constructIS8_IRKS7_EEEvPT_DpOT0_
FN:119,_ZN9__gnu_cxx13new_allocatorIPN4Json5ValueEE9constructIS3_IS3_EEEvPT_DpOT0_
FN:119,_ZN9__gnu_cxx13new_allocatorISsE9constructISsIRKSsEEEvPT_DpOT0_
FN:119,_ZN9__gnu_cxx13new_allocatorISsE9constructISsISsEEEvPT_DpOT0_
FN:119,_ZN9__gnu_cxx13new_allocatorISt13_Rb_tree_nodeISsEE9constructIS2_ISsEEEvPT_DpOT0_
FN:119,_ZN9__gnu_cxx13new_allocatorISt13_Rb_tree_nodeISt4pairIKN4Json5Value8CZStringES4_EEE9constructIS8_IRKSt21piecewise_construct_tSt5tupleIIRS6_EESE_IIEEEEEvPT_DpOT0_
FN:119,_ZN9__gnu_cxx13new_allocatorISt13_Rb_tree_nodeISt4pairIKN4Json5Value8CZStringES4_EEE9constructIS8_IRS7_EEEvPT_DpOT0_
FN:119,_ZN9__gnu_cxx13new_allocatorIN4Json9OurReader9ErrorInfoEE9constructIS3_IRKS3_EEEvPT_DpOT0_
FN:119,_ZN9__gnu_cxx13new_allocatorIN4Json12PathArgumentEE9constructIS2_IS2_EEEvPT_DpOT0_
FN:119,_ZN9__gnu_cxx13new_allocatorIN4Json12PathArgumentEE9constructIS2_IRKS2_EEEvPT_DpOT0_
FN:119,_ZN9__gnu_cxx13new_allocatorIN4Json6Reader15StructuredErrorEE9constructIS3_IRKS3_EEEvPT_DpOT0_
FN:119,_ZN9__gnu_cxx13new_allocatorIN4Json9OurReader15StructuredErrorEE9constructIS3_IRKS3_EEEvPT_DpOT0_
FN:119,_ZN9__gnu_cxx13new_allocatorIPKN4Json12PathArgumentEE9constructIS4_IS4_EEEvPT_DpOT0_
FN:119,_ZN9__gnu_cxx13new_allocatorIN4Json6Reader9ErrorInfoEE9constructIS3_IRKS3_EEEvPT_DpOT0_
FN:124,_ZN9__gnu_cxx13new_allocatorIN4Json12PathArgumentEE7destroyIS2_EEvPT_
FN:124,_ZN9__gnu_cxx13new_allocatorIPKN4Json12PathArgumentEE7destroyIS4_EEvPT_
FN:124,_ZN9__gnu_cxx13new_allocatorISsE7destroyISsEEvPT_
FN:124,_ZN9__gnu_cxx13new_allocatorIPN4Json5ValueEE7destroyIS3_EEvPT_
FN:124,_ZN9__gnu_cxx13new_allocatorISt13_Rb_tree_nodeISt4pairIKN4Json5Value8CZStringES4_EEE7destroyIS8_EEvPT_
FN:124,_ZN9__gnu_cxx13new_allocatorIN4Json6Reader15StructuredErrorEE7destroyIS3_EEvPT_
FN:124,_ZN9__gnu_cxx13new_allocatorISt13_Rb_tree_nodeISsEE7destroyIS2_EEvPT_
FN:124,_ZN9__gnu_cxx13new_allocatorIN4Json9OurReader15StructuredErrorEE7destroyIS3_EEvPT_
FNDA:0,_ZN9__gnu_cxx13new_allocatorIPN4Json9OurReader9ErrorInfoEEC2Ev
FNDA:0,_ZN9__gnu_cxx13new_allocatorIPN4Json6Reader9ErrorInfoEEC2Ev
FNDA:0,_ZN9__gnu_cxx13new_allocatorIPPN4Json5ValueEEC2Ev
FNDA:0,_ZN9__gnu_cxx13new_allocatorIPKN4Json12PathArgumentEEC2Ev
FNDA:0,_ZN9__gnu_cxx13new_allocatorIN4Json12PathArgumentEEC2Ev
FNDA:480,_ZN9__gnu_cxx13new_allocatorISsEC2Ev
FNDA:1480,_ZN9__gnu_cxx13new_allocatorISt13_Rb_tree_nodeISt4pairIKN4Json5Value8CZStringES4_EEEC2Ev
FNDA:0,_ZN9__gnu_cxx13new_allocatorISt13_Rb_tree_nodeISsEEC2Ev
FNDA:0,_ZN9__gnu_cxx13new_allocatorIN4Json9OurReader15StructuredErrorEEC2Ev
FNDA:0,_ZN9__gnu_cxx13new_allocatorIN4Json9OurReader9ErrorInfoEEC2Ev
FNDA:0,_ZN9__gnu_cxx13new_allocatorIN4Json6Reader15StructuredErrorEEC2Ev
FNDA:250,_ZN9__gnu_cxx13new_allocatorIN4Json6Reader9ErrorInfoEEC2Ev
FNDA:250,_ZN9__gnu_cxx13new_allocatorIPN4Json5ValueEEC2Ev
FNDA:0,_ZN9__gnu_cxx13new_allocatorIcEC2Ev
FNDA:250,_ZN9__gnu_cxx13new_allocatorIPN4Json5ValueEEC2ERKS4_
FNDA:1720,_ZN9__gnu_cxx13new_allocatorISt13_Rb_tree_nodeISt4pairIKN4Json5Value8CZStringES4_EEEC2ERKS9_
FNDA:470,_ZN9__gnu_cxx13new_allocatorISsEC2ERKS1_
FNDA:0,_ZN9__gnu_cxx13new_allocatorIcEC2ERKS1_
FNDA:0,_ZN9__gnu_cxx13new_allocatorIPN4Json9OurReader9ErrorInfoEED2Ev
FNDA:0,_ZN9__gnu_cxx13new_allocatorIPN4Json6Reader9ErrorInfoEED2Ev
FNDA:0,_ZN9__gnu_cxx13new_allocatorIPPN4Json5ValueEED2Ev
FNDA:0,_ZN9__gnu_cxx13new_allocatorIPKN4Json12PathArgumentEED2Ev
FNDA:0,_ZN9__gnu_cxx13new_allocatorIN4Json12PathArgumentEED2Ev
FNDA:0,_ZN9__gnu_cxx13new_allocatorIN4Json9OurReader15StructuredErrorEED2Ev
FNDA:0,_ZN9__gnu_cxx13new_allocatorIN4Json9OurReader9ErrorInfoEED2Ev
FNDA:0,_ZN9__gnu_cxx13new_allocatorIN4Json6Reader15StructuredErrorEED2Ev
FNDA:0,_ZN9__gnu_cxx13new_allocatorIN4Json6Reader9ErrorInfoEED2Ev
FNDA:0,_ZN9__gnu_cxx13new_allocatorIPN4Json5ValueEED2Ev
FNDA:0,_ZN9__gnu_cxx13new_allocatorISsED2Ev
FNDA:3200,_ZN9__gnu_cxx13new_allocatorISt13_Rb_tree_nodeISt4pairIKN4Json5Value8CZStringES4_EEED2Ev
FNDA:10,_ZN9__gnu_cxx13new_allocatorISt13_Rb_tree_nodeISsEED2Ev
FNDA:0,_ZN9__gnu_cxx13new_allocatorIcED2Ev
FNDA:0,_ZN9__gnu_cxx13new_allocatorISt13_Rb_tree_nodeISsEE8allocateEmPKv
FNDA:500,_ZN9__gnu_cxx13new_allocatorIPN4Json5ValueEE8allocateEmPKv
FNDA:0,_ZN9__gnu_cxx13new_allocatorIPKN4Json12PathArgumentEE8allocateEmPKv
FNDA:6380,_ZN9__gnu_cxx13new_allocatorISt13_Rb_tree_nodeISt4pairIKN4Json5Value8CZStringES4_EEE8allocateEmPKv
FNDA:0,_ZN9__gnu_cxx13new_allocatorIPN4Json9OurReader9ErrorInfoEE8allocateEmPKv
FNDA:250,_ZN9__gnu_cxx13new_allocatorIPN4Json6Reader9ErrorInfoEE8allocateEmPKv
FNDA:500,_ZN9__gnu_cxx13new_allocatorIPPN4Json5ValueEE8allocateEmPKv
FNDA:0,_ZN9__gnu_cxx13new_allocatorIN4Json12PathArgumentEE8allocateEmPKv
FNDA:4810,_ZN9__gnu_cxx13new_allocatorISsE8allocateEmPKv
FNDA:0,_ZN9__gnu_cxx13new_allocatorIN4Json9OurReader15StructuredErrorEE8allocateEmPKv
FNDA:0,_ZN9__gnu_cxx13new_allocatorIN4Json9OurReader9ErrorInfoEE8allocateEmPKv
FNDA:0,_ZN9__gnu_cxx13new_allocatorIN4Json6Reader15StructuredErrorEE8allocateEmPKv
FNDA:250,_ZN9__gnu_cxx13new_allocatorIN4Json6Reader9ErrorInfoEE8allocateEmPKv
FNDA:6380,_ZN9__gnu_cxx13new_allocatorISt13_Rb_tree_nodeISt4pairIKN4Json5Value8CZStringES4_EEE10deallocateEPS8_m
FNDA:170,_ZN9__gnu_cxx13new_allocatorISt13_Rb_tree_nodeISsEE10deallocateEPS2_m
FNDA:0,_ZN9__gnu_cxx13new_allocatorIPN4Json5ValueEE10deallocateEPS3_m
FNDA:0,_ZN9__gnu_cxx13new_allocatorIPKN4Json12PathArgumentEE10deallocateEPS4_m
FNDA:0,_ZN9__gnu_cxx13new_allocatorIN4Json12PathArgumentEE10deallocateEPS2_m
FNDA:0,_ZN9__gnu_cxx13new_allocatorIN4Json9OurReader15StructuredErrorEE10deallocateEPS3_m
FNDA:0,_ZN9__gnu_cxx13new_allocatorIN4Json9OurReader9ErrorInfoEE10deallocateEPS3_m
FNDA:0,_ZN9__gnu_cxx13new_allocatorIPN4Json9OurReader9ErrorInfoEE10deallocateEPS4_m
FNDA:0,_ZN9__gnu_cxx13new_allocatorIN4Json6Reader15StructuredErrorEE10deallocateEPS3_m
FNDA:0,_ZN9__gnu_cxx13new_allocatorIN4Json6Reader9ErrorInfoEE10deallocateEPS3_m
FNDA:0,_ZN9__gnu_cxx13new_allocatorIPN4Json6Reader9ErrorInfoEE10deallocateEPS4_m
FNDA:0,_ZN9__gnu_cxx13new_allocatorIPPN4Json5ValueEE10deallocateEPS4_m
FNDA:0,_ZN9__gnu_cxx13new_allocatorISsE10deallocateEPSsm
FNDA:0,_ZNK9__gnu_cxx13new_allocatorISt13_Rb_tree_nodeISsEE8max_sizeEv
FNDA:500,_ZNK9__gnu_cxx13new_allocatorIPN4Json5ValueEE8max_sizeEv
FNDA:0,_ZNK9__gnu_cxx13new_allocatorIPKN4Json12PathArgumentEE8max_sizeEv
FNDA:6380,_ZNK9__gnu_cxx13new_allocatorISt13_Rb_tree_nodeISt4pairIKN4Json5Value8CZStringES4_EEE8max_sizeEv
FNDA:0,_ZNK9__gnu_cxx13new_allocatorIPN4Json9OurReader9ErrorInfoEE8max_sizeEv
FNDA:250,_ZNK9__gnu_cxx13new_allocatorIPN4Json6Reader9ErrorInfoEE8max_sizeEv
FNDA:500,_ZNK9__gnu_cxx13new_allocatorIPPN4Json5ValueEE8max_sizeEv
FNDA:0,_ZNK9__gnu_cxx13new_allocatorIN4Json12PathArgumentEE8max_sizeEv
FNDA:13960,_ZNK9__gnu_cxx13new_allocatorISsE8max_sizeEv
FNDA:0,_ZNK9__gnu_cxx13new_allocatorIN4Json9OurReader15StructuredErrorEE8max_sizeEv
FNDA:0,_ZNK9__gnu_cxx13new_allocatorIN4Json9OurReader9ErrorInfoEE8max_sizeEv
FNDA:0,_ZNK9__gnu_cxx13new_allocatorIN4Json6Reader15StructuredErrorEE8max_sizeEv
FNDA:250,_ZNK9__gnu_cxx13new_allocatorIN4Json6Reader9ErrorInfoEE8max_sizeEv
FNDA:3640,_ZN9__gnu_cxx13new_allocatorISt13_Rb_tree_nodeISt4pairIKN4Json5Value8CZStringES4_EEE9constructIS8_IRKS7_EEEvPT_DpOT0_
FNDA:2740,_ZN9__gnu_cxx13new_allocatorISt13_Rb_tree_nodeISt4pairIKN4Json5Value8CZStringES4_EEE9constructIS8_IRS7_EEEvPT_DpOT0_
FNDA:0,_ZN9__gnu_cxx13new_allocatorISt13_Rb_tree_nodeISsEE9constructIS2_ISsEEEvPT_DpOT0_
FNDA:0,_ZN9__gnu_cxx13new_allocatorISt13_Rb_tree_nodeISt4pairIKN4Json5Value8CZStringES4_EEE9constructIS8_IRKSt21piecewise_construct_tSt5tupleIIRS6_EESE_IIEEEEEvPT_DpOT0_
FNDA:0,_ZN9__gnu_cxx13new_allocatorIN4Json12PathArgumentEE9constructIS2_IS2_EEEvPT_DpOT0_
FNDA:0,_ZN9__gnu_cxx13new_allocatorIPKN4Json12PathArgumentEE9constructIS4_IS4_EEEvPT_DpOT0_
FNDA:4750,_ZN9__gnu_cxx13new_allocatorISsE9constructISsISsEEEvPT_DpOT0_
FNDA:530,_ZN9__gnu_cxx13new_allocatorISsE9constructISsIRKSsEEEvPT_DpOT0_
FNDA:0,_ZN9__gnu_cxx13new_allocatorIN4Json12PathArgumentEE9constructIS2_IRKS2_EEEvPT_DpOT0_
FNDA:0,_ZN9__gnu_cxx13new_allocatorIN4Json9OurReader15StructuredErrorEE9constructIS3_IRKS3_EEEvPT_DpOT0_
FNDA:0,_ZN9__gnu_cxx13new_allocatorIN4Json6Reader15StructuredErrorEE9constructIS3_IRKS3_EEEvPT_DpOT0_
FNDA:1810,_ZN9__gnu_cxx13new_allocatorIPN4Json5ValueEE9constructIS3_IS3_EEEvPT_DpOT0_
FNDA:0,_ZN9__gnu_cxx13new_allocatorIN4Json9OurReader9ErrorInfoEE9constructIS3_IRKS3_EEEvPT_DpOT0_
FNDA:60,_ZN9__gnu_cxx13new_allocatorIN4Json6Reader9ErrorInfoEE9constructIS3_IRKS3_EEEvPT_DpOT0_
FNDA:0,_ZN9__gnu_cxx13new_allocatorIPKN4Json12PathArgumentEE7destroyIS4_EEvPT_
FNDA:0,_ZN9__gnu_cxx13new_allocatorISsE7destroyISsEEvPT_
FNDA:0,_ZN9__gnu_cxx13new_allocatorIN4Json12PathArgumentEE7destroyIS2_EEvPT_
FNDA:0,_ZN9__gnu_cxx13new_allocatorIN4Json9OurReader15StructuredErrorEE7destroyIS3_EEvPT_
FNDA:0,_ZN9__gnu_cxx13new_allocatorIN4Json6Reader15StructuredErrorEE7destroyIS3_EEvPT_
FNDA:6380,_ZN9__gnu_cxx13new_allocatorISt13_Rb_tree_nodeISt4pairIKN4Json5Value8CZStringES4_EEE7destroyIS8_EEvPT_
FNDA:170,_ZN9__gnu_cxx13new_allocatorISt13_Rb_tree_nodeISsEE7destroyIS2_EEvPT_
FNDA:1560,_ZN9__gnu_cxx13new_allocatorIPN4Json5ValueEE7destroyIS3_EEvPT_
FNF:93
FNH:32
DA:79,2460
DA:81,2440
DA:86,3210
DA:99,12690
DA:101,12690
DA:102,0
DA:104,12690
DA:109,6550
DA:110,6550
DA:113,21840
DA:114,21840
DA:119,13530
DA:120,13530
DA:124,8110
LF:14
LH:13
end_of_record
SF:/usr/include/c++/4.8/ext/type_traits.h
FN:150,_ZN9__gnu_cxx17__is_null_pointerIcEEbPT_
FN:150,_ZN9__gnu_cxx17__is_null_pointerIKcEEbPT_
FNDA:0,_ZN9__gnu_cxx17__is_null_pointerIcEEbPT_
FNDA:96580,_ZN9__gnu_cxx17__is_null_pointerIKcEEbPT_
FNF:2
FNH:1
DA:150,96580
DA:151,96580
LF:2
LH:2
end_of_record
SF:/usr/include/c++/4.8/iomanip
FN:162,_ZSt7setfillIcESt8_SetfillIT_ES1_
FN:222,_ZSt4setwi
FNDA:0,_ZSt7setfillIcESt8_SetfillIT_ES1_
FNDA:0,_ZSt4setwi
FNF:2
FNH:0
DA:162,0
DA:163,0
DA:222,0
DA:223,0
LF:4
LH:0
end_of_record
SF:/usr/include/c++/4.8/limits
FN:1674,_ZNSt14numeric_limitsIdE8infinityEv
FN:1677,_ZNSt14numeric_limitsIdE9quiet_NaNEv
FNDA:0,_ZNSt14numeric_limitsIdE8infinityEv
FNDA:0,_ZNSt14numeric_limitsIdE9quiet_NaNEv
FNF:2
FNH:0
DA:1674,0
DA:1677,0
LF:2
LH:0
end_of_record
SF:/usr/include/c++/4.8/new
FN:109,_ZnwmPv
FN:115,_ZdlPvS_
FNDA:0,_ZnwmPv
FNDA:0,_ZdlPvS_
FNF:2
FNH:0
DA:109,0
DA:110,0
DA:115,0
LF:3
LH:0
end_of_record
SF:/usr/include/c++/4.8/sstream
FN:64,_ZNSt15basic_stringbufIcSt11char_traitsIcESaIcEED0Ev
FN:64,_ZNSt15basic_stringbufIcSt11char_traitsIcESaIcEED2Ev
FNDA:0,_ZNSt15basic_stringbufIcSt11char_traitsIcESaIcEED0Ev
FNDA:0,_ZNSt15basic_stringbufIcSt11char_traitsIcESaIcEED2Ev
FNF:2
FNH:0
DA:64,0
LF:1
LH:0
end_of_record
SF:/usr/include/c++/4.8/tuple
FN:95,_ZNSt10_Head_baseILm1ESt14default_deleteIN4Json12StreamWriterEELb1EEC2IS3_EEOT_
FN:95,_ZNSt10_Head_baseILm1ESt14default_deleteIN4Json10CharReaderEELb1EEC2IS3_EEOT_
FN:122,_ZNSt10_Head_baseILm1ESt14default_deleteIN4Json12StreamWriterEELb1EE7_M_headERS4_
FN:122,_ZNSt10_Head_baseILm1ESt14default_deleteIN4Json10CharReaderEELb1EE7_M_headERS4_
FN:134,_ZNSt10_Head_baseILm0ERKN4Json5Value8CZStringELb0EEC2ES4_
FN:141,_ZNSt10_Head_baseILm0EPN4Json12StreamWriterELb0EEC2IRS2_EEOT_
FN:141,_ZNSt10_Head_baseILm0EPN4Json10CharReaderELb0EEC2IRS2_EEOT_
FN:169,_ZNSt10_Head_baseILm0EPN4Json12StreamWriterELb0EE7_M_headERS3_
FN:169,_ZNSt10_Head_baseILm0EPN4Json10CharReaderELb0EE7_M_headERS3_
FN:169,_ZNSt10_Head_baseILm0ERKN4Json5Value8CZStringELb0EE7_M_headERS5_
FN:172,_ZNSt10_Head_baseILm0EPN4Json10CharReaderELb0EE7_M_headERKS3_
FN:172,_ZNSt10_Head_baseILm0EPN4Json12StreamWriterELb0EE7_M_headERKS3_
FN:197,_ZNSt11_Tuple_implILm1EIEEC2Ev
FN:197,_ZNSt11_Tuple_implILm2EIEEC2Ev
FN:241,_ZNSt11_Tuple_implILm1EISt14default_deleteIN4Json10CharReaderEEEE7_M_headERS4_
FN:241,_ZNSt11_Tuple_implILm0EIPN4Json12StreamWriterESt14default_deleteIS1_EEE7_M_headERS5_
FN:241,_ZNSt11_Tuple_implILm1EISt14default_deleteIN4Json12StreamWriterEEEE7_M_headERS4_
FN:241,_ZNSt11_Tuple_implILm0EIPN4Json10CharReaderESt14default_deleteIS1_EEE7_M_headERS5_
FN:241,_ZNSt11_Tuple_implILm0EIRKN4Json5Value8CZStringEEE7_M_headERS5_
FN:244,_ZNSt11_Tuple_implILm0EIPN4Json10CharReaderESt14default_deleteIS1_EEE7_M_headERKS5_
FN:244,_ZNSt11_Tuple_implILm0EIPN4Json12StreamWriterESt14default_deleteIS1_EEE7_M_headERKS5_
FN:247,_ZNSt11_Tuple_implILm0EIRKN4Json5Value8CZStringEEE7_M_tailERS5_
FN:256,_ZNSt11_Tuple_implILm0EIRKN4Json5Value8CZStringEEEC2ES4_
FN:262,_ZNSt11_Tuple_implILm1EISt14default_deleteIN4Json12StreamWriterEEEEC2IS3_IEvEEOT_DpOT0_
FN:262,_ZNSt11_Tuple_implILm0EIPN4Json10CharReaderESt14default_deleteIS1_EEEC2IRS2_IS4_EvEEOT_DpOT0_
FN:262,_ZNSt11_Tuple_implILm0EIPN4Json12StreamWriterESt14default_deleteIS1_EEEC2IRS2_IS4_EvEEOT_DpOT0_
FN:262,_ZNSt11_Tuple_implILm1EISt14default_deleteIN4Json10CharReaderEEEEC2IS3_IEvEEOT_DpOT0_
FN:269,_ZNSt11_Tuple_implILm0EIRKN4Json5Value8CZStringEEEC2EOS5_
FN:399,_ZNSt5tupleIIRKN4Json5Value8CZStringEEEC2ES4_
FN:411,_ZNSt5tupleIIRKN4Json5Value8CZStringEEEC2EOS5_
FN:539,_ZNSt5tupleIIPN4Json12StreamWriterESt14default_deleteIS1_EEEC2IRS2_S4_vEEOT_OT0_
FN:539,_ZNSt5tupleIIPN4Json10CharReaderESt14default_deleteIS1_EEEC2IRS2_S4_vEEOT_OT0_
FN:744,_ZSt12__get_helperILm0EPN4Json10CharReaderEISt14default_deleteIS1_EEENSt9__add_refIT0_E4typeERSt11_Tuple_implIXT_EIS6_DpT1_EE
FN:744,_ZSt12__get_helperILm0ERKN4Json5Value8CZStringEIEENSt9__add_refIT0_E4typeERSt11_Tuple_implIXT_EIS6_DpT1_EE
FN:744,_ZSt12__get_helperILm0EPN4Json12StreamWriterEISt14default_deleteIS1_EEENSt9__add_refIT0_E4typeERSt11_Tuple_implIXT_EIS6_DpT1_EE
FN:744,_ZSt12__get_helperILm1ESt14default_deleteIN4Json12StreamWriterEEIEENSt9__add_refIT0_E4typeERSt11_Tuple_implIXT_EIS5_DpT1_EE
FN:744,_ZSt12__get_helperILm1ESt14default_deleteIN4Json10CharReaderEEIEENSt9__add_refIT0_E4typeERSt11_Tuple_implIXT_EIS5_DpT1_EE
FN:749,_ZSt12__get_helperILm0EPN4Json12StreamWriterEISt14default_deleteIS1_EEENSt11__add_c_refIT0_E4typeERKSt11_Tuple_implIXT_EIS6_DpT1_EE
FN:749,_ZSt12__get_helperILm0EPN4Json10CharReaderEISt14default_deleteIS1_EEENSt11__add_c_refIT0_E4typeERKSt11_Tuple_implIXT_EIS6_DpT1_EE
FN:759,_ZSt3getILm0EIRKN4Json5Value8CZStringEEENSt9__add_refINSt13tuple_elementIXT_ESt5tupleIIDpT0_EEE4typeEE4typeERSA_
FN:759,_ZSt3getILm1EIPN4Json12StreamWriterESt14default_deleteIS1_EEENSt9__add_refINSt13tuple_elementIXT_ESt5tupleIIDpT0_EEE4typeEE4typeERSA_
FN:759,_ZSt3getILm1EIPN4Json10CharReaderESt14default_deleteIS1_EEENSt9__add_refINSt13tuple_elementIXT_ESt5tupleIIDpT0_EEE4typeEE4typeERSA_
FN:759,_ZSt3getILm0EIPN4Json10CharReaderESt14default_deleteIS1_EEENSt9__add_refINSt13tuple_elementIXT_ESt5tupleIIDpT0_EEE4typeEE4typeERSA_
FN:759,_ZSt3getILm0EIPN4Json12StreamWriterESt14default_deleteIS1_EEENSt9__add_refINSt13tuple_elementIXT_ESt5tupleIIDpT0_EEE4typeEE4typeERSA_
FN:766,_ZSt3getILm0EIPN4Json12StreamWriterESt14default_deleteIS1_EEENSt11__add_c_refINSt13tuple_elementIXT_ESt5tupleIIDpT0_EEE4typeEE4typeERKSA_
FN:766,_ZSt3getILm0EIPN4Json10CharReaderESt14default_deleteIS1_EEENSt11__add_c_refINSt13tuple_elementIXT_ESt5tupleIIDpT0_EEE4typeEE4typeERKSA_
FN:1074,_ZNSt4pairIKN4Json5Value8CZStringES1_EC2IIRS3_EIEEESt21piecewise_construct_tSt5tupleIIDpT_EES8_IIDpT0_EE
FN:1086,_ZNSt4pairIKN4Json5Value8CZStringES1_EC2IIRS3_EILm0EEIEIEEERSt5tupleIIDpT_EERS7_IIDpT1_EESt12_Index_tupleIIXspT0_EEESG_IIXspT2_EEE
FNDA:0,_ZNSt10_Head_baseILm1ESt14default_deleteIN4Json12StreamWriterEELb1EEC2IS3_EEOT_
FNDA:0,_ZNSt10_Head_baseILm1ESt14default_deleteIN4Json10CharReaderEELb1EEC2IS3_EEOT_
FNDA:0,_ZNSt10_Head_baseILm1ESt14default_deleteIN4Json12StreamWriterEELb1EE7_M_headERS4_
FNDA:0,_ZNSt10_Head_baseILm1ESt14default_deleteIN4Json10CharReaderEELb1EE7_M_headERS4_
FNDA:0,_ZNSt10_Head_baseILm0ERKN4Json5Value8CZStringELb0EEC2ES4_
FNDA:0,_ZNSt10_Head_baseILm0EPN4Json12StreamWriterELb0EEC2IRS2_EEOT_
FNDA:0,_ZNSt10_Head_baseILm0EPN4Json10CharReaderELb0EEC2IRS2_EEOT_
FNDA:0,_ZNSt10_Head_baseILm0ERKN4Json5Value8CZStringELb0EE7_M_headERS5_
FNDA:0,_ZNSt10_Head_baseILm0EPN4Json12StreamWriterELb0EE7_M_headERS3_
FNDA:0,_ZNSt10_Head_baseILm0EPN4Json10CharReaderELb0EE7_M_headERS3_
FNDA:0,_ZNSt10_Head_baseILm0EPN4Json12StreamWriterELb0EE7_M_headERKS3_
FNDA:0,_ZNSt10_Head_baseILm0EPN4Json10CharReaderELb0EE7_M_headERKS3_
FNDA:0,_ZNSt11_Tuple_implILm1EIEEC2Ev
FNDA:0,_ZNSt11_Tuple_implILm2EIEEC2Ev
FNDA:0,_ZNSt11_Tuple_implILm0EIRKN4Json5Value8CZStringEEE7_M_headERS5_
FNDA:0,_ZNSt11_Tuple_implILm1EISt14default_deleteIN4Json12StreamWriterEEEE7_M_headERS4_
FNDA:0,_ZNSt11_Tuple_implILm1EISt14default_deleteIN4Json10CharReaderEEEE7_M_headERS4_
FNDA:0,_ZNSt11_Tuple_implILm0EIPN4Json12StreamWriterESt14default_deleteIS1_EEE7_M_headERS5_
FNDA:0,_ZNSt11_Tuple_implILm0EIPN4Json10CharReaderESt14default_deleteIS1_EEE7_M_headERS5_
FNDA:0,_ZNSt11_Tuple_implILm0EIPN4Json12StreamWriterESt14default_deleteIS1_EEE7_M_headERKS5_
FNDA:0,_ZNSt11_Tuple_implILm0EIPN4Json10CharReaderESt14default_deleteIS1_EEE7_M_headERKS5_
FNDA:0,_ZNSt11_Tuple_implILm0EIRKN4Json5Value8CZStringEEE7_M_tailERS5_
FNDA:0,_ZNSt11_Tuple_implILm0EIRKN4Json5Value8CZStringEEEC2ES4_
FNDA:0,_ZNSt11_Tuple_implILm0EIPN4Json12StreamWriterESt14default_deleteIS1_EEEC2IRS2_IS4_EvEEOT_DpOT0_
FNDA:0,_ZNSt11_Tuple_implILm1EISt14default_deleteIN4Json12StreamWriterEEEEC2IS3_IEvEEOT_DpOT0_
FNDA:0,_ZNSt11_Tuple_implILm0EIPN4Json10CharReaderESt14default_deleteIS1_EEEC2IRS2_IS4_EvEEOT_DpOT0_
FNDA:0,_ZNSt11_Tuple_implILm1EISt14default_deleteIN4Json10CharReaderEEEEC2IS3_IEvEEOT_DpOT0_
FNDA:0,_ZNSt11_Tuple_implILm0EIRKN4Json5Value8CZStringEEEC2EOS5_
FNDA:0,_ZNSt5tupleIIRKN4Json5Value8CZStringEEEC2ES4_
FNDA:0,_ZNSt5tupleIIRKN4Json5Value8CZStringEEEC2EOS5_
FNDA:0,_ZNSt5tupleIIPN4Json12StreamWriterESt14default_deleteIS1_EEEC2IRS2_S4_vEEOT_OT0_
FNDA:0,_ZNSt5tupleIIPN4Json10CharReaderESt14default_deleteIS1_EEEC2IRS2_S4_vEEOT_OT0_
FNDA:0,_ZSt12__get_helperILm0ERKN4Json5Value8CZStringEIEENSt9__add_refIT0_E4typeERSt11_Tuple_implIXT_EIS6_DpT1_EE
FNDA:0,_ZSt12__get_helperILm1ESt14default_deleteIN4Json12StreamWriterEEIEENSt9__add_refIT0_E4typeERSt11_Tuple_implIXT_EIS5_DpT1_EE
FNDA:0,_ZSt12__get_helperILm1ESt14default_deleteIN4Json10CharReaderEEIEENSt9__add_refIT0_E4typeERSt11_Tuple_implIXT_EIS5_DpT1_EE
FNDA:0,_ZSt12__get_helperILm0EPN4Json12StreamWriterEISt14default_deleteIS1_EEENSt9__add_refIT0_E4typeERSt11_Tuple_implIXT_EIS6_DpT1_EE
FNDA:0,_ZSt12__get_helperILm0EPN4Json10CharReaderEISt14default_deleteIS1_EEENSt9__add_refIT0_E4typeERSt11_Tuple_implIXT_EIS6_DpT1_EE
FNDA:0,_ZSt12__get_helperILm0EPN4Json12StreamWriterEISt14default_deleteIS1_EEENSt11__add_c_refIT0_E4typeERKSt11_Tuple_implIXT_EIS6_DpT1_EE
FNDA:0,_ZSt12__get_helperILm0EPN4Json10CharReaderEISt14default_deleteIS1_EEENSt11__add_c_refIT0_E4typeERKSt11_Tuple_implIXT_EIS6_DpT1_EE
FNDA:0,_ZSt3getILm0EIRKN4Json5Value8CZStringEEENSt9__add_refINSt13tuple_elementIXT_ESt5tupleIIDpT0_EEE4typeEE4typeERSA_
FNDA:0,_ZSt3getILm1EIPN4Json12StreamWriterESt14default_deleteIS1_EEENSt9__add_refINSt13tuple_elementIXT_ESt5tupleIIDpT0_EEE4typeEE4typeERSA_
FNDA:0,_ZSt3getILm1EIPN4Json10CharReaderESt14default_deleteIS1_EEENSt9__add_refINSt13tuple_elementIXT_ESt5tupleIIDpT0_EEE4typeEE4typeERSA_
FNDA:0,_ZSt3getILm0EIPN4Json12StreamWriterESt14default_deleteIS1_EEENSt9__add_refINSt13tuple_elementIXT_ESt5tupleIIDpT0_EEE4typeEE4typeERSA_
FNDA:0,_ZSt3getILm0EIPN4Json10CharReaderESt14default_deleteIS1_EEENSt9__add_refINSt13tuple_elementIXT_ESt5tupleIIDpT0_EEE4typeEE4typeERSA_
FNDA:0,_ZSt3getILm0EIPN4Json12StreamWriterESt14default_deleteIS1_EEENSt11__add_c_refINSt13tuple_elementIXT_ESt5tupleIIDpT0_EEE4typeEE4typeERKSA_
FNDA:0,_ZSt3getILm0EIPN4Json10CharReaderESt14default_deleteIS1_EEENSt11__add_c_refINSt13tuple_elementIXT_ESt5tupleIIDpT0_EEE4typeEE4typeERKSA_
FNDA:0,_ZNSt4pairIKN4Json5Value8CZStringES1_EC2IIRS3_EIEEESt21piecewise_construct_tSt5tupleIIDpT_EES8_IIDpT0_EE
FNDA:0,_ZNSt4pairIKN4Json5Value8CZStringES1_EC2IIRS3_EILm0EEIEIEEERSt5tupleIIDpT_EERS7_IIDpT1_EESt12_Index_tupleIIXspT0_EEESG_IIXspT2_EEE
FNF:48
FNH:0
DA:95,0
DA:96,0
DA:122,0
DA:134,0
DA:135,0
DA:141,0
DA:142,0
DA:169,0
DA:172,0
DA:197,0
DA:241,0
DA:244,0
DA:247,0
DA:256,0
DA:257,0
DA:262,0
DA:263,0
DA:264,0
DA:269,0
DA:272,0
DA:273,0
DA:399,0
DA:400,0
DA:411,0
DA:539,0
DA:540,0
DA:744,0
DA:745,0
DA:749,0
DA:750,0
DA:759,0
DA:760,0
DA:766,0
DA:767,0
DA:1074,0
DA:1079,0
DA:1080,0
DA:1086,0
DA:1089,0
DA:1090,0
DA:1091,0
LF:41
LH:0
end_of_record
SF:/usr/include/x86_64-linux-gnu/c++/4.8/bits/gthr-default.h
FN:247,_ZL18__gthread_active_pv
FNDA:0,_ZL18__gthread_active_pv
FNF:1
FNH:0
DA:247,0
DA:251,0
LF:2
LH:0
end_of_record
TN:
SF:/home/diego/Desktop/taller2-appserver/Appserver/src/external/StringUtil/StringUtil.cpp
FN:3,_ZN10StringUtil7toLowerESs
FN:17,_ZN10StringUtil7toUpperESs
FN:31,_ZN10StringUtil10int2stringEi
FN:40,_ZN10StringUtil12stringToCharESs
FN:44,_ZN10StringUtil12charToStringEPc
FN:48,_Z10charToLongPc
FN:52,_Z10longToCharl
FN:61,_ZN10StringUtil13double2stringEd
FN:70,_ZN10StringUtil12float2stringEf
FN:79,_ZN10StringUtil11file_existsEPKc
FN:87,_ZN10StringUtil7str2intESs
FN:94,_ZN10StringUtil9str2floatEPKc
FN:101,_ZN10StringUtil10str2doubleEPKc
FN:108,_ZN10StringUtil9isIntegerEPKc
FN:118,_ZN10StringUtil7isFloatEPKc
FN:148,_ZN10StringUtil5splitERKSscRSt6vectorISsSaISsEE
FN:158,_ZN10StringUtil5splitERKSsc
FN:163,_ZN10StringUtil8splitNewESt6vectorIcSaIcEEc
FN:191,_GLOBAL__sub_I__ZN10StringUtil7toLowerESs
FN:191,_Z41__static_initialization_and_destruction_0ii
FNDA:0,_ZN10StringUtil7toLowerESs
FNDA:0,_ZN10StringUtil7toUpperESs
FNDA:10,_ZN10StringUtil10int2stringEi
FNDA:0,_ZN10StringUtil12stringToCharESs
FNDA:0,_ZN10StringUtil12charToStringEPc
FNDA:0,_Z10charToLongPc
FNDA:0,_Z10longToCharl
FNDA:0,_ZN10StringUtil13double2stringEd
FNDA:0,_ZN10StringUtil12float2stringEf
FNDA:0,_ZN10StringUtil11file_existsEPKc
FNDA:0,_ZN10StringUtil7str2intESs
FNDA:0,_ZN10StringUtil9str2floatEPKc
FNDA:0,_ZN10StringUtil10str2doubleEPKc
FNDA:0,_ZN10StringUtil9isIntegerEPKc
FNDA:0,_ZN10StringUtil7isFloatEPKc
FNDA:0,_ZN10StringUtil5splitERKSscRSt6vectorISsSaISsEE
FNDA:0,_ZN10StringUtil5splitERKSsc
FNDA:0,_ZN10StringUtil8splitNewESt6vectorIcSaIcEEc
FNDA:10,_GLOBAL__sub_I__ZN10StringUtil7toLowerESs
FNDA:10,_Z41__static_initialization_and_destruction_0ii
FNF:20
FNH:3
DA:3,0
DA:4,0
DA:5,0
DA:8,0
DA:9,0
DA:10,0
DA:11,0
DA:14,0
DA:17,0
DA:18,0
DA:19,0
DA:22,0
DA:23,0
DA:24,0
DA:25,0
DA:28,0
DA:31,10
DA:32,10
DA:33,20
DA:34,10
DA:35,10
DA:37,20
DA:40,0
DA:41,0
DA:44,0
DA:45,0
DA:48,0
DA:49,0
DA:52,0
DA:53,0
DA:54,0
DA:55,0
DA:56,0
DA:57,0
DA:58,0
DA:61,0
DA:62,0
DA:63,0
DA:64,0
DA:65,0
DA:67,0
DA:70,0
DA:71,0
DA:72,0
DA:73,0
DA:74,0
DA:76,0
DA:79,0
DA:80,0
DA:81,0
DA:82,0
DA:84,0
DA:87,0
DA:88,0
DA:90,0
DA:91,0
DA:94,0
DA:95,0
DA:97,0
DA:98,0
DA:101,0
DA:102,0
DA:104,0
DA:105,0
DA:108,0
DA:109,0
DA:110,0
DA:111,0
DA:112,0
DA:115,0
DA:118,0
DA:119,0
DA:122,0
DA:123,0
DA:127,0
DA:128,0
DA:132,0
DA:134,0
DA:135,0
DA:136,0
DA:138,0
DA:139,0
DA:142,0
DA:143,0
DA:145,0
DA:148,0
DA:149,0
DA:150,0
DA:151,0
DA:152,0
DA:154,0
DA:158,0
DA:159,0
DA:160,0
DA:163,0
DA:164,0
DA:165,0
DA:191,30
LF:98
LH:7
end_of_record
SF:/usr/include/c++/4.8/bits/alloc_traits.h
FN:253,_ZNSt16allocator_traitsISaISsEE12_S_constructISsIRKSsEEENSt9enable_ifIXsrNS1_18__construct_helperIT_IDpT0_EEE5valueEvE4typeERS0_PS7_DpOS8_
FN:280,_ZNSt16allocator_traitsISaISsEE10_S_destroyISsEENSt9enable_ifIXsrNS1_16__destroy_helperIT_EE5valueEvE4typeERS0_PS5_
FN:305,_ZNSt16allocator_traitsISaISsEE11_S_max_sizeIKS0_EENSt9enable_ifIXsrNS1_16__maxsize_helperIT_EE5valueEmE4typeERS6_
FN:337,_ZNSt16allocator_traitsISaISsEE9_S_selectIKS0_EENSt9enable_ifIXntsrNS1_15__select_helperIT_EE5valueES6_E4typeERS6_
FN:391,_ZNSt16allocator_traitsISaISsEE9constructISsIRKSsEEEDTcl12_S_constructfp_fp0_spcl7forwardIT0_Efp1_EEERS0_PT_DpOS5_
FN:404,_ZNSt16allocator_traitsISaISsEE7destroyISsEEvRS0_PT_
FN:415,_ZNSt16allocator_traitsISaISsEE8max_sizeERKS0_
FN:427,_ZNSt16allocator_traitsISaISsEE37select_on_container_copy_constructionERKS0_
FNDA:0,_ZNSt16allocator_traitsISaISsEE12_S_constructISsIRKSsEEENSt9enable_ifIXsrNS1_18__construct_helperIT_IDpT0_EEE5valueEvE4typeERS0_PS7_DpOS8_
FNDA:0,_ZNSt16allocator_traitsISaISsEE10_S_destroyISsEENSt9enable_ifIXsrNS1_16__destroy_helperIT_EE5valueEvE4typeERS0_PS5_
FNDA:0,_ZNSt16allocator_traitsISaISsEE11_S_max_sizeIKS0_EENSt9enable_ifIXsrNS1_16__maxsize_helperIT_EE5valueEmE4typeERS6_
FNDA:0,_ZNSt16allocator_traitsISaISsEE9_S_selectIKS0_EENSt9enable_ifIXntsrNS1_15__select_helperIT_EE5valueES6_E4typeERS6_
FNDA:0,_ZNSt16allocator_traitsISaISsEE9constructISsIRKSsEEEDTcl12_S_constructfp_fp0_spcl7forwardIT0_Efp1_EEERS0_PT_DpOS5_
FNDA:0,_ZNSt16allocator_traitsISaISsEE7destroyISsEEvRS0_PT_
FNDA:0,_ZNSt16allocator_traitsISaISsEE8max_sizeERKS0_
FNDA:0,_ZNSt16allocator_traitsISaISsEE37select_on_container_copy_constructionERKS0_
FNF:8
FNH:0
DA:253,0
DA:254,0
DA:280,0
DA:281,0
DA:305,0
DA:306,0
DA:337,0
DA:338,0
DA:391,0
DA:393,0
DA:404,0
DA:405,0
DA:415,0
DA:416,0
DA:427,0
DA:428,0
LF:16
LH:0
end_of_record
SF:/usr/include/c++/4.8/bits/allocator.h
FN:113,_ZNSaISsEC2Ev
FN:115,_ZNSaISsEC2ERKS_
FN:121,_ZNSaISsED2Ev
FN:133,_ZSteqIcEbRKSaIT_ES3_
FNDA:0,_ZNSaISsEC2Ev
FNDA:0,_ZNSaISsEC2ERKS_
FNDA:0,_ZNSaISsED2Ev
FNDA:0,_ZSteqIcEbRKSaIT_ES3_
FNF:4
FNH:0
DA:113,0
DA:115,0
DA:116,0
DA:121,0
DA:133,0
DA:134,0
LF:6
LH:0
end_of_record
SF:/usr/include/c++/4.8/bits/basic_string.h
FN:272,_ZNSs12_Alloc_hiderD2Ev
FN:272,_ZNSs12_Alloc_hiderC2ERKS_
FN:384,_ZNSs13_S_copy_charsIN9__gnu_cxx17__normal_iteratorIPcSt6vectorIcSaIcEEEEEEvS2_T_S7_
FN:1721,_ZNSs16_S_construct_auxIN9__gnu_cxx17__normal_iteratorIPcSt6vectorIcSaIcEEEEEES2_T_S7_RKS4_St12__false_type
FN:1721,_ZNSs16_S_construct_auxIPcEES0_T_S1_RKSaIcESt12__false_type
FN:1743,_ZNSs12_S_constructIPcEES0_T_S1_RKSaIcE
FN:1743,_ZNSs12_S_constructIN9__gnu_cxx17__normal_iteratorIPcSt6vectorIcSaIcEEEEEES2_T_S7_RKS4_
FNDA:0,_ZNSs12_Alloc_hiderC2ERKS_
FNDA:0,_ZNSs12_Alloc_hiderD2Ev
FNDA:0,_ZNSs13_S_copy_charsIN9__gnu_cxx17__normal_iteratorIPcSt6vectorIcSaIcEEEEEEvS2_T_S7_
FNDA:0,_ZNSs16_S_construct_auxIPcEES0_T_S1_RKSaIcESt12__false_type
FNDA:0,_ZNSs16_S_construct_auxIN9__gnu_cxx17__normal_iteratorIPcSt6vectorIcSaIcEEEEEES2_T_S7_RKS4_St12__false_type
FNDA:0,_ZNSs12_S_constructIPcEES0_T_S1_RKSaIcE
FNDA:0,_ZNSs12_S_constructIN9__gnu_cxx17__normal_iteratorIPcSt6vectorIcSaIcEEEEEES2_T_S7_RKS4_
FNF:7
FNH:0
DA:272,0
DA:384,0
DA:386,0
DA:387,0
DA:388,0
DA:1721,0
DA:1725,0
DA:1743,0
DA:1746,0
LF:9
LH:0
end_of_record
SF:/usr/include/c++/4.8/bits/basic_string.tcc
FN:123,_ZNSs12_S_constructIN9__gnu_cxx17__normal_iteratorIPcSt6vectorIcSaIcEEEEEES2_T_S7_RKS4_St20forward_iterator_tag
FN:123,_ZNSs12_S_constructIPcEES0_T_S1_RKSaIcESt20forward_iterator_tag
FN:227,_ZNSsC2IPcEET_S1_RKSaIcE
FN:227,_ZNSsC2IN9__gnu_cxx17__normal_iteratorIPcSt6vectorIcSaIcEEEEEET_S7_RKS4_
FNDA:0,_ZNSs12_S_constructIPcEES0_T_S1_RKSaIcESt20forward_iterator_tag
FNDA:0,_ZNSs12_S_constructIN9__gnu_cxx17__normal_iteratorIPcSt6vectorIcSaIcEEEEEES2_T_S7_RKS4_St20forward_iterator_tag
FNDA:0,_ZNSsC2IPcEET_S1_RKSaIcE
FNDA:0,_ZNSsC2IN9__gnu_cxx17__normal_iteratorIPcSt6vectorIcSaIcEEEEEET_S7_RKS4_
FNF:4
FNH:0
DA:123,0
DA:128,0
DA:129,0
DA:132,0
DA:133,0
DA:136,0
DA:138,0
DA:140,0
DA:141,=====
DA:143,=====
DA:144,=====
DA:146,0
DA:147,0
DA:227,0
DA:229,0
DA:230,0
LF:16
LH:0
end_of_record
SF:/usr/include/c++/4.8/bits/char_traits.h
FN:242,_ZNSt11char_traitsIcE6assignERcRKc
FN:270,_ZNSt11char_traitsIcE4copyEPcPKcm
FNDA:0,_ZNSt11char_traitsIcE6assignERcRKc
FNDA:0,_ZNSt11char_traitsIcE4copyEPcPKcm
FNF:2
FNH:0
DA:242,0
DA:243,0
DA:270,0
DA:271,0
LF:4
LH:0
end_of_record
SF:/usr/include/c++/4.8/bits/ios_base.h
FN:119,_ZStanSt13_Ios_OpenmodeS_
FN:123,_ZStorSt13_Ios_OpenmodeS_
FN:159,_ZStanSt12_Ios_IostateS_
FN:163,_ZStorSt12_Ios_IostateS_
FNDA:0,_ZStanSt13_Ios_OpenmodeS_
FNDA:0,_ZStorSt13_Ios_OpenmodeS_
FNDA:0,_ZStanSt12_Ios_IostateS_
FNDA:0,_ZStorSt12_Ios_IostateS_
FNF:4
FNH:0
DA:119,0
DA:120,0
DA:123,0
DA:124,0
DA:159,0
DA:160,0
DA:163,0
DA:164,0
LF:8
LH:0
end_of_record
SF:/usr/include/c++/4.8/bits/move.h
FN:47,_ZSt11__addressofISsEPT_RS0_
FN:76,_ZSt7forwardISsEOT_RNSt16remove_referenceIS0_E4typeE
FN:76,_ZSt7forwardIRKSsEOT_RNSt16remove_referenceIS2_E4typeE
FN:101,_ZSt4moveIRSsEONSt16remove_referenceIT_E4typeEOS2_
FNDA:0,_ZSt11__addressofISsEPT_RS0_
FNDA:0,_ZSt7forwardISsEOT_RNSt16remove_referenceIS0_E4typeE
FNDA:0,_ZSt7forwardIRKSsEOT_RNSt16remove_referenceIS2_E4typeE
FNDA:0,_ZSt4moveIRSsEONSt16remove_referenceIT_E4typeEOS2_
FNF:4
FNH:0
DA:47,0
DA:50,0
DA:76,0
DA:77,0
DA:101,0
DA:102,0
LF:6
LH:0
end_of_record
SF:/usr/include/c++/4.8/bits/stl_algobase.h
FN:216,_ZSt3maxImERKT_S2_S2_
FN:277,_ZSt12__niter_baseIN9__gnu_cxx17__normal_iteratorIPcSsEEENSt11_Niter_baseIT_E13iterator_typeES5_
FN:277,_ZSt12__niter_baseIPcENSt11_Niter_baseIT_E13iterator_typeES2_
FN:288,_ZSt12__miter_baseIN9__gnu_cxx17__normal_iteratorIPcSsEEENSt11_Miter_baseIT_E13iterator_typeES5_
FN:368,_ZNSt11__copy_moveILb0ELb1ESt26random_access_iterator_tagE8__copy_mIcEEPT_PKS3_S6_S4_
FN:379,_ZSt13__copy_move_aILb0EPcS0_ET1_T0_S2_S1_
FN:424,_ZSt14__copy_move_a2ILb0EN9__gnu_cxx17__normal_iteratorIPcSsEES2_ET1_T0_S5_S4_
FN:450,_ZSt4copyIN9__gnu_cxx17__normal_iteratorIPcSsEES2_ET0_T_S5_S4_
FNDA:0,_ZSt3maxImERKT_S2_S2_
FNDA:0,_ZSt12__niter_baseIPcENSt11_Niter_baseIT_E13iterator_typeES2_
FNDA:0,_ZSt12__niter_baseIN9__gnu_cxx17__normal_iteratorIPcSsEEENSt11_Niter_baseIT_E13iterator_typeES5_
FNDA:0,_ZSt12__miter_baseIN9__gnu_cxx17__normal_iteratorIPcSsEEENSt11_Miter_baseIT_E13iterator_typeES5_
FNDA:0,_ZNSt11__copy_moveILb0ELb1ESt26random_access_iterator_tagE8__copy_mIcEEPT_PKS3_S6_S4_
FNDA:0,_ZSt13__copy_move_aILb0EPcS0_ET1_T0_S2_S1_
FNDA:0,_ZSt14__copy_move_a2ILb0EN9__gnu_cxx17__normal_iteratorIPcSsEES2_ET1_T0_S5_S4_
FNDA:0,_ZSt4copyIN9__gnu_cxx17__normal_iteratorIPcSsEES2_ET0_T_S5_S4_
FNF:8
FNH:0
DA:216,0
DA:221,0
DA:222,0
DA:223,0
DA:277,0
DA:278,0
DA:288,0
DA:289,0
DA:368,0
DA:370,0
DA:371,0
DA:372,0
DA:373,0
DA:379,0
DA:387,0
DA:390,0
DA:424,0
DA:428,0
DA:450,0
DA:460,0
LF:20
LH:0
end_of_record
SF:/usr/include/c++/4.8/bits/stl_construct.h
FN:74,_ZSt10_ConstructISsIRKSsEEvPT_DpOT0_
FN:74,_ZSt10_ConstructISsISsEEvPT_DpOT0_
FN:92,_ZSt8_DestroyISsEvPT_
FN:100,_ZNSt12_Destroy_auxILb0EE9__destroyIPSsEEvT_S3_
FN:122,_ZSt8_DestroyIPSsEvT_S1_
FN:148,_ZSt8_DestroyIPSsSsEvT_S1_RSaIT0_E
FNDA:0,_ZSt10_ConstructISsISsEEvPT_DpOT0_
FNDA:0,_ZSt10_ConstructISsIRKSsEEvPT_DpOT0_
FNDA:0,_ZSt8_DestroyISsEvPT_
FNDA:0,_ZNSt12_Destroy_auxILb0EE9__destroyIPSsEEvT_S3_
FNDA:0,_ZSt8_DestroyIPSsEvT_S1_
FNDA:0,_ZSt8_DestroyIPSsSsEvT_S1_RSaIT0_E
FNF:6
FNH:0
DA:74,0
DA:75,0
DA:92,0
DA:93,0
DA:100,0
DA:102,0
DA:103,0
DA:104,0
DA:122,0
DA:126,0
DA:128,0
DA:148,0
DA:151,0
DA:152,0
LF:14
LH:0
end_of_record
SF:/usr/include/c++/4.8/bits/stl_iterator.h
FN:726,_ZN9__gnu_cxx17__normal_iteratorIPcSt6vectorIcSaIcEEEC2ERKS1_
FN:726,_ZN9__gnu_cxx17__normal_iteratorIPKSsSt6vectorISsSaISsEEEC2ERKS2_
FN:726,_ZN9__gnu_cxx17__normal_iteratorIPcSsEC2ERKS1_
FN:738,_ZNK9__gnu_cxx17__normal_iteratorIPKSsSt6vectorISsSaISsEEEdeEv
FN:738,_ZNK9__gnu_cxx17__normal_iteratorIPcSt6vectorIcSaIcEEEdeEv
FN:746,_ZN9__gnu_cxx17__normal_iteratorIPKSsSt6vectorISsSaISsEEEppEv
FN:746,_ZN9__gnu_cxx17__normal_iteratorIPcSt6vectorIcSaIcEEEppEv
FN:790,_ZNK9__gnu_cxx17__normal_iteratorIPcSsE4baseEv
FN:790,_ZNK9__gnu_cxx17__normal_iteratorIPKSsSt6vectorISsSaISsEEE4baseEv
FN:790,_ZNK9__gnu_cxx17__normal_iteratorIPcSt6vectorIcSaIcEEE4baseEv
FN:811,_ZN9__gnu_cxxeqIPcSt6vectorIcSaIcEEEEbRKNS_17__normal_iteratorIT_T0_EESA_
FN:823,_ZN9__gnu_cxxneIPcSt6vectorIcSaIcEEEEbRKNS_17__normal_iteratorIT_T0_EESA_
FN:823,_ZN9__gnu_cxxneIPKSsSt6vectorISsSaISsEEEEbRKNS_17__normal_iteratorIT_T0_EESB_
FN:896,_ZN9__gnu_cxxmiIPcSt6vectorIcSaIcEEEENS_17__normal_iteratorIT_T0_E15difference_typeERKS8_SB_
FN:950,_ZNSt13move_iteratorIPSsEC2ES0_
FN:958,_ZNKSt13move_iteratorIPSsE4baseEv
FN:962,_ZNKSt13move_iteratorIPSsEdeEv
FN:970,_ZNSt13move_iteratorIPSsEppEv
FN:1037,_ZSteqIPSsEbRKSt13move_iteratorIT_ES5_
FN:1049,_ZStneIPSsEbRKSt13move_iteratorIT_ES5_
FN:1132,_ZSt32__make_move_if_noexcept_iteratorIPSsSt13move_iteratorIS0_EET0_T_
FNDA:0,_ZN9__gnu_cxx17__normal_iteratorIPKSsSt6vectorISsSaISsEEEC2ERKS2_
FNDA:0,_ZN9__gnu_cxx17__normal_iteratorIPcSt6vectorIcSaIcEEEC2ERKS1_
FNDA:0,_ZN9__gnu_cxx17__normal_iteratorIPcSsEC2ERKS1_
FNDA:0,_ZNK9__gnu_cxx17__normal_iteratorIPcSt6vectorIcSaIcEEEdeEv
FNDA:0,_ZNK9__gnu_cxx17__normal_iteratorIPKSsSt6vectorISsSaISsEEEdeEv
FNDA:0,_ZN9__gnu_cxx17__normal_iteratorIPcSt6vectorIcSaIcEEEppEv
FNDA:0,_ZN9__gnu_cxx17__normal_iteratorIPKSsSt6vectorISsSaISsEEEppEv
FNDA:0,_ZNK9__gnu_cxx17__normal_iteratorIPcSt6vectorIcSaIcEEE4baseEv
FNDA:0,_ZNK9__gnu_cxx17__normal_iteratorIPKSsSt6vectorISsSaISsEEE4baseEv
FNDA:0,_ZNK9__gnu_cxx17__normal_iteratorIPcSsE4baseEv
FNDA:0,_ZN9__gnu_cxxeqIPcSt6vectorIcSaIcEEEEbRKNS_17__normal_iteratorIT_T0_EESA_
FNDA:0,_ZN9__gnu_cxxneIPcSt6vectorIcSaIcEEEEbRKNS_17__normal_iteratorIT_T0_EESA_
FNDA:0,_ZN9__gnu_cxxneIPKSsSt6vectorISsSaISsEEEEbRKNS_17__normal_iteratorIT_T0_EESB_
FNDA:0,_ZN9__gnu_cxxmiIPcSt6vectorIcSaIcEEEENS_17__normal_iteratorIT_T0_E15difference_typeERKS8_SB_
FNDA:0,_ZNSt13move_iteratorIPSsEC2ES0_
FNDA:0,_ZNKSt13move_iteratorIPSsE4baseEv
FNDA:0,_ZNKSt13move_iteratorIPSsEdeEv
FNDA:0,_ZNSt13move_iteratorIPSsEppEv
FNDA:0,_ZSteqIPSsEbRKSt13move_iteratorIT_ES5_
FNDA:0,_ZStneIPSsEbRKSt13move_iteratorIT_ES5_
FNDA:0,_ZSt32__make_move_if_noexcept_iteratorIPSsSt13move_iteratorIS0_EET0_T_
FNF:21
FNH:0
DA:726,0
DA:738,0
DA:739,0
DA:746,0
DA:748,0
DA:749,0
DA:790,0
DA:791,0
DA:811,0
DA:813,0
DA:823,0
DA:825,0
DA:896,0
DA:898,0
DA:950,0
DA:951,0
DA:958,0
DA:959,0
DA:962,0
DA:963,0
DA:970,0
DA:972,0
DA:973,0
DA:1037,0
DA:1039,0
DA:1049,0
DA:1051,0
DA:1132,0
DA:1133,0
LF:29
LH:0
end_of_record
SF:/usr/include/c++/4.8/bits/stl_iterator_base_funcs.h
FN:90,_ZSt10__distanceIN9__gnu_cxx17__normal_iteratorIPcSt6vectorIcSaIcEEEEENSt15iterator_traitsIT_E15difference_typeES8_S8_St26random_access_iterator_tag
FN:90,_ZSt10__distanceIPcENSt15iterator_traitsIT_E15difference_typeES2_S2_St26random_access_iterator_tag
FN:114,_ZSt8distanceIN9__gnu_cxx17__normal_iteratorIPcSt6vectorIcSaIcEEEEENSt15iterator_traitsIT_E15difference_typeES8_S8_
FN:114,_ZSt8distanceIPcENSt15iterator_traitsIT_E15difference_typeES2_S2_
FNDA:0,_ZSt10__distanceIPcENSt15iterator_traitsIT_E15difference_typeES2_S2_St26random_access_iterator_tag
FNDA:0,_ZSt10__distanceIN9__gnu_cxx17__normal_iteratorIPcSt6vectorIcSaIcEEEEENSt15iterator_traitsIT_E15difference_typeES8_S8_St26random_access_iterator_tag
FNDA:0,_ZSt8distanceIPcENSt15iterator_traitsIT_E15difference_typeES2_S2_
FNDA:0,_ZSt8distanceIN9__gnu_cxx17__normal_iteratorIPcSt6vectorIcSaIcEEEEENSt15iterator_traitsIT_E15difference_typeES8_S8_
FNF:4
FNH:0
DA:90,0
DA:96,0
DA:114,0
DA:118,0
LF:4
LH:0
end_of_record
SF:/usr/include/c++/4.8/bits/stl_iterator_base_types.h
FN:201,_ZSt19__iterator_categoryIPcENSt15iterator_traitsIT_E17iterator_categoryERKS2_
FN:201,_ZSt19__iterator_categoryIN9__gnu_cxx17__normal_iteratorIPcSt6vectorIcSaIcEEEEENSt15iterator_traitsIT_E17iterator_categoryERKS8_
FN:212,_ZNSt10_Iter_baseIPcLb0EE7_S_baseES0_
FN:212,_ZNSt10_Iter_baseIN9__gnu_cxx17__normal_iteratorIPcSsEELb0EE7_S_baseES3_
FN:220,_ZNSt10_Iter_baseIN9__gnu_cxx17__normal_iteratorIPcSsEELb1EE7_S_baseES3_
FNDA:0,_ZSt19__iterator_categoryIPcENSt15iterator_traitsIT_E17iterator_categoryERKS2_
FNDA:0,_ZSt19__iterator_categoryIN9__gnu_cxx17__normal_iteratorIPcSt6vectorIcSaIcEEEEENSt15iterator_traitsIT_E17iterator_categoryERKS8_
FNDA:0,_ZNSt10_Iter_baseIPcLb0EE7_S_baseES0_
FNDA:0,_ZNSt10_Iter_baseIN9__gnu_cxx17__normal_iteratorIPcSsEELb0EE7_S_baseES3_
FNDA:0,_ZNSt10_Iter_baseIN9__gnu_cxx17__normal_iteratorIPcSsEELb1EE7_S_baseES3_
FNF:5
FNH:0
DA:201,0
DA:202,0
DA:212,0
DA:213,0
DA:220,0
DA:221,0
LF:6
LH:0
end_of_record
SF:/usr/include/c++/4.8/bits/stl_uninitialized.h
FN:68,_ZNSt20__uninitialized_copyILb0EE13__uninit_copyIN9__gnu_cxx17__normal_iteratorIPKSsSt6vectorISsSaISsEEEEPSsEET0_T_SC_SB_
FN:68,_ZNSt20__uninitialized_copyILb0EE13__uninit_copyISt13move_iteratorIPSsES3_EET0_T_S6_S5_
FN:107,_ZSt18uninitialized_copyISt13move_iteratorIPSsES1_ET0_T_S4_S3_
FN:107,_ZSt18uninitialized_copyIN9__gnu_cxx17__normal_iteratorIPKSsSt6vectorISsSaISsEEEEPSsET0_T_SA_S9_
FN:256,_ZSt22__uninitialized_copy_aIN9__gnu_cxx17__normal_iteratorIPKSsSt6vectorISsSaISsEEEEPSsSsET0_T_SA_S9_RSaIT1_E
FN:256,_ZSt22__uninitialized_copy_aISt13move_iteratorIPSsES1_SsET0_T_S4_S3_RSaIT1_E
FN:274,_ZSt34__uninitialized_move_if_noexcept_aIPSsS0_SaISsEET0_T_S3_S2_RT1_
FNDA:0,_ZNSt20__uninitialized_copyILb0EE13__uninit_copyISt13move_iteratorIPSsES3_EET0_T_S6_S5_
FNDA:0,_ZNSt20__uninitialized_copyILb0EE13__uninit_copyIN9__gnu_cxx17__normal_iteratorIPKSsSt6vectorISsSaISsEEEEPSsEET0_T_SC_SB_
FNDA:0,_ZSt18uninitialized_copyISt13move_iteratorIPSsES1_ET0_T_S4_S3_
FNDA:0,_ZSt18uninitialized_copyIN9__gnu_cxx17__normal_iteratorIPKSsSt6vectorISsSaISsEEEEPSsET0_T_SA_S9_
FNDA:0,_ZSt22__uninitialized_copy_aISt13move_iteratorIPSsES1_SsET0_T_S4_S3_RSaIT1_E
FNDA:0,_ZSt22__uninitialized_copy_aIN9__gnu_cxx17__normal_iteratorIPKSsSt6vectorISsSaISsEEEEPSsSsET0_T_SA_S9_RSaIT1_E
FNDA:0,_ZSt34__uninitialized_move_if_noexcept_aIPSsS0_SaISsEET0_T_S3_S2_RT1_
FNF:7
FNH:0
DA:68,0
DA:71,0
DA:74,0
DA:75,0
DA:76,0
DA:78,=====
DA:80,=====
DA:81,=====
DA:107,0
DA:117,0
DA:256,0
DA:258,0
DA:274,0
DA:281,0
LF:14
LH:0
end_of_record
SF:/usr/include/c++/4.8/bits/stl_vector.h
FN:79,_ZNSt12_Vector_baseISsSaISsEE12_Vector_implD2Ev
FN:86,_ZNSt12_Vector_baseISsSaISsEE12_Vector_implC2Ev
FN:90,_ZNSt12_Vector_baseISsSaISsEE12_Vector_implC2ERKS0_
FN:113,_ZNSt12_Vector_baseISsSaISsEE19_M_get_Tp_allocatorEv
FN:117,_ZNKSt12_Vector_baseISsSaISsEE19_M_get_Tp_allocatorEv
FN:124,_ZNSt12_Vector_baseISsSaISsEEC2Ev
FN:134,_ZNSt12_Vector_baseISsSaISsEEC2EmRKS0_
FN:159,_ZNSt12_Vector_baseISsSaISsEED2Ev
FN:167,_ZNSt12_Vector_baseISsSaISsEE11_M_allocateEm
FN:171,_ZNSt12_Vector_baseISsSaISsEE13_M_deallocateEPSsm
FN:179,_ZNSt12_Vector_baseISsSaISsEE17_M_create_storageEm
FN:248,_ZNSt6vectorISsSaISsEEC2Ev
FN:310,_ZNSt6vectorISsSaISsEEC2ERKS1_
FN:414,_ZNSt6vectorISsSaISsEED2Ev
FN:538,_ZNSt6vectorIcSaIcEE5beginEv
FN:547,_ZNKSt6vectorISsSaISsEE5beginEv
FN:556,_ZNSt6vectorIcSaIcEE3endEv
FN:565,_ZNKSt6vectorISsSaISsEE3endEv
FN:645,_ZNKSt6vectorISsSaISsEE4sizeEv
FN:650,_ZNKSt6vectorISsSaISsEE8max_sizeEv
FN:901,_ZNSt6vectorISsSaISsEE9push_backERKSs
FN:1336,_ZNKSt6vectorISsSaISsEE12_M_check_lenEmPKc
FNDA:0,_ZNSt12_Vector_baseISsSaISsEE12_Vector_implD2Ev
FNDA:0,_ZNSt12_Vector_baseISsSaISsEE12_Vector_implC2Ev
FNDA:0,_ZNSt12_Vector_baseISsSaISsEE12_Vector_implC2ERKS0_
FNDA:0,_ZNSt12_Vector_baseISsSaISsEE19_M_get_Tp_allocatorEv
FNDA:0,_ZNKSt12_Vector_baseISsSaISsEE19_M_get_Tp_allocatorEv
FNDA:0,_ZNSt12_Vector_baseISsSaISsEEC2Ev
FNDA:0,_ZNSt12_Vector_baseISsSaISsEEC2EmRKS0_
FNDA:0,_ZNSt12_Vector_baseISsSaISsEED2Ev
FNDA:0,_ZNSt12_Vector_baseISsSaISsEE11_M_allocateEm
FNDA:0,_ZNSt12_Vector_baseISsSaISsEE13_M_deallocateEPSsm
FNDA:0,_ZNSt12_Vector_baseISsSaISsEE17_M_create_storageEm
FNDA:0,_ZNSt6vectorISsSaISsEEC2Ev
FNDA:0,_ZNSt6vectorISsSaISsEEC2ERKS1_
FNDA:0,_ZNSt6vectorISsSaISsEED2Ev
FNDA:0,_ZNSt6vectorIcSaIcEE5beginEv
FNDA:0,_ZNKSt6vectorISsSaISsEE5beginEv
FNDA:0,_ZNSt6vectorIcSaIcEE3endEv
FNDA:0,_ZNKSt6vectorISsSaISsEE3endEv
FNDA:0,_ZNKSt6vectorISsSaISsEE4sizeEv
FNDA:0,_ZNKSt6vectorISsSaISsEE8max_sizeEv
FNDA:0,_ZNSt6vectorISsSaISsEE9push_backERKSs
FNDA:0,_ZNKSt6vectorISsSaISsEE12_M_check_lenEmPKc
FNF:22
FNH:0
DA:79,0
DA:86,0
DA:87,0
DA:88,0
DA:90,0
DA:91,0
DA:92,0
DA:113,0
DA:114,0
DA:117,0
DA:118,0
DA:124,0
DA:125,0
DA:134,0
DA:135,0
DA:136,0
DA:159,0
DA:160,0
DA:161,0
DA:167,0
DA:168,0
DA:171,0
DA:173,0
DA:174,0
DA:175,0
DA:179,0
DA:181,0
DA:182,0
DA:183,0
DA:184,0
DA:248,0
DA:249,0
DA:310,0
DA:312,0
DA:313,0
DA:316,0
DA:317,0
DA:414,0
DA:415,0
DA:416,0
DA:538,0
DA:539,0
DA:547,0
DA:548,0
DA:556,0
DA:557,0
DA:565,0
DA:566,0
DA:645,0
DA:646,0
DA:650,0
DA:651,0
DA:901,0
DA:903,0
DA:905,0
DA:906,0
DA:907,0
DA:911,0
DA:915,0
DA:1336,0
DA:1338,0
DA:1339,0
DA:1341,0
DA:1342,0
LF:64
LH:0
end_of_record
SF:/usr/include/c++/4.8/bits/vector.tcc
FN:399,_ZNSt6vectorISsSaISsEE19_M_emplace_back_auxIIRKSsEEEvDpOT_
FNDA:0,_ZNSt6vectorISsSaISsEE19_M_emplace_back_auxIIRKSsEEEvDpOT_
FNF:1
FNH:0
DA:399,0
DA:403,0
DA:404,0
DA:405,0
DA:408,0
DA:409,0
DA:410,0
DA:412,0
DA:415,0
DA:417,0
DA:419,=====
DA:421,=====
DA:422,=====
DA:424,=====
DA:425,=====
DA:426,=====
DA:428,0
DA:429,0
DA:430,0
DA:432,0
DA:433,0
DA:434,0
DA:435,0
DA:436,0
LF:24
LH:0
end_of_record
SF:/usr/include/c++/4.8/ext/alloc_traits.h
FN:166,_ZN9__gnu_cxx14__alloc_traitsISaISsEE17_S_select_on_copyERKS1_
FNDA:0,_ZN9__gnu_cxx14__alloc_traitsISaISsEE17_S_select_on_copyERKS1_
FNF:1
FNH:0
DA:166,0
DA:167,0
LF:2
LH:0
end_of_record
SF:/usr/include/c++/4.8/ext/atomicity.h
FN:48,_ZN9__gnu_cxxL18__exchange_and_addEPVii
FN:65,_ZN9__gnu_cxxL25__exchange_and_add_singleEPii
FN:78,_ZN9__gnu_cxxL27__exchange_and_add_dispatchEPii
FNDA:0,_ZN9__gnu_cxxL18__exchange_and_addEPVii
FNDA:0,_ZN9__gnu_cxxL25__exchange_and_add_singleEPii
FNDA:0,_ZN9__gnu_cxxL27__exchange_and_add_dispatchEPii
FNF:3
FNH:0
DA:48,0
DA:49,0
DA:65,0
DA:67,0
DA:68,0
DA:69,0
DA:78,0
DA:81,0
DA:82,0
DA:84,0
LF:10
LH:0
end_of_record
SF:/usr/include/c++/4.8/ext/new_allocator.h
FN:79,_ZN9__gnu_cxx13new_allocatorIcEC2Ev
FN:79,_ZN9__gnu_cxx13new_allocatorISsEC2Ev
FN:81,_ZN9__gnu_cxx13new_allocatorISsEC2ERKS1_
FN:81,_ZN9__gnu_cxx13new_allocatorIcEC2ERKS1_
FN:86,_ZN9__gnu_cxx13new_allocatorISsED2Ev
FN:86,_ZN9__gnu_cxx13new_allocatorIcED2Ev
FN:99,_ZN9__gnu_cxx13new_allocatorISsE8allocateEmPKv
FN:109,_ZN9__gnu_cxx13new_allocatorISsE10deallocateEPSsm
FN:113,_ZNK9__gnu_cxx13new_allocatorISsE8max_sizeEv
FN:119,_ZN9__gnu_cxx13new_allocatorISsE9constructISsIRKSsEEEvPT_DpOT0_
FN:124,_ZN9__gnu_cxx13new_allocatorISsE7destroyISsEEvPT_
FNDA:0,_ZN9__gnu_cxx13new_allocatorISsEC2Ev
FNDA:0,_ZN9__gnu_cxx13new_allocatorIcEC2Ev
FNDA:0,_ZN9__gnu_cxx13new_allocatorISsEC2ERKS1_
FNDA:0,_ZN9__gnu_cxx13new_allocatorIcEC2ERKS1_
FNDA:0,_ZN9__gnu_cxx13new_allocatorISsED2Ev
FNDA:0,_ZN9__gnu_cxx13new_allocatorIcED2Ev
FNDA:0,_ZN9__gnu_cxx13new_allocatorISsE8allocateEmPKv
FNDA:0,_ZN9__gnu_cxx13new_allocatorISsE10deallocateEPSsm
FNDA:0,_ZNK9__gnu_cxx13new_allocatorISsE8max_sizeEv
FNDA:0,_ZN9__gnu_cxx13new_allocatorISsE9constructISsIRKSsEEEvPT_DpOT0_
FNDA:0,_ZN9__gnu_cxx13new_allocatorISsE7destroyISsEEvPT_
FNF:11
FNH:0
DA:79,0
DA:81,0
DA:86,0
DA:99,0
DA:101,0
DA:102,0
DA:104,0
DA:109,0
DA:110,0
DA:113,0
DA:114,0
DA:119,0
DA:120,0
DA:124,0
LF:14
LH:0
end_of_record
SF:/usr/include/c++/4.8/ext/type_traits.h
FN:150,_ZN9__gnu_cxx17__is_null_pointerIcEEbPT_
FN:155,_ZN9__gnu_cxx17__is_null_pointerINS_17__normal_iteratorIPcSt6vectorIcSaIcEEEEEEbT_
FNDA:0,_ZN9__gnu_cxx17__is_null_pointerIcEEbPT_
FNDA:0,_ZN9__gnu_cxx17__is_null_pointerINS_17__normal_iteratorIPcSt6vectorIcSaIcEEEEEEbT_
FNF:2
FNH:0
DA:150,0
DA:151,0
DA:155,0
DA:156,0
LF:4
LH:0
end_of_record
SF:/usr/include/c++/4.8/iostream
DA:74,10
LF:1
LH:1
end_of_record
SF:/usr/include/c++/4.8/new
FN:109,_ZnwmPv
FN:115,_ZdlPvS_
FNDA:0,_ZnwmPv
FNDA:0,_ZdlPvS_
FNF:2
FNH:0
DA:109,0
DA:110,0
DA:115,0
LF:3
LH:0
end_of_record
SF:/usr/include/c++/4.8/sstream
FN:64,_ZNSt15basic_stringbufIcSt11char_traitsIcESaIcEED2Ev
FN:64,_ZNSt15basic_stringbufIcSt11char_traitsIcESaIcEED0Ev
FNDA:0,_ZNSt15basic_stringbufIcSt11char_traitsIcESaIcEED0Ev
FNDA:0,_ZNSt15basic_stringbufIcSt11char_traitsIcESaIcEED2Ev
FNF:2
FNH:0
DA:64,0
LF:1
LH:0
end_of_record
SF:/usr/include/x86_64-linux-gnu/c++/4.8/bits/gthr-default.h
FN:247,_ZL18__gthread_active_pv
FNDA:0,_ZL18__gthread_active_pv
FNF:1
FNH:0
DA:247,0
DA:251,0
LF:2
LH:0
end_of_record
TN:
SF:/home/diego/Desktop/taller2-appserver/Appserver/src/servicios/servicio.cpp
FN:4,_ZN8ServicioC2Ev
FN:8,_ZN8ServicioD2Ev
FN:10,_GLOBAL__sub_I__ZN8ServicioC2Ev
FN:10,_Z41__static_initialization_and_destruction_0ii
FNDA:0,_ZN8ServicioC2Ev
FNDA:0,_ZN8ServicioD2Ev
FNDA:10,_GLOBAL__sub_I__ZN8ServicioC2Ev
FNDA:10,_Z41__static_initialization_and_destruction_0ii
FNF:4
FNH:2
DA:4,0
DA:6,0
DA:8,0
DA:10,30
LF:4
LH:1
end_of_record
SF:/usr/include/c++/4.8/iostream
DA:74,10
LF:1
LH:1
end_of_record
TN:
SF:/home/diego/Desktop/taller2-appserver/Appserver/src/servicios/MensajeHTTP.cpp
FN:4,_ZN11MensajeHTTPC2Ev
FN:8,_ZN11MensajeHTTPC2EP12http_message
FN:16,_ZN11MensajeHTTP14mg_strToStringER6mg_str
FN:21,_ZN11MensajeHTTP13cargarHeadersEP12http_message
FN:30,_ZN11MensajeHTTP13agregarHeaderESsSs
FN:36,_ZN11MensajeHTTP11tieneHeaderESs
FN:47,_ZN11MensajeHTTP9getHeaderESs
FN:57,_ZN11MensajeHTTP15headersToStringEv
FN:69,_ZN11MensajeHTTP7setBodyESs
FN:74,_ZN11MensajeHTTP7getBodyEv
FN:83,_ZN11MensajeHTTPD0Ev
FN:83,_ZN11MensajeHTTPD2Ev
FN:86,_GLOBAL__sub_I__ZN11MensajeHTTPC2Ev
FN:86,_Z41__static_initialization_and_destruction_0ii
FNDA:10,_ZN11MensajeHTTPC2Ev
FNDA:70,_ZN11MensajeHTTPC2EP12http_message
FNDA:460,_ZN11MensajeHTTP14mg_strToStringER6mg_str
FNDA:70,_ZN11MensajeHTTP13cargarHeadersEP12http_message
FNDA:170,_ZN11MensajeHTTP13agregarHeaderESsSs
FNDA:40,_ZN11MensajeHTTP11tieneHeaderESs
FNDA:40,_ZN11MensajeHTTP9getHeaderESs
FNDA:10,_ZN11MensajeHTTP15headersToStringEv
FNDA:10,_ZN11MensajeHTTP7setBodyESs
FNDA:10,_ZN11MensajeHTTP7getBodyEv
FNDA:0,_ZN11MensajeHTTPD0Ev
FNDA:80,_ZN11MensajeHTTPD2Ev
FNDA:10,_GLOBAL__sub_I__ZN11MensajeHTTPC2Ev
FNDA:10,_Z41__static_initialization_and_destruction_0ii
FNF:14
FNH:13
DA:4,10
DA:6,10
DA:8,70
DA:9,70
DA:10,70
DA:11,70
DA:16,460
DA:17,460
DA:21,70
DA:24,210
DA:26,140
DA:28,70
DA:30,170
DA:31,170
DA:32,170
DA:36,40
DA:37,40
DA:39,0
DA:43,40
DA:47,40
DA:48,40
DA:49,40
DA:52,0
DA:57,10
DA:58,10
DA:59,40
DA:60,30
DA:61,60
DA:62,30
DA:63,30
DA:64,10
DA:69,10
DA:70,10
DA:71,10
DA:72,10
DA:74,10
DA:75,10
DA:83,80
DA:86,110
LF:39
LH:37
end_of_record
SF:/usr/include/c++/4.8/bits/alloc_traits.h
FN:253,_ZNSt16allocator_traitsISaISt13_Rb_tree_nodeISt4pairIKSsSsEEEE12_S_constructIS4_IRKSt21piecewise_construct_tSt5tupleIIRS2_EESB_IIEEEEENSt9enable_ifIXsrNS6_18__construct_helperIT_IDpT0_EEE5valueEvE4typeERS5_PSH_DpOSI_
FN:391,_ZNSt16allocator_traitsISaISt13_Rb_tree_nodeISt4pairIKSsSsEEEE9constructIS4_IRKSt21piecewise_construct_tSt5tupleIIRS2_EESB_IIEEEEEDTcl12_S_constructfp_fp0_spcl7forwardIT0_Efp1_EEERS5_PT_DpOSF_
FNDA:0,_ZNSt16allocator_traitsISaISt13_Rb_tree_nodeISt4pairIKSsSsEEEE12_S_constructIS4_IRKSt21piecewise_construct_tSt5tupleIIRS2_EESB_IIEEEEENSt9enable_ifIXsrNS6_18__construct_helperIT_IDpT0_EEE5valueEvE4typeERS5_PSH_DpOSI_
FNDA:0,_ZNSt16allocator_traitsISaISt13_Rb_tree_nodeISt4pairIKSsSsEEEE9constructIS4_IRKSt21piecewise_construct_tSt5tupleIIRS2_EESB_IIEEEEEDTcl12_S_constructfp_fp0_spcl7forwardIT0_Efp1_EEERS5_PT_DpOSF_
FNF:2
FNH:0
DA:253,0
DA:254,0
DA:391,0
DA:393,0
LF:4
LH:0
end_of_record
SF:/usr/include/c++/4.8/bits/allocator.h
FN:113,_ZNSaISt13_Rb_tree_nodeISt4pairIKSsSsEEEC2Ev
FN:121,_ZNSaISt13_Rb_tree_nodeISt4pairIKSsSsEEED2Ev
FNDA:0,_ZNSaISt13_Rb_tree_nodeISt4pairIKSsSsEEEC2Ev
FNDA:0,_ZNSaISt13_Rb_tree_nodeISt4pairIKSsSsEEED2Ev
FNF:2
FNH:0
DA:113,0
DA:121,0
LF:2
LH:0
end_of_record
SF:/usr/include/c++/4.8/bits/basic_string.h
FN:272,_ZNSs12_Alloc_hiderD2Ev
FN:272,_ZNSs12_Alloc_hiderC2ERKS_
FN:2365,_ZStplIcSt11char_traitsIcESaIcEESbIT_T0_T1_ERKS6_S8_
FN:2430,_ZStplIcSt11char_traitsIcESaIcEESbIT_T0_T1_EOS6_RKS6_
FN:2466,_ZStplIcSt11char_traitsIcESaIcEESbIT_T0_T1_EOS6_PKS3_
FN:2569,_ZStltIcSt11char_traitsIcESaIcEEbRKSbIT_T0_T1_ES8_
FNDA:0,_ZNSs12_Alloc_hiderC2ERKS_
FNDA:0,_ZNSs12_Alloc_hiderD2Ev
FNDA:360,_ZStplIcSt11char_traitsIcESaIcEESbIT_T0_T1_ERKS6_S8_
FNDA:0,_ZStplIcSt11char_traitsIcESaIcEESbIT_T0_T1_EOS6_RKS6_
FNDA:0,_ZStplIcSt11char_traitsIcESaIcEESbIT_T0_T1_EOS6_PKS3_
FNDA:0,_ZStltIcSt11char_traitsIcESaIcEEbRKSbIT_T0_T1_ES8_
FNF:6
FNH:1
DA:272,0
DA:2365,360
DA:2368,360
DA:2369,360
DA:2370,360
DA:2430,0
DA:2432,0
DA:2466,0
DA:2468,0
DA:2569,0
DA:2571,0
LF:11
LH:4
end_of_record
SF:/usr/include/c++/4.8/bits/char_traits.h
FN:254,_ZNSt11char_traitsIcE7compareEPKcS2_m
FN:258,_ZNSt11char_traitsIcE6lengthEPKc
FNDA:0,_ZNSt11char_traitsIcE7compareEPKcS2_m
FNDA:0,_ZNSt11char_traitsIcE6lengthEPKc
FNF:2
FNH:0
DA:254,0
DA:255,0
DA:258,0
DA:259,0
LF:4
LH:0
end_of_record
SF:/usr/include/c++/4.8/bits/move.h
FN:76,_ZSt7forwardIRKSsEOT_RNSt16remove_referenceIS2_E4typeE
FN:76,_ZSt7forwardISt5tupleIIRKSsEEEOT_RNSt16remove_referenceIS4_E4typeE
FN:76,_ZSt7forwardIRPSt18_Rb_tree_node_baseEOT_RNSt16remove_referenceIS3_E4typeE
FN:76,_ZSt7forwardIRKSt21piecewise_construct_tEOT_RNSt16remove_referenceIS3_E4typeE
FN:76,_ZSt7forwardIRPSt13_Rb_tree_nodeISt4pairIKSsSsEEEOT_RNSt16remove_referenceIS7_E4typeE
FN:76,_ZSt7forwardISt5tupleIIEEEOT_RNSt16remove_referenceIS2_E4typeE
FN:101,_ZSt4moveIRSt11_Tuple_implILm1EIEEEONSt16remove_referenceIT_E4typeEOS4_
FN:101,_ZSt4moveIRSsEONSt16remove_referenceIT_E4typeEOS2_
FNDA:0,_ZSt7forwardIRKSsEOT_RNSt16remove_referenceIS2_E4typeE
FNDA:0,_ZSt7forwardIRPSt13_Rb_tree_nodeISt4pairIKSsSsEEEOT_RNSt16remove_referenceIS7_E4typeE
FNDA:0,_ZSt7forwardIRPSt18_Rb_tree_node_baseEOT_RNSt16remove_referenceIS3_E4typeE
FNDA:0,_ZSt7forwardISt5tupleIIEEEOT_RNSt16remove_referenceIS2_E4typeE
FNDA:0,_ZSt7forwardISt5tupleIIRKSsEEEOT_RNSt16remove_referenceIS4_E4typeE
FNDA:0,_ZSt7forwardIRKSt21piecewise_construct_tEOT_RNSt16remove_referenceIS3_E4typeE
FNDA:0,_ZSt4moveIRSt11_Tuple_implILm1EIEEEONSt16remove_referenceIT_E4typeEOS4_
FNDA:0,_ZSt4moveIRSsEONSt16remove_referenceIT_E4typeEOS2_
FNF:8
FNH:0
DA:76,0
DA:77,0
DA:101,0
DA:102,0
LF:4
LH:0
end_of_record
SF:/usr/include/c++/4.8/bits/stl_algobase.h
FN:193,_ZSt3minImERKT_S2_S2_
FNDA:0,_ZSt3minImERKT_S2_S2_
FNF:1
FNH:0
DA:193,0
DA:198,0
DA:199,0
DA:200,0
LF:4
LH:0
end_of_record
SF:/usr/include/c++/4.8/bits/stl_function.h
FN:234,_ZNKSt4lessISsEclERKSsS2_
FN:494,_ZNKSt10_Select1stISt4pairIKSsSsEEclERKS2_
FNDA:0,_ZNKSt4lessISsEclERKSsS2_
FNDA:0,_ZNKSt10_Select1stISt4pairIKSsSsEEclERKS2_
FNF:2
FNH:0
DA:234,0
DA:235,0
DA:494,0
DA:495,0
LF:4
LH:0
end_of_record
SF:/usr/include/c++/4.8/bits/stl_map.h
FN:96,_ZNSt3mapISsSsSt4lessISsESaISt4pairIKSsSsEEED2Ev
FN:160,_ZNSt3mapISsSsSt4lessISsESaISt4pairIKSsSsEEEC2Ev
FN:320,_ZNSt3mapISsSsSt4lessISsESaISt4pairIKSsSsEEE5beginEv
FN:338,_ZNSt3mapISsSsSt4lessISsESaISt4pairIKSsSsEEE3endEv
FN:456,_ZNSt3mapISsSsSt4lessISsESaISt4pairIKSsSsEEEixERS3_
FN:797,_ZNKSt3mapISsSsSt4lessISsESaISt4pairIKSsSsEEE8key_compEv
FN:821,_ZNSt3mapISsSsSt4lessISsESaISt4pairIKSsSsEEE4findERS3_
FN:863,_ZNSt3mapISsSsSt4lessISsESaISt4pairIKSsSsEEE11lower_boundERS3_
FNDA:0,_ZNSt3mapISsSsSt4lessISsESaISt4pairIKSsSsEEED2Ev
FNDA:0,_ZNSt3mapISsSsSt4lessISsESaISt4pairIKSsSsEEEC2Ev
FNDA:10,_ZNSt3mapISsSsSt4lessISsESaISt4pairIKSsSsEEE5beginEv
FNDA:0,_ZNSt3mapISsSsSt4lessISsESaISt4pairIKSsSsEEE3endEv
FNDA:0,_ZNSt3mapISsSsSt4lessISsESaISt4pairIKSsSsEEEixERS3_
FNDA:0,_ZNKSt3mapISsSsSt4lessISsESaISt4pairIKSsSsEEE8key_compEv
FNDA:0,_ZNSt3mapISsSsSt4lessISsESaISt4pairIKSsSsEEE4findERS3_
FNDA:0,_ZNSt3mapISsSsSt4lessISsESaISt4pairIKSsSsEEE11lower_boundERS3_
FNF:8
FNH:1
DA:96,0
DA:160,0
DA:161,0
DA:320,10
DA:321,10
DA:338,0
DA:339,0
DA:456,0
DA:461,0
DA:463,0
DA:465,0
DA:471,0
DA:797,0
DA:798,0
DA:821,0
DA:822,0
DA:863,0
DA:864,0
LF:18
LH:2
end_of_record
SF:/usr/include/c++/4.8/bits/stl_pair.h
FN:96,_ZNSt4pairIKSsSsED2Ev
FN:133,_ZNSt4pairIPSt18_Rb_tree_node_baseS1_EC2IRS1_vEEOT_RKS1_
FN:138,_ZNSt4pairIPSt18_Rb_tree_node_baseS1_EC2IRS1_vEERKS1_OT_
FN:144,_ZNSt4pairIPSt18_Rb_tree_node_baseS1_EC2IRS1_S4_vEEOT_OT0_
FN:144,_ZNSt4pairIPSt18_Rb_tree_node_baseS1_EC2IRPSt13_Rb_tree_nodeIS_IKSsSsEES9_vEEOT_OT0_
FNDA:0,_ZNSt4pairIKSsSsED2Ev
FNDA:0,_ZNSt4pairIPSt18_Rb_tree_node_baseS1_EC2IRS1_vEEOT_RKS1_
FNDA:0,_ZNSt4pairIPSt18_Rb_tree_node_baseS1_EC2IRS1_vEERKS1_OT_
FNDA:0,_ZNSt4pairIPSt18_Rb_tree_node_baseS1_EC2IRPSt13_Rb_tree_nodeIS_IKSsSsEES9_vEEOT_OT0_
FNDA:0,_ZNSt4pairIPSt18_Rb_tree_node_baseS1_EC2IRS1_S4_vEEOT_OT0_
FNF:5
FNH:0
DA:96,0
DA:133,0
DA:134,0
DA:138,0
DA:139,0
DA:144,0
DA:145,0
LF:7
LH:0
end_of_record
SF:/usr/include/c++/4.8/bits/stl_tree.h
FN:131,_ZNSt13_Rb_tree_nodeISt4pairIKSsSsEED2Ev
FN:138,_ZNSt13_Rb_tree_nodeISt4pairIKSsSsEEC2IIRKSt21piecewise_construct_tSt5tupleIIRS1_EES8_IIEEEEEDpOT_
FN:174,_ZNSt17_Rb_tree_iteratorISt4pairIKSsSsEEC2EPSt13_Rb_tree_nodeIS2_E
FN:178,_ZNKSt17_Rb_tree_iteratorISt4pairIKSsSsEEdeEv
FN:187,_ZNSt17_Rb_tree_iteratorISt4pairIKSsSsEEppEv
FN:202,_ZNSt17_Rb_tree_iteratorISt4pairIKSsSsEEmmEv
FN:217,_ZNKSt17_Rb_tree_iteratorISt4pairIKSsSsEEeqERKS3_
FN:221,_ZNKSt17_Rb_tree_iteratorISt4pairIKSsSsEEneERKS3_
FN:250,_ZNSt23_Rb_tree_const_iteratorISt4pairIKSsSsEEC2ERKSt17_Rb_tree_iteratorIS2_E
FN:254,_ZNKSt23_Rb_tree_const_iteratorISt4pairIKSsSsEE13_M_const_castEv
FN:356,_ZNSt8_Rb_treeISsSt4pairIKSsSsESt10_Select1stIS2_ESt4lessISsESaIS2_EE21_M_get_Node_allocatorEv
FN:369,_ZNSt8_Rb_treeISsSt4pairIKSsSsESt10_Select1stIS2_ESt4lessISsESaIS2_EE11_M_get_nodeEv
FN:373,_ZNSt8_Rb_treeISsSt4pairIKSsSsESt10_Select1stIS2_ESt4lessISsESaIS2_EE11_M_put_nodeEPSt13_Rb_tree_nodeIS2_E
FN:401,_ZNSt8_Rb_treeISsSt4pairIKSsSsESt10_Select1stIS2_ESt4lessISsESaIS2_EE14_M_create_nodeIIRKSt21piecewise_construct_tSt5tupleIIRS1_EESD_IIEEEEEPSt13_Rb_tree_nodeIS2_EDpOT_
FN:419,_ZNSt8_Rb_treeISsSt4pairIKSsSsESt10_Select1stIS2_ESt4lessISsESaIS2_EE15_M_destroy_nodeEPSt13_Rb_tree_nodeIS2_E
FN:439,_ZNSt8_Rb_treeISsSt4pairIKSsSsESt10_Select1stIS2_ESt4lessISsESaIS2_EE13_Rb_tree_implIS6_Lb1EED2Ev
FN:445,_ZNSt8_Rb_treeISsSt4pairIKSsSsESt10_Select1stIS2_ESt4lessISsESaIS2_EE13_Rb_tree_implIS6_Lb1EEC2Ev
FN:464,_ZNSt8_Rb_treeISsSt4pairIKSsSsESt10_Select1stIS2_ESt4lessISsESaIS2_EE13_Rb_tree_implIS6_Lb1EE13_M_initializeEv
FN:485,_ZNSt8_Rb_treeISsSt4pairIKSsSsESt10_Select1stIS2_ESt4lessISsESaIS2_EE11_M_leftmostEv
FN:493,_ZNSt8_Rb_treeISsSt4pairIKSsSsESt10_Select1stIS2_ESt4lessISsESaIS2_EE12_M_rightmostEv
FN:501,_ZNSt8_Rb_treeISsSt4pairIKSsSsESt10_Select1stIS2_ESt4lessISsESaIS2_EE8_M_beginEv
FN:512,_ZNSt8_Rb_treeISsSt4pairIKSsSsESt10_Select1stIS2_ESt4lessISsESaIS2_EE6_M_endEv
FN:520,_ZNSt8_Rb_treeISsSt4pairIKSsSsESt10_Select1stIS2_ESt4lessISsESaIS2_EE8_S_valueEPKSt13_Rb_tree_nodeIS2_E
FN:524,_ZNSt8_Rb_treeISsSt4pairIKSsSsESt10_Select1stIS2_ESt4lessISsESaIS2_EE6_S_keyEPKSt13_Rb_tree_nodeIS2_E
FN:528,_ZNSt8_Rb_treeISsSt4pairIKSsSsESt10_Select1stIS2_ESt4lessISsESaIS2_EE7_S_leftEPSt18_Rb_tree_node_base
FN:536,_ZNSt8_Rb_treeISsSt4pairIKSsSsESt10_Select1stIS2_ESt4lessISsESaIS2_EE8_S_rightEPSt18_Rb_tree_node_base
FN:544,_ZNSt8_Rb_treeISsSt4pairIKSsSsESt10_Select1stIS2_ESt4lessISsESaIS2_EE8_S_valueEPKSt18_Rb_tree_node_base
FN:548,_ZNSt8_Rb_treeISsSt4pairIKSsSsESt10_Select1stIS2_ESt4lessISsESaIS2_EE6_S_keyEPKSt18_Rb_tree_node_base
FN:648,_ZNSt8_Rb_treeISsSt4pairIKSsSsESt10_Select1stIS2_ESt4lessISsESaIS2_EEC2Ev
FN:670,_ZNSt8_Rb_treeISsSt4pairIKSsSsESt10_Select1stIS2_ESt4lessISsESaIS2_EED2Ev
FN:678,_ZNKSt8_Rb_treeISsSt4pairIKSsSsESt10_Select1stIS2_ESt4lessISsESaIS2_EE8key_compEv
FN:682,_ZNSt8_Rb_treeISsSt4pairIKSsSsESt10_Select1stIS2_ESt4lessISsESaIS2_EE5beginEv
FN:696,_ZNSt8_Rb_treeISsSt4pairIKSsSsESt10_Select1stIS2_ESt4lessISsESaIS2_EE3endEv
FN:727,_ZNKSt8_Rb_treeISsSt4pairIKSsSsESt10_Select1stIS2_ESt4lessISsESaIS2_EE4sizeEv
FN:878,_ZNSt8_Rb_treeISsSt4pairIKSsSsESt10_Select1stIS2_ESt4lessISsESaIS2_EE11lower_boundERS1_
FN:1119,_ZNSt8_Rb_treeISsSt4pairIKSsSsESt10_Select1stIS2_ESt4lessISsESaIS2_EE8_M_eraseEPSt13_Rb_tree_nodeIS2_E
FN:1136,_ZNSt8_Rb_treeISsSt4pairIKSsSsESt10_Select1stIS2_ESt4lessISsESaIS2_EE14_M_lower_boundEPSt13_Rb_tree_nodeIS2_ESB_RS1_
FN:1314,_ZNSt8_Rb_treeISsSt4pairIKSsSsESt10_Select1stIS2_ESt4lessISsESaIS2_EE24_M_get_insert_unique_posERS1_
FN:1411,_ZNSt8_Rb_treeISsSt4pairIKSsSsESt10_Select1stIS2_ESt4lessISsESaIS2_EE29_M_get_insert_hint_unique_posESt23_Rb_tree_const_iteratorIS2_ERS1_
FN:1568,_ZNSt8_Rb_treeISsSt4pairIKSsSsESt10_Select1stIS2_ESt4lessISsESaIS2_EE14_M_insert_nodeEPSt18_Rb_tree_node_baseSA_PSt13_Rb_tree_nodeIS2_E
FN:1666,_ZNSt8_Rb_treeISsSt4pairIKSsSsESt10_Select1stIS2_ESt4lessISsESaIS2_EE22_M_emplace_hint_uniqueIIRKSt21piecewise_construct_tSt5tupleIIRS1_EESD_IIEEEEESt17_Rb_tree_iteratorIS2_ESt23_Rb_tree_const_iteratorIS2_EDpOT_
FN:1789,_ZNSt8_Rb_treeISsSt4pairIKSsSsESt10_Select1stIS2_ESt4lessISsESaIS2_EE4findERS1_
FNDA:0,_ZNSt13_Rb_tree_nodeISt4pairIKSsSsEED2Ev
FNDA:0,_ZNSt13_Rb_tree_nodeISt4pairIKSsSsEEC2IIRKSt21piecewise_construct_tSt5tupleIIRS1_EES8_IIEEEEEDpOT_
FNDA:0,_ZNSt17_Rb_tree_iteratorISt4pairIKSsSsEEC2EPSt13_Rb_tree_nodeIS2_E
FNDA:0,_ZNKSt17_Rb_tree_iteratorISt4pairIKSsSsEEdeEv
FNDA:0,_ZNSt17_Rb_tree_iteratorISt4pairIKSsSsEEppEv
FNDA:0,_ZNSt17_Rb_tree_iteratorISt4pairIKSsSsEEmmEv
FNDA:0,_ZNKSt17_Rb_tree_iteratorISt4pairIKSsSsEEeqERKS3_
FNDA:40,_ZNKSt17_Rb_tree_iteratorISt4pairIKSsSsEEneERKS3_
FNDA:0,_ZNSt23_Rb_tree_const_iteratorISt4pairIKSsSsEEC2ERKSt17_Rb_tree_iteratorIS2_E
FNDA:0,_ZNKSt23_Rb_tree_const_iteratorISt4pairIKSsSsEE13_M_const_castEv
FNDA:0,_ZNSt8_Rb_treeISsSt4pairIKSsSsESt10_Select1stIS2_ESt4lessISsESaIS2_EE21_M_get_Node_allocatorEv
FNDA:0,_ZNSt8_Rb_treeISsSt4pairIKSsSsESt10_Select1stIS2_ESt4lessISsESaIS2_EE11_M_get_nodeEv
FNDA:0,_ZNSt8_Rb_treeISsSt4pairIKSsSsESt10_Select1stIS2_ESt4lessISsESaIS2_EE11_M_put_nodeEPSt13_Rb_tree_nodeIS2_E
FNDA:0,_ZNSt8_Rb_treeISsSt4pairIKSsSsESt10_Select1stIS2_ESt4lessISsESaIS2_EE14_M_create_nodeIIRKSt21piecewise_construct_tSt5tupleIIRS1_EESD_IIEEEEEPSt13_Rb_tree_nodeIS2_EDpOT_
FNDA:0,_ZNSt8_Rb_treeISsSt4pairIKSsSsESt10_Select1stIS2_ESt4lessISsESaIS2_EE15_M_destroy_nodeEPSt13_Rb_tree_nodeIS2_E
FNDA:0,_ZNSt8_Rb_treeISsSt4pairIKSsSsESt10_Select1stIS2_ESt4lessISsESaIS2_EE13_Rb_tree_implIS6_Lb1EED2Ev
FNDA:0,_ZNSt8_Rb_treeISsSt4pairIKSsSsESt10_Select1stIS2_ESt4lessISsESaIS2_EE13_Rb_tree_implIS6_Lb1EEC2Ev
FNDA:0,_ZNSt8_Rb_treeISsSt4pairIKSsSsESt10_Select1stIS2_ESt4lessISsESaIS2_EE13_Rb_tree_implIS6_Lb1EE13_M_initializeEv
FNDA:0,_ZNSt8_Rb_treeISsSt4pairIKSsSsESt10_Select1stIS2_ESt4lessISsESaIS2_EE11_M_leftmostEv
FNDA:0,_ZNSt8_Rb_treeISsSt4pairIKSsSsESt10_Select1stIS2_ESt4lessISsESaIS2_EE12_M_rightmostEv
FNDA:0,_ZNSt8_Rb_treeISsSt4pairIKSsSsESt10_Select1stIS2_ESt4lessISsESaIS2_EE8_M_beginEv
FNDA:0,_ZNSt8_Rb_treeISsSt4pairIKSsSsESt10_Select1stIS2_ESt4lessISsESaIS2_EE6_M_endEv
FNDA:0,_ZNSt8_Rb_treeISsSt4pairIKSsSsESt10_Select1stIS2_ESt4lessISsESaIS2_EE8_S_valueEPKSt13_Rb_tree_nodeIS2_E
FNDA:0,_ZNSt8_Rb_treeISsSt4pairIKSsSsESt10_Select1stIS2_ESt4lessISsESaIS2_EE6_S_keyEPKSt13_Rb_tree_nodeIS2_E
FNDA:0,_ZNSt8_Rb_treeISsSt4pairIKSsSsESt10_Select1stIS2_ESt4lessISsESaIS2_EE7_S_leftEPSt18_Rb_tree_node_base
FNDA:0,_ZNSt8_Rb_treeISsSt4pairIKSsSsESt10_Select1stIS2_ESt4lessISsESaIS2_EE8_S_rightEPSt18_Rb_tree_node_base
FNDA:0,_ZNSt8_Rb_treeISsSt4pairIKSsSsESt10_Select1stIS2_ESt4lessISsESaIS2_EE8_S_valueEPKSt18_Rb_tree_node_base
FNDA:0,_ZNSt8_Rb_treeISsSt4pairIKSsSsESt10_Select1stIS2_ESt4lessISsESaIS2_EE6_S_keyEPKSt18_Rb_tree_node_base
FNDA:0,_ZNSt8_Rb_treeISsSt4pairIKSsSsESt10_Select1stIS2_ESt4lessISsESaIS2_EEC2Ev
FNDA:0,_ZNSt8_Rb_treeISsSt4pairIKSsSsESt10_Select1stIS2_ESt4lessISsESaIS2_EED2Ev
FNDA:0,_ZNKSt8_Rb_treeISsSt4pairIKSsSsESt10_Select1stIS2_ESt4lessISsESaIS2_EE8key_compEv
FNDA:0,_ZNSt8_Rb_treeISsSt4pairIKSsSsESt10_Select1stIS2_ESt4lessISsESaIS2_EE5beginEv
FNDA:0,_ZNSt8_Rb_treeISsSt4pairIKSsSsESt10_Select1stIS2_ESt4lessISsESaIS2_EE3endEv
FNDA:0,_ZNKSt8_Rb_treeISsSt4pairIKSsSsESt10_Select1stIS2_ESt4lessISsESaIS2_EE4sizeEv
FNDA:0,_ZNSt8_Rb_treeISsSt4pairIKSsSsESt10_Select1stIS2_ESt4lessISsESaIS2_EE11lower_boundERS1_
FNDA:0,_ZNSt8_Rb_treeISsSt4pairIKSsSsESt10_Select1stIS2_ESt4lessISsESaIS2_EE8_M_eraseEPSt13_Rb_tree_nodeIS2_E
FNDA:0,_ZNSt8_Rb_treeISsSt4pairIKSsSsESt10_Select1stIS2_ESt4lessISsESaIS2_EE14_M_lower_boundEPSt13_Rb_tree_nodeIS2_ESB_RS1_
FNDA:0,_ZNSt8_Rb_treeISsSt4pairIKSsSsESt10_Select1stIS2_ESt4lessISsESaIS2_EE24_M_get_insert_unique_posERS1_
FNDA:0,_ZNSt8_Rb_treeISsSt4pairIKSsSsESt10_Select1stIS2_ESt4lessISsESaIS2_EE29_M_get_insert_hint_unique_posESt23_Rb_tree_const_iteratorIS2_ERS1_
FNDA:0,_ZNSt8_Rb_treeISsSt4pairIKSsSsESt10_Select1stIS2_ESt4lessISsESaIS2_EE14_M_insert_nodeEPSt18_Rb_tree_node_baseSA_PSt13_Rb_tree_nodeIS2_E
FNDA:0,_ZNSt8_Rb_treeISsSt4pairIKSsSsESt10_Select1stIS2_ESt4lessISsESaIS2_EE22_M_emplace_hint_uniqueIIRKSt21piecewise_construct_tSt5tupleIIRS1_EESD_IIEEEEESt17_Rb_tree_iteratorIS2_ESt23_Rb_tree_const_iteratorIS2_EDpOT_
FNDA:0,_ZNSt8_Rb_treeISsSt4pairIKSsSsESt10_Select1stIS2_ESt4lessISsESaIS2_EE4findERS1_
FNF:42
FNH:1
DA:131,0
DA:138,0
DA:140,0
DA:174,0
DA:175,0
DA:178,0
DA:179,0
DA:187,0
DA:189,0
DA:190,0
DA:202,0
DA:204,0
DA:205,0
DA:217,0
DA:218,0
DA:221,40
DA:222,40
DA:250,0
DA:251,0
DA:254,0
DA:256,0
DA:356,0
DA:357,0
DA:369,0
DA:370,0
DA:373,0
DA:374,0
DA:401,0
DA:403,0
DA:406,0
DA:407,0
DA:408,0
DA:410,=====
DA:412,=====
DA:413,=====
DA:415,0
DA:419,0
DA:421,0
DA:422,0
DA:423,0
DA:439,0
DA:445,0
DA:447,0
DA:448,0
DA:464,0
DA:466,0
DA:467,0
DA:468,0
DA:469,0
DA:470,0
DA:485,0
DA:486,0
DA:493,0
DA:494,0
DA:501,0
DA:502,0
DA:512,0
DA:513,0
DA:520,0
DA:521,0
DA:524,0
DA:525,0
DA:528,0
DA:529,0
DA:536,0
DA:537,0
DA:544,0
DA:545,0
DA:548,0
DA:549,0
DA:648,0
DA:670,0
DA:671,0
DA:678,0
DA:679,0
DA:682,0
DA:685,0
DA:696,0
DA:697,0
DA:727,0
DA:728,0
DA:878,0
DA:879,0
DA:1119,0
DA:1123,0
DA:1125,0
DA:1126,0
DA:1127,0
DA:1128,0
DA:1130,0
DA:1136,0
DA:1140,0
DA:1141,0
DA:1142,0
DA:1144,0
DA:1145,0
DA:1314,0
DA:1318,0
DA:1319,0
DA:1320,0
DA:1321,0
DA:1323,0
DA:1324,0
DA:1325,0
DA:1327,0
DA:1328,0
DA:1330,0
DA:1331,0
DA:1333,0
DA:1335,0
DA:1336,0
DA:1337,0
DA:1411,0
DA:1415,0
DA:1419,0
DA:1421,0
DA:1422,0
DA:1423,0
DA:1425,0
DA:1427,0
DA:1430,0
DA:1431,0
DA:1432,0
DA:1433,0
DA:1435,0
DA:1436,0
DA:1438,0
DA:1441,0
DA:1443,0
DA:1446,0
DA:1447,0
DA:1448,0
DA:1449,0
DA:1451,0
DA:1452,0
DA:1454,0
DA:1457,0
DA:1461,0
DA:1568,0
DA:1571,0
DA:1572,0
DA:1573,0
DA:1575,0
DA:1576,0
DA:1577,0
DA:1578,0
DA:1666,0
DA:1669,0
DA:1673,0
DA:1675,0
DA:1676,0
DA:1678,0
DA:1679,0
DA:1681,=====
DA:1683,=====
DA:1684,=====
DA:1789,0
DA:1792,0
DA:1793,0
DA:1794,0
DA:1795,0
LF:161
LH:2
end_of_record
SF:/usr/include/c++/4.8/ext/atomicity.h
FN:48,_ZN9__gnu_cxxL18__exchange_and_addEPVii
FN:65,_ZN9__gnu_cxxL25__exchange_and_add_singleEPii
FN:78,_ZN9__gnu_cxxL27__exchange_and_add_dispatchEPii
FNDA:0,_ZN9__gnu_cxxL18__exchange_and_addEPVii
FNDA:0,_ZN9__gnu_cxxL25__exchange_and_add_singleEPii
FNDA:0,_ZN9__gnu_cxxL27__exchange_and_add_dispatchEPii
FNF:3
FNH:0
DA:48,0
DA:49,0
DA:65,0
DA:67,0
DA:68,0
DA:69,0
DA:78,0
DA:81,0
DA:82,0
DA:84,0
LF:10
LH:0
end_of_record
SF:/usr/include/c++/4.8/ext/new_allocator.h
FN:79,_ZN9__gnu_cxx13new_allocatorISt13_Rb_tree_nodeISt4pairIKSsSsEEEC2Ev
FN:79,_ZN9__gnu_cxx13new_allocatorIcEC2Ev
FN:81,_ZN9__gnu_cxx13new_allocatorIcEC2ERKS1_
FN:86,_ZN9__gnu_cxx13new_allocatorIcED2Ev
FN:86,_ZN9__gnu_cxx13new_allocatorISt13_Rb_tree_nodeISt4pairIKSsSsEEED2Ev
FN:99,_ZN9__gnu_cxx13new_allocatorISt13_Rb_tree_nodeISt4pairIKSsSsEEE8allocateEmPKv
FN:109,_ZN9__gnu_cxx13new_allocatorISt13_Rb_tree_nodeISt4pairIKSsSsEEE10deallocateEPS5_m
FN:113,_ZNK9__gnu_cxx13new_allocatorISt13_Rb_tree_nodeISt4pairIKSsSsEEE8max_sizeEv
FN:119,_ZN9__gnu_cxx13new_allocatorISt13_Rb_tree_nodeISt4pairIKSsSsEEE9constructIS5_IRKSt21piecewise_construct_tSt5tupleIIRS3_EESB_IIEEEEEvPT_DpOT0_
FN:124,_ZN9__gnu_cxx13new_allocatorISt13_Rb_tree_nodeISt4pairIKSsSsEEE7destroyIS5_EEvPT_
FNDA:0,_ZN9__gnu_cxx13new_allocatorISt13_Rb_tree_nodeISt4pairIKSsSsEEEC2Ev
FNDA:0,_ZN9__gnu_cxx13new_allocatorIcEC2Ev
FNDA:0,_ZN9__gnu_cxx13new_allocatorIcEC2ERKS1_
FNDA:0,_ZN9__gnu_cxx13new_allocatorISt13_Rb_tree_nodeISt4pairIKSsSsEEED2Ev
FNDA:0,_ZN9__gnu_cxx13new_allocatorIcED2Ev
FNDA:0,_ZN9__gnu_cxx13new_allocatorISt13_Rb_tree_nodeISt4pairIKSsSsEEE8allocateEmPKv
FNDA:0,_ZN9__gnu_cxx13new_allocatorISt13_Rb_tree_nodeISt4pairIKSsSsEEE10deallocateEPS5_m
FNDA:0,_ZNK9__gnu_cxx13new_allocatorISt13_Rb_tree_nodeISt4pairIKSsSsEEE8max_sizeEv
FNDA:0,_ZN9__gnu_cxx13new_allocatorISt13_Rb_tree_nodeISt4pairIKSsSsEEE9constructIS5_IRKSt21piecewise_construct_tSt5tupleIIRS3_EESB_IIEEEEEvPT_DpOT0_
FNDA:0,_ZN9__gnu_cxx13new_allocatorISt13_Rb_tree_nodeISt4pairIKSsSsEEE7destroyIS5_EEvPT_
FNF:10
FNH:0
DA:79,0
DA:81,0
DA:86,0
DA:99,0
DA:101,0
DA:102,0
DA:104,0
DA:109,0
DA:110,0
DA:113,0
DA:114,0
DA:119,0
DA:120,0
DA:124,0
LF:14
LH:0
end_of_record
SF:/usr/include/c++/4.8/iostream
DA:74,10
LF:1
LH:1
end_of_record
SF:/usr/include/c++/4.8/new
FN:109,_ZnwmPv
FN:115,_ZdlPvS_
FNDA:0,_ZnwmPv
FNDA:0,_ZdlPvS_
FNF:2
FNH:0
DA:109,0
DA:110,0
DA:115,0
LF:3
LH:0
end_of_record
SF:/usr/include/c++/4.8/tuple
FN:134,_ZNSt10_Head_baseILm0ERKSsLb0EEC2ES1_
FN:169,_ZNSt10_Head_baseILm0ERKSsLb0EE7_M_headERS2_
FN:197,_ZNSt11_Tuple_implILm1EIEEC2Ev
FN:241,_ZNSt11_Tuple_implILm0EIRKSsEE7_M_headERS2_
FN:247,_ZNSt11_Tuple_implILm0EIRKSsEE7_M_tailERS2_
FN:256,_ZNSt11_Tuple_implILm0EIRKSsEEC2ES1_
FN:269,_ZNSt11_Tuple_implILm0EIRKSsEEC2EOS2_
FN:399,_ZNSt5tupleIIRKSsEEC2ES1_
FN:411,_ZNSt5tupleIIRKSsEEC2EOS2_
FN:744,_ZSt12__get_helperILm0ERKSsIEENSt9__add_refIT0_E4typeERSt11_Tuple_implIXT_EIS3_DpT1_EE
FN:759,_ZSt3getILm0EIRKSsEENSt9__add_refINSt13tuple_elementIXT_ESt5tupleIIDpT0_EEE4typeEE4typeERS7_
FN:1074,_ZNSt4pairIKSsSsEC2IIRS0_EIEEESt21piecewise_construct_tSt5tupleIIDpT_EES5_IIDpT0_EE
FN:1086,_ZNSt4pairIKSsSsEC2IIRS0_EILm0EEIEIEEERSt5tupleIIDpT_EERS4_IIDpT1_EESt12_Index_tupleIIXspT0_EEESD_IIXspT2_EEE
FNDA:0,_ZNSt10_Head_baseILm0ERKSsLb0EEC2ES1_
FNDA:0,_ZNSt10_Head_baseILm0ERKSsLb0EE7_M_headERS2_
FNDA:0,_ZNSt11_Tuple_implILm1EIEEC2Ev
FNDA:0,_ZNSt11_Tuple_implILm0EIRKSsEE7_M_headERS2_
FNDA:0,_ZNSt11_Tuple_implILm0EIRKSsEE7_M_tailERS2_
FNDA:0,_ZNSt11_Tuple_implILm0EIRKSsEEC2ES1_
FNDA:0,_ZNSt11_Tuple_implILm0EIRKSsEEC2EOS2_
FNDA:0,_ZNSt5tupleIIRKSsEEC2ES1_
FNDA:0,_ZNSt5tupleIIRKSsEEC2EOS2_
FNDA:0,_ZSt12__get_helperILm0ERKSsIEENSt9__add_refIT0_E4typeERSt11_Tuple_implIXT_EIS3_DpT1_EE
FNDA:0,_ZSt3getILm0EIRKSsEENSt9__add_refINSt13tuple_elementIXT_ESt5tupleIIDpT0_EEE4typeEE4typeERS7_
FNDA:0,_ZNSt4pairIKSsSsEC2IIRS0_EIEEESt21piecewise_construct_tSt5tupleIIDpT_EES5_IIDpT0_EE
FNDA:0,_ZNSt4pairIKSsSsEC2IIRS0_EILm0EEIEIEEERSt5tupleIIDpT_EERS4_IIDpT1_EESt12_Index_tupleIIXspT0_EEESD_IIXspT2_EEE
FNF:13
FNH:0
DA:134,0
DA:135,0
DA:169,0
DA:197,0
DA:241,0
DA:247,0
DA:256,0
DA:257,0
DA:269,0
DA:272,0
DA:273,0
DA:399,0
DA:400,0
DA:411,0
DA:744,0
DA:745,0
DA:759,0
DA:760,0
DA:1074,0
DA:1079,0
DA:1080,0
DA:1086,0
DA:1089,0
DA:1090,0
DA:1091,0
LF:25
LH:0
end_of_record
SF:/usr/include/x86_64-linux-gnu/c++/4.8/bits/gthr-default.h
FN:247,_ZL18__gthread_active_pv
FNDA:0,_ZL18__gthread_active_pv
FNF:1
FNH:0
DA:247,0
DA:251,0
LF:2
LH:0
end_of_record
TN:
SF:/home/diego/Desktop/taller2-appserver/Appserver/src/servicios/ManejadorDeConexiones.cpp
FN:9,_ZN21ManejadorDeConexionesC2Ev
FN:13,_ZN21ManejadorDeConexionesD2Ev
FN:13,_ZN21ManejadorDeConexionesD0Ev
FN:19,_ZN21ManejadorDeConexiones27iniciarConexionComoServidorESsP8Servidor
FN:33,_ZN21ManejadorDeConexiones16escucharMensajesEv
FN:42,_ZN21ManejadorDeConexiones28terminarConexionComoServidorEv
FN:46,_ZN21ManejadorDeConexiones13handlerServerEP13mg_connectioniPv
FN:192,_ZN21ManejadorDeConexiones17enviarMensajeHTTPEP18MensajeHTTPRequestSs
FN:213,_ZN21ManejadorDeConexiones14handlerClienteEP13mg_connectioniPv
FN:270,_GLOBAL__sub_I__ZN21ManejadorDeConexiones6tiempoE
FN:270,_Z41__static_initialization_and_destruction_0ii
FNDA:0,_ZN21ManejadorDeConexionesC2Ev
FNDA:0,_ZN21ManejadorDeConexionesD0Ev
FNDA:0,_ZN21ManejadorDeConexionesD2Ev
FNDA:0,_ZN21ManejadorDeConexiones27iniciarConexionComoServidorESsP8Servidor
FNDA:0,_ZN21ManejadorDeConexiones16escucharMensajesEv
FNDA:0,_ZN21ManejadorDeConexiones28terminarConexionComoServidorEv
FNDA:0,_ZN21ManejadorDeConexiones13handlerServerEP13mg_connectioniPv
FNDA:0,_ZN21ManejadorDeConexiones17enviarMensajeHTTPEP18MensajeHTTPRequestSs
FNDA:0,_ZN21ManejadorDeConexiones14handlerClienteEP13mg_connectioniPv
FNDA:10,_GLOBAL__sub_I__ZN21ManejadorDeConexiones6tiempoE
FNDA:10,_Z41__static_initialization_and_destruction_0ii
FNF:11
FNH:2
DA:9,0
DA:10,0
DA:11,0
DA:13,0
DA:14,0
DA:15,0
DA:19,0
DA:21,0
DA:23,0
DA:25,0
DA:27,0
DA:29,0
DA:30,0
DA:33,0
DA:34,0
DA:36,0
DA:37,0
DA:40,0
DA:42,0
DA:43,0
DA:44,0
DA:46,0
DA:48,0
DA:49,0
DA:55,0
DA:57,0
DA:67,0
DA:74,0
DA:76,0
DA:77,0
DA:80,0
DA:82,0
DA:83,0
DA:84,0
DA:86,0
DA:88,0
DA:91,0
DA:93,0
DA:97,0
DA:110,0
DA:124,0
DA:130,0
DA:136,0
DA:138,0
DA:192,0
DA:193,0
DA:195,0
DA:196,0
DA:197,0
DA:199,0
DA:202,0
DA:203,0
DA:204,0
DA:205,0
DA:213,0
DA:215,0
DA:216,0
DA:219,0
DA:222,0
DA:223,0
DA:233,0
DA:237,0
DA:242,0
DA:245,0
DA:246,0
DA:248,0
DA:250,0
DA:253,0
DA:254,0
DA:256,0
DA:263,0
DA:268,0
DA:270,30
LF:73
LH:1
end_of_record
SF:/usr/include/c++/4.8/bits/basic_string.h
FN:272,_ZNSs12_Alloc_hiderC2ERKS_
FN:272,_ZNSs12_Alloc_hiderD2Ev
FN:2430,_ZStplIcSt11char_traitsIcESaIcEESbIT_T0_T1_EOS6_RKS6_
FN:2466,_ZStplIcSt11char_traitsIcESaIcEESbIT_T0_T1_EOS6_PKS3_
FNDA:0,_ZNSs12_Alloc_hiderC2ERKS_
FNDA:0,_ZNSs12_Alloc_hiderD2Ev
FNDA:0,_ZStplIcSt11char_traitsIcESaIcEESbIT_T0_T1_EOS6_RKS6_
FNDA:0,_ZStplIcSt11char_traitsIcESaIcEESbIT_T0_T1_EOS6_PKS3_
FNF:4
FNH:0
DA:272,0
DA:2430,0
DA:2432,0
DA:2466,0
DA:2468,0
LF:5
LH:0
end_of_record
SF:/usr/include/c++/4.8/bits/char_traits.h
FN:258,_ZNSt11char_traitsIcE6lengthEPKc
FNDA:0,_ZNSt11char_traitsIcE6lengthEPKc
FNF:1
FNH:0
DA:258,0
DA:259,0
LF:2
LH:0
end_of_record
SF:/usr/include/c++/4.8/bits/ios_base.h
FN:163,_ZStorSt12_Ios_IostateS_
FNDA:0,_ZStorSt12_Ios_IostateS_
FNF:1
FNH:0
DA:163,0
DA:164,0
LF:2
LH:0
end_of_record
SF:/usr/include/c++/4.8/bits/move.h
FN:101,_ZSt4moveIRSsEONSt16remove_referenceIT_E4typeEOS2_
FNDA:0,_ZSt4moveIRSsEONSt16remove_referenceIT_E4typeEOS2_
FNF:1
FNH:0
DA:101,0
DA:102,0
LF:2
LH:0
end_of_record
SF:/usr/include/c++/4.8/ext/atomicity.h
FN:48,_ZN9__gnu_cxxL18__exchange_and_addEPVii
FN:65,_ZN9__gnu_cxxL25__exchange_and_add_singleEPii
FN:78,_ZN9__gnu_cxxL27__exchange_and_add_dispatchEPii
FNDA:0,_ZN9__gnu_cxxL18__exchange_and_addEPVii
FNDA:0,_ZN9__gnu_cxxL25__exchange_and_add_singleEPii
FNDA:0,_ZN9__gnu_cxxL27__exchange_and_add_dispatchEPii
FNF:3
FNH:0
DA:48,0
DA:49,0
DA:65,0
DA:67,0
DA:68,0
DA:69,0
DA:78,0
DA:81,0
DA:82,0
DA:84,0
LF:10
LH:0
end_of_record
SF:/usr/include/c++/4.8/ext/new_allocator.h
FN:79,_ZN9__gnu_cxx13new_allocatorIcEC2Ev
FN:81,_ZN9__gnu_cxx13new_allocatorIcEC2ERKS1_
FN:86,_ZN9__gnu_cxx13new_allocatorIcED2Ev
FNDA:0,_ZN9__gnu_cxx13new_allocatorIcEC2Ev
FNDA:0,_ZN9__gnu_cxx13new_allocatorIcEC2ERKS1_
FNDA:0,_ZN9__gnu_cxx13new_allocatorIcED2Ev
FNF:3
FNH:0
DA:79,0
DA:81,0
DA:86,0
LF:3
LH:0
end_of_record
SF:/usr/include/c++/4.8/iostream
DA:74,10
LF:1
LH:1
end_of_record
SF:/usr/include/x86_64-linux-gnu/c++/4.8/bits/gthr-default.h
FN:247,_ZL18__gthread_active_pv
FNDA:0,_ZL18__gthread_active_pv
FNF:1
FNH:0
DA:247,0
DA:251,0
LF:2
LH:0
end_of_record
TN:
SF:/home/diego/Desktop/taller2-appserver/Appserver/src/external/json/json.h
FN:1447,_ZN4Json6ReaderD2Ev
FN:1597,_ZN4Json6Reader9ErrorInfoD2Ev
FN:1993,_ZN4Json10FastWriterD2Ev
FN:1993,_ZN4Json10FastWriterD0Ev
FNDA:250,_ZN4Json6ReaderD2Ev
FNDA:120,_ZN4Json6Reader9ErrorInfoD2Ev
FNDA:0,_ZN4Json10FastWriterD0Ev
FNDA:0,_ZN4Json10FastWriterD2Ev
FNF:4
FNH:2
DA:1447,250
DA:1597,120
DA:1993,0
LF:3
LH:2
end_of_record
SF:/home/diego/Desktop/taller2-appserver/Appserver/src/servicios/JsonValor.cpp
FN:3,_ZN9JsonValorC2Ev
FN:7,_ZN9JsonValorC2ESs
FN:12,_ZN9JsonValorC2ERKN4Json5ValueE
FN:17,_ZN9JsonValor12getJsonValueEv
FN:21,_ZN9JsonValor4sizeEv
FN:25,_ZN9JsonValor8toStringEv
FN:30,_ZN9JsonValorD2Ev
FN:30,_ZN9JsonValorD0Ev
FNDA:720,_ZN9JsonValorC2Ev
FNDA:250,_ZN9JsonValorC2ESs
FNDA:1300,_ZN9JsonValorC2ERKN4Json5ValueE
FNDA:340,_ZN9JsonValor12getJsonValueEv
FNDA:770,_ZN9JsonValor4sizeEv
FNDA:940,_ZN9JsonValor8toStringEv
FNDA:0,_ZN9JsonValorD0Ev
FNDA:2330,_ZN9JsonValorD2Ev
FNF:8
FNH:7
DA:3,720
DA:5,720
DA:7,250
DA:8,250
DA:9,250
DA:10,250
DA:12,1300
DA:13,1300
DA:14,1300
DA:17,340
DA:18,340
DA:21,770
DA:22,770
DA:25,940
DA:26,940
DA:27,940
DA:30,2330
DA:33,2330
LF:18
LH:18
end_of_record
SF:/usr/include/c++/4.8/bits/allocator.h
FN:119,_ZNSaIPN4Json6Reader9ErrorInfoEEC2IS1_EERKSaIT_E
FN:119,_ZNSaIPPN4Json5ValueEEC2IS1_EERKSaIT_E
FN:121,_ZNSaIPN4Json5ValueEED2Ev
FN:121,_ZNSaIPPN4Json5ValueEED2Ev
FN:121,_ZNSaIN4Json6Reader9ErrorInfoEED2Ev
FN:121,_ZNSaIPN4Json6Reader9ErrorInfoEED2Ev
FNDA:500,_ZNSaIPN4Json6Reader9ErrorInfoEEC2IS1_EERKSaIT_E
FNDA:1000,_ZNSaIPPN4Json5ValueEEC2IS1_EERKSaIT_E
FNDA:500,_ZNSaIPN4Json6Reader9ErrorInfoEED2Ev
FNDA:1000,_ZNSaIPPN4Json5ValueEED2Ev
FNDA:250,_ZNSaIN4Json6Reader9ErrorInfoEED2Ev
FNDA:500,_ZNSaIPN4Json5ValueEED2Ev
FNF:6
FNH:6
DA:119,1500
DA:121,2250
LF:2
LH:2
end_of_record
SF:/usr/include/c++/4.8/bits/basic_string.h
FN:272,_ZNSs12_Alloc_hiderD2Ev
FNDA:0,_ZNSs12_Alloc_hiderD2Ev
FNF:1
FNH:0
DA:272,0
LF:1
LH:0
end_of_record
SF:/usr/include/c++/4.8/bits/deque.tcc
FN:801,_ZNSt5dequeIN4Json6Reader9ErrorInfoESaIS2_EE19_M_destroy_data_auxESt15_Deque_iteratorIS2_RS2_PS2_ES8_
FNDA:500,_ZNSt5dequeIN4Json6Reader9ErrorInfoESaIS2_EE19_M_destroy_data_auxESt15_Deque_iteratorIS2_RS2_PS2_ES8_
FNF:1
FNH:1
DA:801,500
DA:804,500
DA:806,0
DA:807,0
DA:809,500
DA:811,0
DA:812,0
DA:813,0
DA:814,0
DA:817,500
DA:818,500
DA:819,500
LF:12
LH:6
end_of_record
SF:/usr/include/c++/4.8/bits/move.h
FN:47,_ZSt11__addressofIN4Json6Reader9ErrorInfoEEPT_RS3_
FNDA:60,_ZSt11__addressofIN4Json6Reader9ErrorInfoEEPT_RS3_
FNF:1
FNH:1
DA:47,60
DA:50,60
LF:2
LH:2
end_of_record
SF:/usr/include/c++/4.8/bits/stl_construct.h
FN:92,_ZSt8_DestroyIN4Json6Reader9ErrorInfoEEvPT_
FN:100,_ZNSt12_Destroy_auxILb0EE9__destroyIPN4Json6Reader9ErrorInfoEEEvT_S6_
FN:122,_ZSt8_DestroyIPN4Json6Reader9ErrorInfoEEvT_S4_
FN:148,_ZSt8_DestroyIPN4Json6Reader9ErrorInfoES2_EvT_S4_RSaIT0_E
FNDA:60,_ZSt8_DestroyIN4Json6Reader9ErrorInfoEEvPT_
FNDA:500,_ZNSt12_Destroy_auxILb0EE9__destroyIPN4Json6Reader9ErrorInfoEEEvT_S6_
FNDA:500,_ZSt8_DestroyIPN4Json6Reader9ErrorInfoEEvT_S4_
FNDA:500,_ZSt8_DestroyIPN4Json6Reader9ErrorInfoES2_EvT_S4_RSaIT0_E
FNF:4
FNH:4
DA:92,60
DA:93,60
DA:100,500
DA:102,560
DA:103,60
DA:104,500
DA:122,500
DA:126,500
DA:128,500
DA:148,500
DA:151,500
DA:152,500
LF:12
LH:12
end_of_record
SF:/usr/include/c++/4.8/bits/stl_deque.h
FN:89,_ZSt16__deque_buf_sizem
FN:135,_ZNSt15_Deque_iteratorIN4Json6Reader9ErrorInfoERS2_PS2_EC2ERKS5_
FN:135,_ZNSt15_Deque_iteratorIPN4Json5ValueERS2_PS2_EC2ERKS5_
FN:492,_ZNSt11_Deque_baseIPN4Json5ValueESaIS2_EE11_Deque_implD2Ev
FN:492,_ZNSt11_Deque_baseIN4Json6Reader9ErrorInfoESaIS2_EE11_Deque_implD2Ev
FN:519,_ZNSt11_Deque_baseIPN4Json5ValueESaIS2_EE19_M_get_Tp_allocatorEv
FN:519,_ZNSt11_Deque_baseIN4Json6Reader9ErrorInfoESaIS2_EE19_M_get_Tp_allocatorEv
FN:523,_ZNKSt11_Deque_baseIPN4Json5ValueESaIS2_EE19_M_get_Tp_allocatorEv
FN:523,_ZNKSt11_Deque_baseIN4Json6Reader9ErrorInfoESaIS2_EE19_M_get_Tp_allocatorEv
FN:527,_ZNKSt11_Deque_baseIN4Json6Reader9ErrorInfoESaIS2_EE20_M_get_map_allocatorEv
FN:527,_ZNKSt11_Deque_baseIPN4Json5ValueESaIS2_EE20_M_get_map_allocatorEv
FN:537,_ZNSt11_Deque_baseIN4Json6Reader9ErrorInfoESaIS2_EE18_M_deallocate_nodeEPS2_
FN:537,_ZNSt11_Deque_baseIPN4Json5ValueESaIS2_EE18_M_deallocate_nodeEPS2_
FN:547,_ZNSt11_Deque_baseIPN4Json5ValueESaIS2_EE17_M_deallocate_mapEPPS2_m
FN:547,_ZNSt11_Deque_baseIN4Json6Reader9ErrorInfoESaIS2_EE17_M_deallocate_mapEPPS2_m
FN:560,_ZNSt11_Deque_baseIN4Json6Reader9ErrorInfoESaIS2_EED2Ev
FN:560,_ZNSt11_Deque_baseIPN4Json5ValueESaIS2_EED2Ev
FN:638,_ZNSt11_Deque_baseIN4Json6Reader9ErrorInfoESaIS2_EE16_M_destroy_nodesEPPS2_S6_
FN:638,_ZNSt11_Deque_baseIPN4Json5ValueESaIS2_EE16_M_destroy_nodesEPPS2_S6_
FN:757,_ZNSt5dequeIN4Json6Reader9ErrorInfoESaIS2_EE14_S_buffer_sizeEv
FN:917,_ZNSt5dequeIN4Json6Reader9ErrorInfoESaIS2_EED2Ev
FN:917,_ZNSt5dequeIPN4Json5ValueESaIS2_EED2Ev
FN:1037,_ZNSt5dequeIPN4Json5ValueESaIS2_EE5beginEv
FN:1037,_ZNSt5dequeIN4Json6Reader9ErrorInfoESaIS2_EE5beginEv
FN:1054,_ZNSt5dequeIN4Json6Reader9ErrorInfoESaIS2_EE3endEv
FN:1054,_ZNSt5dequeIPN4Json5ValueESaIS2_EE3endEv
FN:1849,_ZNSt5dequeIPN4Json5ValueESaIS2_EE15_M_destroy_dataESt15_Deque_iteratorIS2_RS2_PS2_ES8_RKS3_
FN:1849,_ZNSt5dequeIN4Json6Reader9ErrorInfoESaIS2_EE15_M_destroy_dataESt15_Deque_iteratorIS2_RS2_PS2_ES8_RKS3_
FNDA:4500,_ZSt16__deque_buf_sizem
FNDA:2250,_ZNSt15_Deque_iteratorIN4Json6Reader9ErrorInfoERS2_PS2_EC2ERKS5_
FNDA:10180,_ZNSt15_Deque_iteratorIPN4Json5ValueERS2_PS2_EC2ERKS5_
FNDA:250,_ZNSt11_Deque_baseIN4Json6Reader9ErrorInfoESaIS2_EE11_Deque_implD2Ev
FNDA:500,_ZNSt11_Deque_baseIPN4Json5ValueESaIS2_EE11_Deque_implD2Ev
FNDA:1000,_ZNSt11_Deque_baseIN4Json6Reader9ErrorInfoESaIS2_EE19_M_get_Tp_allocatorEv
FNDA:750,_ZNSt11_Deque_baseIPN4Json5ValueESaIS2_EE19_M_get_Tp_allocatorEv
FNDA:500,_ZNKSt11_Deque_baseIN4Json6Reader9ErrorInfoESaIS2_EE19_M_get_Tp_allocatorEv
FNDA:1000,_ZNKSt11_Deque_baseIPN4Json5ValueESaIS2_EE19_M_get_Tp_allocatorEv
FNDA:500,_ZNKSt11_Deque_baseIN4Json6Reader9ErrorInfoESaIS2_EE20_M_get_map_allocatorEv
FNDA:1000,_ZNKSt11_Deque_baseIPN4Json5ValueESaIS2_EE20_M_get_map_allocatorEv
FNDA:250,_ZNSt11_Deque_baseIN4Json6Reader9ErrorInfoESaIS2_EE18_M_deallocate_nodeEPS2_
FNDA:500,_ZNSt11_Deque_baseIPN4Json5ValueESaIS2_EE18_M_deallocate_nodeEPS2_
FNDA:250,_ZNSt11_Deque_baseIN4Json6Reader9ErrorInfoESaIS2_EE17_M_deallocate_mapEPPS2_m
FNDA:500,_ZNSt11_Deque_baseIPN4Json5ValueESaIS2_EE17_M_deallocate_mapEPPS2_m
FNDA:250,_ZNSt11_Deque_baseIN4Json6Reader9ErrorInfoESaIS2_EED2Ev
FNDA:500,_ZNSt11_Deque_baseIPN4Json5ValueESaIS2_EED2Ev
FNDA:500,_ZNSt11_Deque_baseIN4Json6Reader9ErrorInfoESaIS2_EE16_M_destroy_nodesEPPS2_S6_
FNDA:500,_ZNSt11_Deque_baseIPN4Json5ValueESaIS2_EE16_M_destroy_nodesEPPS2_S6_
FNDA:0,_ZNSt5dequeIN4Json6Reader9ErrorInfoESaIS2_EE14_S_buffer_sizeEv
FNDA:250,_ZNSt5dequeIN4Json6Reader9ErrorInfoESaIS2_EED2Ev
FNDA:500,_ZNSt5dequeIPN4Json5ValueESaIS2_EED2Ev
FNDA:500,_ZNSt5dequeIN4Json6Reader9ErrorInfoESaIS2_EE5beginEv
FNDA:500,_ZNSt5dequeIPN4Json5ValueESaIS2_EE5beginEv
FNDA:500,_ZNSt5dequeIN4Json6Reader9ErrorInfoESaIS2_EE3endEv
FNDA:9180,_ZNSt5dequeIPN4Json5ValueESaIS2_EE3endEv
FNDA:500,_ZNSt5dequeIN4Json6Reader9ErrorInfoESaIS2_EE15_M_destroy_dataESt15_Deque_iteratorIS2_RS2_PS2_ES8_RKS3_
FNDA:500,_ZNSt5dequeIPN4Json5ValueESaIS2_EE15_M_destroy_dataESt15_Deque_iteratorIS2_RS2_PS2_ES8_RKS3_
FNF:28
FNH:27
DA:89,4500
DA:91,4500
DA:135,12430
DA:137,12430
DA:492,750
DA:519,1750
DA:520,1750
DA:523,1500
DA:524,1500
DA:527,1500
DA:528,1500
DA:537,750
DA:539,750
DA:540,750
DA:547,750
DA:548,750
DA:560,750
DA:563,750
DA:565,750
DA:566,750
DA:567,750
DA:569,750
DA:638,1000
DA:641,1750
DA:642,750
DA:643,1000
DA:757,0
DA:758,0
DA:917,750
DA:918,750
DA:1037,1000
DA:1038,1000
DA:1054,9680
DA:1055,9680
DA:1849,1000
DA:1853,500
DA:1854,1000
LF:37
LH:35
end_of_record
SF:/usr/include/c++/4.8/bits/stl_stack.h
FN:96,_ZNSt5stackIPN4Json5ValueESt5dequeIS2_SaIS2_EEED2Ev
FNDA:250,_ZNSt5stackIPN4Json5ValueESt5dequeIS2_SaIS2_EEED2Ev
FNF:1
FNH:1
DA:96,250
LF:1
LH:1
end_of_record
SF:/usr/include/c++/4.8/ext/atomicity.h
FN:48,_ZN9__gnu_cxxL18__exchange_and_addEPVii
FN:65,_ZN9__gnu_cxxL25__exchange_and_add_singleEPii
FN:78,_ZN9__gnu_cxxL27__exchange_and_add_dispatchEPii
FNDA:0,_ZN9__gnu_cxxL18__exchange_and_addEPVii
FNDA:0,_ZN9__gnu_cxxL25__exchange_and_add_singleEPii
FNDA:0,_ZN9__gnu_cxxL27__exchange_and_add_dispatchEPii
FNF:3
FNH:0
DA:48,0
DA:49,0
DA:65,0
DA:67,0
DA:68,0
DA:69,0
DA:78,0
DA:81,0
DA:82,0
DA:84,0
LF:10
LH:0
end_of_record
SF:/usr/include/c++/4.8/ext/new_allocator.h
FN:79,_ZN9__gnu_cxx13new_allocatorIPN4Json6Reader9ErrorInfoEEC2Ev
FN:79,_ZN9__gnu_cxx13new_allocatorIPPN4Json5ValueEEC2Ev
FN:81,_ZN9__gnu_cxx13new_allocatorIcEC2ERKS1_
FN:86,_ZN9__gnu_cxx13new_allocatorIPPN4Json5ValueEED2Ev
FN:86,_ZN9__gnu_cxx13new_allocatorIN4Json6Reader9ErrorInfoEED2Ev
FN:86,_ZN9__gnu_cxx13new_allocatorIcED2Ev
FN:86,_ZN9__gnu_cxx13new_allocatorIPN4Json6Reader9ErrorInfoEED2Ev
FN:86,_ZN9__gnu_cxx13new_allocatorIPN4Json5ValueEED2Ev
FN:109,_ZN9__gnu_cxx13new_allocatorIN4Json6Reader9ErrorInfoEE10deallocateEPS3_m
FN:109,_ZN9__gnu_cxx13new_allocatorIPN4Json5ValueEE10deallocateEPS3_m
FN:109,_ZN9__gnu_cxx13new_allocatorIPN4Json6Reader9ErrorInfoEE10deallocateEPS4_m
FN:109,_ZN9__gnu_cxx13new_allocatorIPPN4Json5ValueEE10deallocateEPS4_m
FNDA:500,_ZN9__gnu_cxx13new_allocatorIPN4Json6Reader9ErrorInfoEEC2Ev
FNDA:1000,_ZN9__gnu_cxx13new_allocatorIPPN4Json5ValueEEC2Ev
FNDA:0,_ZN9__gnu_cxx13new_allocatorIcEC2ERKS1_
FNDA:500,_ZN9__gnu_cxx13new_allocatorIPN4Json6Reader9ErrorInfoEED2Ev
FNDA:1000,_ZN9__gnu_cxx13new_allocatorIPPN4Json5ValueEED2Ev
FNDA:250,_ZN9__gnu_cxx13new_allocatorIN4Json6Reader9ErrorInfoEED2Ev
FNDA:500,_ZN9__gnu_cxx13new_allocatorIPN4Json5ValueEED2Ev
FNDA:0,_ZN9__gnu_cxx13new_allocatorIcED2Ev
FNDA:250,_ZN9__gnu_cxx13new_allocatorIN4Json6Reader9ErrorInfoEE10deallocateEPS3_m
FNDA:500,_ZN9__gnu_cxx13new_allocatorIPN4Json5ValueEE10deallocateEPS3_m
FNDA:250,_ZN9__gnu_cxx13new_allocatorIPN4Json6Reader9ErrorInfoEE10deallocateEPS4_m
FNDA:500,_ZN9__gnu_cxx13new_allocatorIPPN4Json5ValueEE10deallocateEPS4_m
FNF:12
FNH:10
DA:79,1500
DA:81,0
DA:86,2250
DA:109,1500
DA:110,1500
LF:5
LH:4
end_of_record
SF:/usr/include/x86_64-linux-gnu/c++/4.8/bits/gthr-default.h
FN:247,_ZL18__gthread_active_pv
FNDA:0,_ZL18__gthread_active_pv
FNF:1
FNH:0
DA:247,0
DA:251,0
LF:2
LH:0
end_of_record
TN:
SF:/home/diego/Desktop/taller2-appserver/Appserver/src/servicios/SesionesDeUsuarios.cpp
FN:4,_ZN18SesionesDeUsuariosC2Ev
FN:10,_ZN18SesionesDeUsuarios14existeSesionDeESs
FN:20,_ZN18SesionesDeUsuarios22validarTokenConUsuarioESsSs
FN:36,_ZN18SesionesDeUsuarios15agregarSesionDeESsSs
FN:43,_ZN18SesionesDeUsuariosD0Ev
FN:43,_ZN18SesionesDeUsuariosD2Ev
FNDA:30,_ZN18SesionesDeUsuariosC2Ev
FNDA:50,_ZN18SesionesDeUsuarios14existeSesionDeESs
FNDA:40,_ZN18SesionesDeUsuarios22validarTokenConUsuarioESsSs
FNDA:30,_ZN18SesionesDeUsuarios15agregarSesionDeESsSs
FNDA:30,_ZN18SesionesDeUsuariosD0Ev
FNDA:30,_ZN18SesionesDeUsuariosD2Ev
FNF:6
FNH:6
DA:4,30
DA:7,30
DA:10,50
DA:12,50
DA:13,20
DA:16,30
DA:20,40
DA:21,40
DA:23,20
DA:26,20
DA:28,10
DA:31,10
DA:36,30
DA:37,30
DA:39,30
DA:43,60
DA:46,60
LF:17
LH:17
end_of_record
SF:/usr/include/c++/4.8/bits/alloc_traits.h
FN:253,_ZNSt16allocator_traitsISaISt13_Rb_tree_nodeISt4pairIKSsSsEEEE12_S_constructIS4_IRKSt21piecewise_construct_tSt5tupleIIRS2_EESB_IIEEEEENSt9enable_ifIXsrNS6_18__construct_helperIT_IDpT0_EEE5valueEvE4typeERS5_PSH_DpOSI_
FN:391,_ZNSt16allocator_traitsISaISt13_Rb_tree_nodeISt4pairIKSsSsEEEE9constructIS4_IRKSt21piecewise_construct_tSt5tupleIIRS2_EESB_IIEEEEEDTcl12_S_constructfp_fp0_spcl7forwardIT0_Efp1_EEERS5_PT_DpOSF_
FNDA:200,_ZNSt16allocator_traitsISaISt13_Rb_tree_nodeISt4pairIKSsSsEEEE12_S_constructIS4_IRKSt21piecewise_construct_tSt5tupleIIRS2_EESB_IIEEEEENSt9enable_ifIXsrNS6_18__construct_helperIT_IDpT0_EEE5valueEvE4typeERS5_PSH_DpOSI_
FNDA:200,_ZNSt16allocator_traitsISaISt13_Rb_tree_nodeISt4pairIKSsSsEEEE9constructIS4_IRKSt21piecewise_construct_tSt5tupleIIRS2_EESB_IIEEEEEDTcl12_S_constructfp_fp0_spcl7forwardIT0_Efp1_EEERS5_PT_DpOSF_
FNF:2
FNH:2
DA:253,200
DA:254,200
DA:391,200
DA:393,200
LF:4
LH:4
end_of_record
SF:/usr/include/c++/4.8/bits/allocator.h
FN:113,_ZNSaISt13_Rb_tree_nodeISt4pairIKSsSsEEEC2Ev
FN:121,_ZNSaISt13_Rb_tree_nodeISt4pairIKSsSsEEED2Ev
FNDA:110,_ZNSaISt13_Rb_tree_nodeISt4pairIKSsSsEEEC2Ev
FNDA:0,_ZNSaISt13_Rb_tree_nodeISt4pairIKSsSsEEED2Ev
FNF:2
FNH:1
DA:113,110
DA:121,0
LF:2
LH:1
end_of_record
SF:/usr/include/c++/4.8/bits/basic_string.h
FN:272,_ZNSs12_Alloc_hiderD2Ev
FN:2493,_ZSteqIcEN9__gnu_cxx11__enable_ifIXsrSt9__is_charIT_E7__valueEbE6__typeERKSbIS3_St11char_traitsIS3_ESaIS3_EESC_
FN:2532,_ZStneIcSt11char_traitsIcESaIcEEbRKSbIT_T0_T1_ES8_
FN:2569,_ZStltIcSt11char_traitsIcESaIcEEbRKSbIT_T0_T1_ES8_
FNDA:0,_ZNSs12_Alloc_hiderD2Ev
FNDA:0,_ZSteqIcEN9__gnu_cxx11__enable_ifIXsrSt9__is_charIT_E7__valueEbE6__typeERKSbIS3_St11char_traitsIS3_ESaIS3_EESC_
FNDA:20,_ZStneIcSt11char_traitsIcESaIcEEbRKSbIT_T0_T1_ES8_
FNDA:0,_ZStltIcSt11char_traitsIcESaIcEEbRKSbIT_T0_T1_ES8_
FNF:4
FNH:1
DA:272,0
DA:2493,0
DA:2495,0
DA:2497,0
DA:2532,20
DA:2534,20
DA:2569,0
DA:2571,0
LF:8
LH:2
end_of_record
SF:/usr/include/c++/4.8/bits/char_traits.h
FN:254,_ZNSt11char_traitsIcE7compareEPKcS2_m
FNDA:0,_ZNSt11char_traitsIcE7compareEPKcS2_m
FNF:1
FNH:0
DA:254,0
DA:255,0
LF:2
LH:0
end_of_record
SF:/usr/include/c++/4.8/bits/move.h
FN:76,_ZSt7forwardIRPSt18_Rb_tree_node_baseEOT_RNSt16remove_referenceIS3_E4typeE
FN:76,_ZSt7forwardIRKSt21piecewise_construct_tEOT_RNSt16remove_referenceIS3_E4typeE
FN:76,_ZSt7forwardIRPSt13_Rb_tree_nodeISt4pairIKSsSsEEEOT_RNSt16remove_referenceIS7_E4typeE
FN:76,_ZSt7forwardISt5tupleIIRKSsEEEOT_RNSt16remove_referenceIS4_E4typeE
FN:76,_ZSt7forwardIRKSsEOT_RNSt16remove_referenceIS2_E4typeE
FN:76,_ZSt7forwardISt5tupleIIEEEOT_RNSt16remove_referenceIS2_E4typeE
FN:101,_ZSt4moveIRSt11_Tuple_implILm1EIEEEONSt16remove_referenceIT_E4typeEOS4_
FNDA:2520,_ZSt7forwardIRKSsEOT_RNSt16remove_referenceIS2_E4typeE
FNDA:400,_ZSt7forwardIRPSt13_Rb_tree_nodeISt4pairIKSsSsEEEOT_RNSt16remove_referenceIS7_E4typeE
FNDA:1630,_ZSt7forwardIRPSt18_Rb_tree_node_baseEOT_RNSt16remove_referenceIS3_E4typeE
FNDA:1200,_ZSt7forwardISt5tupleIIEEEOT_RNSt16remove_referenceIS2_E4typeE
FNDA:1200,_ZSt7forwardISt5tupleIIRKSsEEEOT_RNSt16remove_referenceIS4_E4typeE
FNDA:1200,_ZSt7forwardIRKSt21piecewise_construct_tEOT_RNSt16remove_referenceIS3_E4typeE
FNDA:200,_ZSt4moveIRSt11_Tuple_implILm1EIEEEONSt16remove_referenceIT_E4typeEOS4_
FNF:7
FNH:7
DA:76,8150
DA:77,8150
DA:101,200
DA:102,200
LF:4
LH:4
end_of_record
SF:/usr/include/c++/4.8/bits/stl_algobase.h
FN:193,_ZSt3minImERKT_S2_S2_
FNDA:0,_ZSt3minImERKT_S2_S2_
FNF:1
FNH:0
DA:193,0
DA:198,0
DA:199,0
DA:200,0
LF:4
LH:0
end_of_record
SF:/usr/include/c++/4.8/bits/stl_function.h
FN:234,_ZNKSt4lessISsEclERKSsS2_
FN:494,_ZNKSt10_Select1stISt4pairIKSsSsEEclERKS2_
FNDA:610,_ZNKSt4lessISsEclERKSsS2_
FNDA:820,_ZNKSt10_Select1stISt4pairIKSsSsEEclERKS2_
FNF:2
FNH:2
DA:234,610
DA:235,610
DA:494,820
DA:495,820
LF:4
LH:4
end_of_record
SF:/usr/include/c++/4.8/bits/stl_map.h
FN:96,_ZNSt3mapISsSsSt4lessISsESaISt4pairIKSsSsEEED2Ev
FN:160,_ZNSt3mapISsSsSt4lessISsESaISt4pairIKSsSsEEEC2Ev
FN:338,_ZNSt3mapISsSsSt4lessISsESaISt4pairIKSsSsEEE3endEv
FN:456,_ZNSt3mapISsSsSt4lessISsESaISt4pairIKSsSsEEEixERS3_
FN:797,_ZNKSt3mapISsSsSt4lessISsESaISt4pairIKSsSsEEE8key_compEv
FN:821,_ZNSt3mapISsSsSt4lessISsESaISt4pairIKSsSsEEE4findERS3_
FN:863,_ZNSt3mapISsSsSt4lessISsESaISt4pairIKSsSsEEE11lower_boundERS3_
FNDA:110,_ZNSt3mapISsSsSt4lessISsESaISt4pairIKSsSsEEED2Ev
FNDA:110,_ZNSt3mapISsSsSt4lessISsESaISt4pairIKSsSsEEEC2Ev
FNDA:390,_ZNSt3mapISsSsSt4lessISsESaISt4pairIKSsSsEEE3endEv
FNDA:260,_ZNSt3mapISsSsSt4lessISsESaISt4pairIKSsSsEEEixERS3_
FNDA:70,_ZNKSt3mapISsSsSt4lessISsESaISt4pairIKSsSsEEE8key_compEv
FNDA:90,_ZNSt3mapISsSsSt4lessISsESaISt4pairIKSsSsEEE4findERS3_
FNDA:260,_ZNSt3mapISsSsSt4lessISsESaISt4pairIKSsSsEEE11lower_boundERS3_
FNF:7
FNH:7
DA:96,110
DA:160,110
DA:161,110
DA:338,390
DA:339,390
DA:456,260
DA:461,260
DA:463,260
DA:465,200
DA:471,260
DA:797,70
DA:798,70
DA:821,90
DA:822,90
DA:863,260
DA:864,260
LF:16
LH:16
end_of_record
SF:/usr/include/c++/4.8/bits/stl_pair.h
FN:96,_ZNSt4pairIKSsSsED2Ev
FN:133,_ZNSt4pairIPSt18_Rb_tree_node_baseS1_EC2IRS1_vEEOT_RKS1_
FN:138,_ZNSt4pairIPSt18_Rb_tree_node_baseS1_EC2IRS1_vEERKS1_OT_
FN:144,_ZNSt4pairIPSt18_Rb_tree_node_baseS1_EC2IRS1_S4_vEEOT_OT0_
FN:144,_ZNSt4pairIPSt18_Rb_tree_node_baseS1_EC2IRPSt13_Rb_tree_nodeIS_IKSsSsEES9_vEEOT_OT0_
FNDA:0,_ZNSt4pairIKSsSsED2Ev
FNDA:0,_ZNSt4pairIPSt18_Rb_tree_node_baseS1_EC2IRS1_vEEOT_RKS1_
FNDA:1610,_ZNSt4pairIPSt18_Rb_tree_node_baseS1_EC2IRS1_vEERKS1_OT_
FNDA:200,_ZNSt4pairIPSt18_Rb_tree_node_baseS1_EC2IRPSt13_Rb_tree_nodeIS_IKSsSsEES9_vEEOT_OT0_
FNDA:10,_ZNSt4pairIPSt18_Rb_tree_node_baseS1_EC2IRS1_S4_vEEOT_OT0_
FNF:5
FNH:3
DA:96,0
DA:133,0
DA:134,0
DA:138,1610
DA:139,1610
DA:144,210
DA:145,210
LF:7
LH:4
end_of_record
SF:/usr/include/c++/4.8/bits/stl_tree.h
FN:131,_ZNSt13_Rb_tree_nodeISt4pairIKSsSsEED2Ev
FN:138,_ZNSt13_Rb_tree_nodeISt4pairIKSsSsEEC2IIRKSt21piecewise_construct_tSt5tupleIIRS1_EES8_IIEEEEEDpOT_
FN:174,_ZNSt17_Rb_tree_iteratorISt4pairIKSsSsEEC2EPSt13_Rb_tree_nodeIS2_E
FN:178,_ZNKSt17_Rb_tree_iteratorISt4pairIKSsSsEEdeEv
FN:187,_ZNSt17_Rb_tree_iteratorISt4pairIKSsSsEEppEv
FN:202,_ZNSt17_Rb_tree_iteratorISt4pairIKSsSsEEmmEv
FN:217,_ZNKSt17_Rb_tree_iteratorISt4pairIKSsSsEEeqERKS3_
FN:250,_ZNSt23_Rb_tree_const_iteratorISt4pairIKSsSsEEC2ERKSt17_Rb_tree_iteratorIS2_E
FN:254,_ZNKSt23_Rb_tree_const_iteratorISt4pairIKSsSsEE13_M_const_castEv
FN:356,_ZNSt8_Rb_treeISsSt4pairIKSsSsESt10_Select1stIS2_ESt4lessISsESaIS2_EE21_M_get_Node_allocatorEv
FN:369,_ZNSt8_Rb_treeISsSt4pairIKSsSsESt10_Select1stIS2_ESt4lessISsESaIS2_EE11_M_get_nodeEv
FN:373,_ZNSt8_Rb_treeISsSt4pairIKSsSsESt10_Select1stIS2_ESt4lessISsESaIS2_EE11_M_put_nodeEPSt13_Rb_tree_nodeIS2_E
FN:401,_ZNSt8_Rb_treeISsSt4pairIKSsSsESt10_Select1stIS2_ESt4lessISsESaIS2_EE14_M_create_nodeIIRKSt21piecewise_construct_tSt5tupleIIRS1_EESD_IIEEEEEPSt13_Rb_tree_nodeIS2_EDpOT_
FN:419,_ZNSt8_Rb_treeISsSt4pairIKSsSsESt10_Select1stIS2_ESt4lessISsESaIS2_EE15_M_destroy_nodeEPSt13_Rb_tree_nodeIS2_E
FN:439,_ZNSt8_Rb_treeISsSt4pairIKSsSsESt10_Select1stIS2_ESt4lessISsESaIS2_EE13_Rb_tree_implIS6_Lb1EED2Ev
FN:445,_ZNSt8_Rb_treeISsSt4pairIKSsSsESt10_Select1stIS2_ESt4lessISsESaIS2_EE13_Rb_tree_implIS6_Lb1EEC2Ev
FN:464,_ZNSt8_Rb_treeISsSt4pairIKSsSsESt10_Select1stIS2_ESt4lessISsESaIS2_EE13_Rb_tree_implIS6_Lb1EE13_M_initializeEv
FN:485,_ZNSt8_Rb_treeISsSt4pairIKSsSsESt10_Select1stIS2_ESt4lessISsESaIS2_EE11_M_leftmostEv
FN:493,_ZNSt8_Rb_treeISsSt4pairIKSsSsESt10_Select1stIS2_ESt4lessISsESaIS2_EE12_M_rightmostEv
FN:501,_ZNSt8_Rb_treeISsSt4pairIKSsSsESt10_Select1stIS2_ESt4lessISsESaIS2_EE8_M_beginEv
FN:512,_ZNSt8_Rb_treeISsSt4pairIKSsSsESt10_Select1stIS2_ESt4lessISsESaIS2_EE6_M_endEv
FN:520,_ZNSt8_Rb_treeISsSt4pairIKSsSsESt10_Select1stIS2_ESt4lessISsESaIS2_EE8_S_valueEPKSt13_Rb_tree_nodeIS2_E
FN:524,_ZNSt8_Rb_treeISsSt4pairIKSsSsESt10_Select1stIS2_ESt4lessISsESaIS2_EE6_S_keyEPKSt13_Rb_tree_nodeIS2_E
FN:528,_ZNSt8_Rb_treeISsSt4pairIKSsSsESt10_Select1stIS2_ESt4lessISsESaIS2_EE7_S_leftEPSt18_Rb_tree_node_base
FN:536,_ZNSt8_Rb_treeISsSt4pairIKSsSsESt10_Select1stIS2_ESt4lessISsESaIS2_EE8_S_rightEPSt18_Rb_tree_node_base
FN:544,_ZNSt8_Rb_treeISsSt4pairIKSsSsESt10_Select1stIS2_ESt4lessISsESaIS2_EE8_S_valueEPKSt18_Rb_tree_node_base
FN:548,_ZNSt8_Rb_treeISsSt4pairIKSsSsESt10_Select1stIS2_ESt4lessISsESaIS2_EE6_S_keyEPKSt18_Rb_tree_node_base
FN:648,_ZNSt8_Rb_treeISsSt4pairIKSsSsESt10_Select1stIS2_ESt4lessISsESaIS2_EEC2Ev
FN:670,_ZNSt8_Rb_treeISsSt4pairIKSsSsESt10_Select1stIS2_ESt4lessISsESaIS2_EED2Ev
FN:678,_ZNKSt8_Rb_treeISsSt4pairIKSsSsESt10_Select1stIS2_ESt4lessISsESaIS2_EE8key_compEv
FN:682,_ZNSt8_Rb_treeISsSt4pairIKSsSsESt10_Select1stIS2_ESt4lessISsESaIS2_EE5beginEv
FN:696,_ZNSt8_Rb_treeISsSt4pairIKSsSsESt10_Select1stIS2_ESt4lessISsESaIS2_EE3endEv
FN:727,_ZNKSt8_Rb_treeISsSt4pairIKSsSsESt10_Select1stIS2_ESt4lessISsESaIS2_EE4sizeEv
FN:878,_ZNSt8_Rb_treeISsSt4pairIKSsSsESt10_Select1stIS2_ESt4lessISsESaIS2_EE11lower_boundERS1_
FN:1119,_ZNSt8_Rb_treeISsSt4pairIKSsSsESt10_Select1stIS2_ESt4lessISsESaIS2_EE8_M_eraseEPSt13_Rb_tree_nodeIS2_E
FN:1136,_ZNSt8_Rb_treeISsSt4pairIKSsSsESt10_Select1stIS2_ESt4lessISsESaIS2_EE14_M_lower_boundEPSt13_Rb_tree_nodeIS2_ESB_RS1_
FN:1314,_ZNSt8_Rb_treeISsSt4pairIKSsSsESt10_Select1stIS2_ESt4lessISsESaIS2_EE24_M_get_insert_unique_posERS1_
FN:1411,_ZNSt8_Rb_treeISsSt4pairIKSsSsESt10_Select1stIS2_ESt4lessISsESaIS2_EE29_M_get_insert_hint_unique_posESt23_Rb_tree_const_iteratorIS2_ERS1_
FN:1568,_ZNSt8_Rb_treeISsSt4pairIKSsSsESt10_Select1stIS2_ESt4lessISsESaIS2_EE14_M_insert_nodeEPSt18_Rb_tree_node_baseSA_PSt13_Rb_tree_nodeIS2_E
FN:1666,_ZNSt8_Rb_treeISsSt4pairIKSsSsESt10_Select1stIS2_ESt4lessISsESaIS2_EE22_M_emplace_hint_uniqueIIRKSt21piecewise_construct_tSt5tupleIIRS1_EESD_IIEEEEESt17_Rb_tree_iteratorIS2_ESt23_Rb_tree_const_iteratorIS2_EDpOT_
FN:1789,_ZNSt8_Rb_treeISsSt4pairIKSsSsESt10_Select1stIS2_ESt4lessISsESaIS2_EE4findERS1_
FNDA:0,_ZNSt13_Rb_tree_nodeISt4pairIKSsSsEED2Ev
FNDA:200,_ZNSt13_Rb_tree_nodeISt4pairIKSsSsEEC2IIRKSt21piecewise_construct_tSt5tupleIIRS1_EES8_IIEEEEEDpOT_
FNDA:1690,_ZNSt17_Rb_tree_iteratorISt4pairIKSsSsEEC2EPSt13_Rb_tree_nodeIS2_E
FNDA:390,_ZNKSt17_Rb_tree_iteratorISt4pairIKSsSsEEdeEv
FNDA:30,_ZNSt17_Rb_tree_iteratorISt4pairIKSsSsEEppEv
FNDA:0,_ZNSt17_Rb_tree_iteratorISt4pairIKSsSsEEmmEv
FNDA:640,_ZNKSt17_Rb_tree_iteratorISt4pairIKSsSsEEeqERKS3_
FNDA:200,_ZNSt23_Rb_tree_const_iteratorISt4pairIKSsSsEEC2ERKSt17_Rb_tree_iteratorIS2_E
FNDA:230,_ZNKSt23_Rb_tree_const_iteratorISt4pairIKSsSsEE13_M_const_castEv
FNDA:0,_ZNSt8_Rb_treeISsSt4pairIKSsSsESt10_Select1stIS2_ESt4lessISsESaIS2_EE21_M_get_Node_allocatorEv
FNDA:0,_ZNSt8_Rb_treeISsSt4pairIKSsSsESt10_Select1stIS2_ESt4lessISsESaIS2_EE11_M_get_nodeEv
FNDA:0,_ZNSt8_Rb_treeISsSt4pairIKSsSsESt10_Select1stIS2_ESt4lessISsESaIS2_EE11_M_put_nodeEPSt13_Rb_tree_nodeIS2_E
FNDA:200,_ZNSt8_Rb_treeISsSt4pairIKSsSsESt10_Select1stIS2_ESt4lessISsESaIS2_EE14_M_create_nodeIIRKSt21piecewise_construct_tSt5tupleIIRS1_EESD_IIEEEEEPSt13_Rb_tree_nodeIS2_EDpOT_
FNDA:0,_ZNSt8_Rb_treeISsSt4pairIKSsSsESt10_Select1stIS2_ESt4lessISsESaIS2_EE15_M_destroy_nodeEPSt13_Rb_tree_nodeIS2_E
FNDA:0,_ZNSt8_Rb_treeISsSt4pairIKSsSsESt10_Select1stIS2_ESt4lessISsESaIS2_EE13_Rb_tree_implIS6_Lb1EED2Ev
FNDA:110,_ZNSt8_Rb_treeISsSt4pairIKSsSsESt10_Select1stIS2_ESt4lessISsESaIS2_EE13_Rb_tree_implIS6_Lb1EEC2Ev
FNDA:0,_ZNSt8_Rb_treeISsSt4pairIKSsSsESt10_Select1stIS2_ESt4lessISsESaIS2_EE13_Rb_tree_implIS6_Lb1EE13_M_initializeEv
FNDA:0,_ZNSt8_Rb_treeISsSt4pairIKSsSsESt10_Select1stIS2_ESt4lessISsESaIS2_EE11_M_leftmostEv
FNDA:0,_ZNSt8_Rb_treeISsSt4pairIKSsSsESt10_Select1stIS2_ESt4lessISsESaIS2_EE12_M_rightmostEv
FNDA:0,_ZNSt8_Rb_treeISsSt4pairIKSsSsESt10_Select1stIS2_ESt4lessISsESaIS2_EE8_M_beginEv
FNDA:0,_ZNSt8_Rb_treeISsSt4pairIKSsSsESt10_Select1stIS2_ESt4lessISsESaIS2_EE6_M_endEv
FNDA:560,_ZNSt8_Rb_treeISsSt4pairIKSsSsESt10_Select1stIS2_ESt4lessISsESaIS2_EE8_S_valueEPKSt13_Rb_tree_nodeIS2_E
FNDA:560,_ZNSt8_Rb_treeISsSt4pairIKSsSsESt10_Select1stIS2_ESt4lessISsESaIS2_EE6_S_keyEPKSt13_Rb_tree_nodeIS2_E
FNDA:0,_ZNSt8_Rb_treeISsSt4pairIKSsSsESt10_Select1stIS2_ESt4lessISsESaIS2_EE7_S_leftEPSt18_Rb_tree_node_base
FNDA:0,_ZNSt8_Rb_treeISsSt4pairIKSsSsESt10_Select1stIS2_ESt4lessISsESaIS2_EE8_S_rightEPSt18_Rb_tree_node_base
FNDA:260,_ZNSt8_Rb_treeISsSt4pairIKSsSsESt10_Select1stIS2_ESt4lessISsESaIS2_EE8_S_valueEPKSt18_Rb_tree_node_base
FNDA:260,_ZNSt8_Rb_treeISsSt4pairIKSsSsESt10_Select1stIS2_ESt4lessISsESaIS2_EE6_S_keyEPKSt18_Rb_tree_node_base
FNDA:110,_ZNSt8_Rb_treeISsSt4pairIKSsSsESt10_Select1stIS2_ESt4lessISsESaIS2_EEC2Ev
FNDA:110,_ZNSt8_Rb_treeISsSt4pairIKSsSsESt10_Select1stIS2_ESt4lessISsESaIS2_EED2Ev
FNDA:70,_ZNKSt8_Rb_treeISsSt4pairIKSsSsESt10_Select1stIS2_ESt4lessISsESaIS2_EE8key_compEv
FNDA:210,_ZNSt8_Rb_treeISsSt4pairIKSsSsESt10_Select1stIS2_ESt4lessISsESaIS2_EE5beginEv
FNDA:500,_ZNSt8_Rb_treeISsSt4pairIKSsSsESt10_Select1stIS2_ESt4lessISsESaIS2_EE3endEv
FNDA:220,_ZNKSt8_Rb_treeISsSt4pairIKSsSsESt10_Select1stIS2_ESt4lessISsESaIS2_EE4sizeEv
FNDA:260,_ZNSt8_Rb_treeISsSt4pairIKSsSsESt10_Select1stIS2_ESt4lessISsESaIS2_EE11lower_boundERS1_
FNDA:0,_ZNSt8_Rb_treeISsSt4pairIKSsSsESt10_Select1stIS2_ESt4lessISsESaIS2_EE8_M_eraseEPSt13_Rb_tree_nodeIS2_E
FNDA:350,_ZNSt8_Rb_treeISsSt4pairIKSsSsESt10_Select1stIS2_ESt4lessISsESaIS2_EE14_M_lower_boundEPSt13_Rb_tree_nodeIS2_ESB_RS1_
FNDA:200,_ZNSt8_Rb_treeISsSt4pairIKSsSsESt10_Select1stIS2_ESt4lessISsESaIS2_EE24_M_get_insert_unique_posERS1_
FNDA:230,_ZNSt8_Rb_treeISsSt4pairIKSsSsESt10_Select1stIS2_ESt4lessISsESaIS2_EE29_M_get_insert_hint_unique_posESt23_Rb_tree_const_iteratorIS2_ERS1_
FNDA:200,_ZNSt8_Rb_treeISsSt4pairIKSsSsESt10_Select1stIS2_ESt4lessISsESaIS2_EE14_M_insert_nodeEPSt18_Rb_tree_node_baseSA_PSt13_Rb_tree_nodeIS2_E
FNDA:200,_ZNSt8_Rb_treeISsSt4pairIKSsSsESt10_Select1stIS2_ESt4lessISsESaIS2_EE22_M_emplace_hint_uniqueIIRKSt21piecewise_construct_tSt5tupleIIRS1_EESD_IIEEEEESt17_Rb_tree_iteratorIS2_ESt23_Rb_tree_const_iteratorIS2_EDpOT_
FNDA:90,_ZNSt8_Rb_treeISsSt4pairIKSsSsESt10_Select1stIS2_ESt4lessISsESaIS2_EE4findERS1_
FNF:41
FNH:26
DA:131,0
DA:138,200
DA:140,200
DA:174,1690
DA:175,1690
DA:178,390
DA:179,390
DA:187,30
DA:189,30
DA:190,30
DA:202,0
DA:204,0
DA:205,0
DA:217,640
DA:218,640
DA:250,200
DA:251,200
DA:254,230
DA:256,230
DA:356,0
DA:357,0
DA:369,0
DA:370,0
DA:373,0
DA:374,0
DA:401,200
DA:403,200
DA:406,200
DA:407,200
DA:408,200
DA:410,=====
DA:412,=====
DA:413,=====
DA:415,200
DA:419,0
DA:421,0
DA:422,0
DA:423,0
DA:439,0
DA:445,110
DA:447,110
DA:448,110
DA:464,0
DA:466,0
DA:467,0
DA:468,0
DA:469,0
DA:470,0
DA:485,0
DA:486,0
DA:493,0
DA:494,0
DA:501,0
DA:502,0
DA:512,0
DA:513,0
DA:520,560
DA:521,560
DA:524,560
DA:525,560
DA:528,0
DA:529,0
DA:536,0
DA:537,0
DA:544,260
DA:545,260
DA:548,260
DA:549,260
DA:648,110
DA:670,110
DA:671,110
DA:678,70
DA:679,70
DA:682,210
DA:685,210
DA:696,500
DA:697,500
DA:727,220
DA:728,220
DA:878,260
DA:879,260
DA:1119,0
DA:1123,0
DA:1125,0
DA:1126,0
DA:1127,0
DA:1128,0
DA:1130,0
DA:1136,350
DA:1140,980
DA:1141,280
DA:1142,160
DA:1144,120
DA:1145,350
DA:1314,200
DA:1318,200
DA:1319,200
DA:1320,200
DA:1321,400
DA:1323,0
DA:1324,0
DA:1325,0
DA:1327,200
DA:1328,200
DA:1330,200
DA:1331,200
DA:1333,0
DA:1335,0
DA:1336,0
DA:1337,0
DA:1411,230
DA:1415,230
DA:1419,230
DA:1421,300
DA:1422,80
DA:1423,80
DA:1425,140
DA:1427,10
DA:1430,10
DA:1431,10
DA:1432,10
DA:1433,0
DA:1435,0
DA:1436,0
DA:1438,0
DA:1441,0
DA:1443,0
DA:1446,0
DA:1447,0
DA:1448,0
DA:1449,0
DA:1451,0
DA:1452,0
DA:1454,0
DA:1457,0
DA:1461,0
DA:1568,200
DA:1571,190
DA:1572,80
DA:1573,470
DA:1575,200
DA:1576,200
DA:1577,200
DA:1578,200
DA:1666,200
DA:1669,200
DA:1673,200
DA:1675,200
DA:1676,200
DA:1678,0
DA:1679,0
DA:1681,=====
DA:1683,=====
DA:1684,=====
DA:1789,90
DA:1792,90
DA:1793,360
DA:1794,90
DA:1795,450
LF:159
LH:89
end_of_record
SF:/usr/include/c++/4.8/ext/atomicity.h
FN:48,_ZN9__gnu_cxxL18__exchange_and_addEPVii
FN:65,_ZN9__gnu_cxxL25__exchange_and_add_singleEPii
FN:78,_ZN9__gnu_cxxL27__exchange_and_add_dispatchEPii
FNDA:0,_ZN9__gnu_cxxL18__exchange_and_addEPVii
FNDA:0,_ZN9__gnu_cxxL25__exchange_and_add_singleEPii
FNDA:0,_ZN9__gnu_cxxL27__exchange_and_add_dispatchEPii
FNF:3
FNH:0
DA:48,0
DA:49,0
DA:65,0
DA:67,0
DA:68,0
DA:69,0
DA:78,0
DA:81,0
DA:82,0
DA:84,0
LF:10
LH:0
end_of_record
SF:/usr/include/c++/4.8/ext/new_allocator.h
FN:79,_ZN9__gnu_cxx13new_allocatorISt13_Rb_tree_nodeISt4pairIKSsSsEEEC2Ev
FN:79,_ZN9__gnu_cxx13new_allocatorIcEC2Ev
FN:81,_ZN9__gnu_cxx13new_allocatorIcEC2ERKS1_
FN:86,_ZN9__gnu_cxx13new_allocatorIcED2Ev
FN:86,_ZN9__gnu_cxx13new_allocatorISt13_Rb_tree_nodeISt4pairIKSsSsEEED2Ev
FN:99,_ZN9__gnu_cxx13new_allocatorISt13_Rb_tree_nodeISt4pairIKSsSsEEE8allocateEmPKv
FN:109,_ZN9__gnu_cxx13new_allocatorISt13_Rb_tree_nodeISt4pairIKSsSsEEE10deallocateEPS5_m
FN:113,_ZNK9__gnu_cxx13new_allocatorISt13_Rb_tree_nodeISt4pairIKSsSsEEE8max_sizeEv
FN:119,_ZN9__gnu_cxx13new_allocatorISt13_Rb_tree_nodeISt4pairIKSsSsEEE9constructIS5_IRKSt21piecewise_construct_tSt5tupleIIRS3_EESB_IIEEEEEvPT_DpOT0_
FN:124,_ZN9__gnu_cxx13new_allocatorISt13_Rb_tree_nodeISt4pairIKSsSsEEE7destroyIS5_EEvPT_
FNDA:110,_ZN9__gnu_cxx13new_allocatorISt13_Rb_tree_nodeISt4pairIKSsSsEEEC2Ev
FNDA:0,_ZN9__gnu_cxx13new_allocatorIcEC2Ev
FNDA:0,_ZN9__gnu_cxx13new_allocatorIcEC2ERKS1_
FNDA:0,_ZN9__gnu_cxx13new_allocatorISt13_Rb_tree_nodeISt4pairIKSsSsEEED2Ev
FNDA:0,_ZN9__gnu_cxx13new_allocatorIcED2Ev
FNDA:0,_ZN9__gnu_cxx13new_allocatorISt13_Rb_tree_nodeISt4pairIKSsSsEEE8allocateEmPKv
FNDA:0,_ZN9__gnu_cxx13new_allocatorISt13_Rb_tree_nodeISt4pairIKSsSsEEE10deallocateEPS5_m
FNDA:0,_ZNK9__gnu_cxx13new_allocatorISt13_Rb_tree_nodeISt4pairIKSsSsEEE8max_sizeEv
FNDA:200,_ZN9__gnu_cxx13new_allocatorISt13_Rb_tree_nodeISt4pairIKSsSsEEE9constructIS5_IRKSt21piecewise_construct_tSt5tupleIIRS3_EESB_IIEEEEEvPT_DpOT0_
FNDA:0,_ZN9__gnu_cxx13new_allocatorISt13_Rb_tree_nodeISt4pairIKSsSsEEE7destroyIS5_EEvPT_
FNF:10
FNH:2
DA:79,110
DA:81,0
DA:86,0
DA:99,0
DA:101,0
DA:102,0
DA:104,0
DA:109,0
DA:110,0
DA:113,0
DA:114,0
DA:119,200
DA:120,200
DA:124,0
LF:14
LH:3
end_of_record
SF:/usr/include/c++/4.8/new
FN:109,_ZnwmPv
FN:115,_ZdlPvS_
FNDA:0,_ZnwmPv
FNDA:0,_ZdlPvS_
FNF:2
FNH:0
DA:109,0
DA:110,0
DA:115,0
LF:3
LH:0
end_of_record
SF:/usr/include/c++/4.8/tuple
FN:134,_ZNSt10_Head_baseILm0ERKSsLb0EEC2ES1_
FN:169,_ZNSt10_Head_baseILm0ERKSsLb0EE7_M_headERS2_
FN:197,_ZNSt11_Tuple_implILm1EIEEC2Ev
FN:241,_ZNSt11_Tuple_implILm0EIRKSsEE7_M_headERS2_
FN:247,_ZNSt11_Tuple_implILm0EIRKSsEE7_M_tailERS2_
FN:256,_ZNSt11_Tuple_implILm0EIRKSsEEC2ES1_
FN:269,_ZNSt11_Tuple_implILm0EIRKSsEEC2EOS2_
FN:399,_ZNSt5tupleIIRKSsEEC2ES1_
FN:411,_ZNSt5tupleIIRKSsEEC2EOS2_
FN:744,_ZSt12__get_helperILm0ERKSsIEENSt9__add_refIT0_E4typeERSt11_Tuple_implIXT_EIS3_DpT1_EE
FN:759,_ZSt3getILm0EIRKSsEENSt9__add_refINSt13tuple_elementIXT_ESt5tupleIIDpT0_EEE4typeEE4typeERS7_
FN:1074,_ZNSt4pairIKSsSsEC2IIRS0_EIEEESt21piecewise_construct_tSt5tupleIIDpT_EES5_IIDpT0_EE
FN:1086,_ZNSt4pairIKSsSsEC2IIRS0_EILm0EEIEIEEERSt5tupleIIDpT_EERS4_IIDpT1_EESt12_Index_tupleIIXspT0_EEESD_IIXspT2_EEE
FNDA:400,_ZNSt10_Head_baseILm0ERKSsLb0EEC2ES1_
FNDA:400,_ZNSt10_Head_baseILm0ERKSsLb0EE7_M_headERS2_
FNDA:200,_ZNSt11_Tuple_implILm1EIEEC2Ev
FNDA:400,_ZNSt11_Tuple_implILm0EIRKSsEE7_M_headERS2_
FNDA:200,_ZNSt11_Tuple_implILm0EIRKSsEE7_M_tailERS2_
FNDA:200,_ZNSt11_Tuple_implILm0EIRKSsEEC2ES1_
FNDA:200,_ZNSt11_Tuple_implILm0EIRKSsEEC2EOS2_
FNDA:200,_ZNSt5tupleIIRKSsEEC2ES1_
FNDA:200,_ZNSt5tupleIIRKSsEEC2EOS2_
FNDA:200,_ZSt12__get_helperILm0ERKSsIEENSt9__add_refIT0_E4typeERSt11_Tuple_implIXT_EIS3_DpT1_EE
FNDA:200,_ZSt3getILm0EIRKSsEENSt9__add_refINSt13tuple_elementIXT_ESt5tupleIIDpT0_EEE4typeEE4typeERS7_
FNDA:200,_ZNSt4pairIKSsSsEC2IIRS0_EIEEESt21piecewise_construct_tSt5tupleIIDpT_EES5_IIDpT0_EE
FNDA:200,_ZNSt4pairIKSsSsEC2IIRS0_EILm0EEIEIEEERSt5tupleIIDpT_EERS4_IIDpT1_EESt12_Index_tupleIIXspT0_EEESD_IIXspT2_EEE
FNF:13
FNH:13
DA:134,400
DA:135,400
DA:169,400
DA:197,200
DA:241,400
DA:247,200
DA:256,200
DA:257,200
DA:269,200
DA:272,200
DA:273,200
DA:399,200
DA:400,200
DA:411,200
DA:744,200
DA:745,200
DA:759,200
DA:760,200
DA:1074,200
DA:1079,200
DA:1080,200
DA:1086,200
DA:1089,200
DA:1090,200
DA:1091,200
LF:25
LH:25
end_of_record
SF:/usr/include/x86_64-linux-gnu/c++/4.8/bits/gthr-default.h
FN:247,_ZL18__gthread_active_pv
FNDA:0,_ZL18__gthread_active_pv
FNF:1
FNH:0
DA:247,0
DA:251,0
LF:2
LH:0
end_of_record
TN:
SF:/home/diego/Desktop/taller2-appserver/Appserver/src/external/json/json.h
FN:1993,_ZN4Json10FastWriterD0Ev
FN:1993,_ZN4Json10FastWriterD2Ev
FNDA:0,_ZN4Json10FastWriterD0Ev
FNDA:940,_ZN4Json10FastWriterD2Ev
FNF:2
FNH:1
DA:1993,940
LF:1
LH:1
end_of_record
SF:/home/diego/Desktop/taller2-appserver/Appserver/src/servicios/ServicioChat.cpp
FN:3,_ZN12ServicioChatC2EP21ManejadorDeConexionesP18MensajeHTTPRequestP18SesionesDeUsuariosP14Conversaciones
FN:13,_ZN12ServicioChat11atenderChatEv
FN:66,_ZN12ServicioChat12getRespuestaEv
FN:72,_ZN12ServicioChatD2Ev
FN:72,_ZN12ServicioChatD0Ev
FN:75,_GLOBAL__sub_I__ZN12ServicioChatC2EP21ManejadorDeConexionesP18MensajeHTTPRequestP18SesionesDeUsuariosP14Conversaciones
FN:75,_Z41__static_initialization_and_destruction_0ii
FNDA:0,_ZN12ServicioChatC2EP21ManejadorDeConexionesP18MensajeHTTPRequestP18SesionesDeUsuariosP14Conversaciones
FNDA:0,_ZN12ServicioChat11atenderChatEv
FNDA:0,_ZN12ServicioChat12getRespuestaEv
FNDA:0,_ZN12ServicioChatD0Ev
FNDA:0,_ZN12ServicioChatD2Ev
FNDA:10,_GLOBAL__sub_I__ZN12ServicioChatC2EP21ManejadorDeConexionesP18MensajeHTTPRequestP18SesionesDeUsuariosP14Conversaciones
FNDA:10,_Z41__static_initialization_and_destruction_0ii
FNF:7
FNH:2
DA:3,0
DA:4,0
DA:5,0
DA:6,0
DA:7,0
DA:9,0
DA:10,0
DA:13,0
DA:14,0
DA:15,0
DA:21,0
DA:22,0
DA:31,0
DA:39,0
DA:41,0
DA:42,0
DA:45,0
DA:46,0
DA:47,0
DA:48,0
DA:49,0
DA:50,0
DA:51,0
DA:52,0
DA:54,0
DA:55,0
DA:63,0
DA:64,0
DA:66,0
DA:67,0
DA:72,0
DA:75,30
LF:32
LH:1
end_of_record
SF:/usr/include/c++/4.8/bits/basic_string.h
FN:272,_ZNSs12_Alloc_hiderD2Ev
FNDA:0,_ZNSs12_Alloc_hiderD2Ev
FNF:1
FNH:0
DA:272,0
LF:1
LH:0
end_of_record
SF:/usr/include/c++/4.8/bits/char_traits.h
FN:258,_ZNSt11char_traitsIcE6lengthEPKc
FNDA:0,_ZNSt11char_traitsIcE6lengthEPKc
FNF:1
FNH:0
DA:258,0
DA:259,0
LF:2
LH:0
end_of_record
SF:/usr/include/c++/4.8/bits/ios_base.h
FN:163,_ZStorSt12_Ios_IostateS_
FNDA:0,_ZStorSt12_Ios_IostateS_
FNF:1
FNH:0
DA:163,0
DA:164,0
LF:2
LH:0
end_of_record
SF:/usr/include/c++/4.8/ext/atomicity.h
FN:48,_ZN9__gnu_cxxL18__exchange_and_addEPVii
FN:65,_ZN9__gnu_cxxL25__exchange_and_add_singleEPii
FN:78,_ZN9__gnu_cxxL27__exchange_and_add_dispatchEPii
FNDA:0,_ZN9__gnu_cxxL18__exchange_and_addEPVii
FNDA:0,_ZN9__gnu_cxxL25__exchange_and_add_singleEPii
FNDA:0,_ZN9__gnu_cxxL27__exchange_and_add_dispatchEPii
FNF:3
FNH:0
DA:48,0
DA:49,0
DA:65,0
DA:67,0
DA:68,0
DA:69,0
DA:78,0
DA:81,0
DA:82,0
DA:84,0
LF:10
LH:0
end_of_record
SF:/usr/include/c++/4.8/ext/new_allocator.h
FN:79,_ZN9__gnu_cxx13new_allocatorIcEC2Ev
FN:81,_ZN9__gnu_cxx13new_allocatorIcEC2ERKS1_
FN:86,_ZN9__gnu_cxx13new_allocatorIcED2Ev
FNDA:0,_ZN9__gnu_cxx13new_allocatorIcEC2Ev
FNDA:0,_ZN9__gnu_cxx13new_allocatorIcEC2ERKS1_
FNDA:0,_ZN9__gnu_cxx13new_allocatorIcED2Ev
FNF:3
FNH:0
DA:79,0
DA:81,0
DA:86,0
LF:3
LH:0
end_of_record
SF:/usr/include/c++/4.8/iostream
DA:74,10
LF:1
LH:1
end_of_record
SF:/usr/include/x86_64-linux-gnu/c++/4.8/bits/gthr-default.h
FN:247,_ZL18__gthread_active_pv
FNDA:0,_ZL18__gthread_active_pv
FNF:1
FNH:0
DA:247,0
DA:251,0
LF:2
LH:0
end_of_record
TN:
SF:/home/diego/Desktop/taller2-appserver/Appserver/src/servicios/MensajeHTTPRequestGCM.cpp
FN:3,_ZN21MensajeHTTPRequestGCMC2Ev
FN:11,_ZN21MensajeHTTPRequestGCMD2Ev
FN:11,_ZN21MensajeHTTPRequestGCMD0Ev
FN:14,_Z41__static_initialization_and_destruction_0ii
FN:14,_GLOBAL__sub_I__ZN21MensajeHTTPRequestGCMC2Ev
FNDA:0,_ZN21MensajeHTTPRequestGCMC2Ev
FNDA:0,_ZN21MensajeHTTPRequestGCMD0Ev
FNDA:0,_ZN21MensajeHTTPRequestGCMD2Ev
FNDA:10,_GLOBAL__sub_I__ZN21MensajeHTTPRequestGCMC2Ev
FNDA:10,_Z41__static_initialization_and_destruction_0ii
FNF:5
FNH:2
DA:3,0
DA:4,0
DA:5,0
DA:6,0
DA:7,0
DA:8,0
DA:9,0
DA:11,0
DA:14,30
LF:9
LH:1
end_of_record
SF:/usr/include/c++/4.8/bits/basic_string.h
FN:272,_ZNSs12_Alloc_hiderD2Ev
FNDA:0,_ZNSs12_Alloc_hiderD2Ev
FNF:1
FNH:0
DA:272,0
LF:1
LH:0
end_of_record
SF:/usr/include/c++/4.8/ext/atomicity.h
FN:48,_ZN9__gnu_cxxL18__exchange_and_addEPVii
FN:65,_ZN9__gnu_cxxL25__exchange_and_add_singleEPii
FN:78,_ZN9__gnu_cxxL27__exchange_and_add_dispatchEPii
FNDA:0,_ZN9__gnu_cxxL18__exchange_and_addEPVii
FNDA:0,_ZN9__gnu_cxxL25__exchange_and_add_singleEPii
FNDA:0,_ZN9__gnu_cxxL27__exchange_and_add_dispatchEPii
FNF:3
FNH:0
DA:48,0
DA:49,0
DA:65,0
DA:67,0
DA:68,0
DA:69,0
DA:78,0
DA:81,0
DA:82,0
DA:84,0
LF:10
LH:0
end_of_record
SF:/usr/include/c++/4.8/ext/new_allocator.h
FN:79,_ZN9__gnu_cxx13new_allocatorIcEC2Ev
FN:81,_ZN9__gnu_cxx13new_allocatorIcEC2ERKS1_
FN:86,_ZN9__gnu_cxx13new_allocatorIcED2Ev
FNDA:0,_ZN9__gnu_cxx13new_allocatorIcEC2Ev
FNDA:0,_ZN9__gnu_cxx13new_allocatorIcEC2ERKS1_
FNDA:0,_ZN9__gnu_cxx13new_allocatorIcED2Ev
FNF:3
FNH:0
DA:79,0
DA:81,0
DA:86,0
LF:3
LH:0
end_of_record
SF:/usr/include/c++/4.8/iostream
DA:74,10
LF:1
LH:1
end_of_record
SF:/usr/include/x86_64-linux-gnu/c++/4.8/bits/gthr-default.h
FN:247,_ZL18__gthread_active_pv
FNDA:0,_ZL18__gthread_active_pv
FNF:1
FNH:0
DA:247,0
DA:251,0
LF:2
LH:0
end_of_record
TN:
SF:/home/diego/Desktop/taller2-appserver/Appserver/src/servicios/MensajeHTTPRequest.cpp
FN:5,_ZN18MensajeHTTPRequestC2Ev
FN:10,_ZN18MensajeHTTPRequestC2EP12http_message
FN:17,_ZN18MensajeHTTPRequest9getMetodoEv
FN:21,_ZN18MensajeHTTPRequest6getURIEv
FN:26,_ZN18MensajeHTTPRequest9setMetodoESs
FN:30,_ZN18MensajeHTTPRequest6setURIESs
FN:38,_ZN18MensajeHTTPRequest8toStringEv
FN:45,_ZN18MensajeHTTPRequestD0Ev
FN:45,_ZN18MensajeHTTPRequestD2Ev
FN:48,_Z41__static_initialization_and_destruction_0ii
FN:48,_GLOBAL__sub_I__ZN18MensajeHTTPRequestC2Ev
FNDA:10,_ZN18MensajeHTTPRequestC2Ev
FNDA:40,_ZN18MensajeHTTPRequestC2EP12http_message
FNDA:20,_ZN18MensajeHTTPRequest9getMetodoEv
FNDA:20,_ZN18MensajeHTTPRequest6getURIEv
FNDA:10,_ZN18MensajeHTTPRequest9setMetodoESs
FNDA:10,_ZN18MensajeHTTPRequest6setURIESs
FNDA:10,_ZN18MensajeHTTPRequest8toStringEv
FNDA:40,_ZN18MensajeHTTPRequestD0Ev
FNDA:50,_ZN18MensajeHTTPRequestD2Ev
FNDA:10,_GLOBAL__sub_I__ZN18MensajeHTTPRequestC2Ev
FNDA:10,_Z41__static_initialization_and_destruction_0ii
FNF:11
FNH:11
DA:5,10
DA:7,10
DA:10,40
DA:11,40
DA:12,40
DA:13,40
DA:17,20
DA:18,20
DA:21,20
DA:22,20
DA:26,10
DA:27,10
DA:28,10
DA:30,10
DA:31,10
DA:32,10
DA:38,10
DA:39,10
DA:45,90
DA:48,120
LF:20
LH:20
end_of_record
SF:/usr/include/c++/4.8/bits/basic_string.h
FN:272,_ZNSs12_Alloc_hiderD2Ev
FN:272,_ZNSs12_Alloc_hiderC2ERKS_
FN:2442,_ZStplIcSt11char_traitsIcESaIcEESbIT_T0_T1_EOS6_S7_
FN:2466,_ZStplIcSt11char_traitsIcESaIcEESbIT_T0_T1_EOS6_PKS3_
FNDA:0,_ZNSs12_Alloc_hiderC2ERKS_
FNDA:0,_ZNSs12_Alloc_hiderD2Ev
FNDA:880,_ZStplIcSt11char_traitsIcESaIcEESbIT_T0_T1_EOS6_S7_
FNDA:0,_ZStplIcSt11char_traitsIcESaIcEESbIT_T0_T1_EOS6_PKS3_
FNF:4
FNH:1
DA:272,0
DA:2442,880
DA:2445,880
DA:2446,880
DA:2447,880
DA:2448,0
DA:2449,880
DA:2466,0
DA:2468,0
LF:9
LH:5
end_of_record
SF:/usr/include/c++/4.8/bits/char_traits.h
FN:258,_ZNSt11char_traitsIcE6lengthEPKc
FNDA:0,_ZNSt11char_traitsIcE6lengthEPKc
FNF:1
FNH:0
DA:258,0
DA:259,0
LF:2
LH:0
end_of_record
SF:/usr/include/c++/4.8/bits/move.h
FN:101,_ZSt4moveIRSsEONSt16remove_referenceIT_E4typeEOS2_
FNDA:0,_ZSt4moveIRSsEONSt16remove_referenceIT_E4typeEOS2_
FNF:1
FNH:0
DA:101,0
DA:102,0
LF:2
LH:0
end_of_record
SF:/usr/include/c++/4.8/ext/atomicity.h
FN:48,_ZN9__gnu_cxxL18__exchange_and_addEPVii
FN:65,_ZN9__gnu_cxxL25__exchange_and_add_singleEPii
FN:78,_ZN9__gnu_cxxL27__exchange_and_add_dispatchEPii
FNDA:0,_ZN9__gnu_cxxL18__exchange_and_addEPVii
FNDA:0,_ZN9__gnu_cxxL25__exchange_and_add_singleEPii
FNDA:0,_ZN9__gnu_cxxL27__exchange_and_add_dispatchEPii
FNF:3
FNH:0
DA:48,0
DA:49,0
DA:65,0
DA:67,0
DA:68,0
DA:69,0
DA:78,0
DA:81,0
DA:82,0
DA:84,0
LF:10
LH:0
end_of_record
SF:/usr/include/c++/4.8/ext/new_allocator.h
FN:79,_ZN9__gnu_cxx13new_allocatorIcEC2Ev
FN:81,_ZN9__gnu_cxx13new_allocatorIcEC2ERKS1_
FN:86,_ZN9__gnu_cxx13new_allocatorIcED2Ev
FNDA:0,_ZN9__gnu_cxx13new_allocatorIcEC2Ev
FNDA:0,_ZN9__gnu_cxx13new_allocatorIcEC2ERKS1_
FNDA:0,_ZN9__gnu_cxx13new_allocatorIcED2Ev
FNF:3
FNH:0
DA:79,0
DA:81,0
DA:86,0
LF:3
LH:0
end_of_record
SF:/usr/include/c++/4.8/iostream
DA:74,10
LF:1
LH:1
end_of_record
SF:/usr/include/x86_64-linux-gnu/c++/4.8/bits/gthr-default.h
FN:247,_ZL18__gthread_active_pv
FNDA:0,_ZL18__gthread_active_pv
FNF:1
FNH:0
DA:247,0
DA:251,0
LF:2
LH:0
end_of_record
TN:
SF:/home/diego/Desktop/taller2-appserver/Appserver/src/servicios/JsonObject.cpp
FN:3,_ZN10JsonObjectC2Ev
FN:7,_ZN10JsonObjectixESs
FN:11,_ZN10JsonObject17agregarClaveValorESsSs
FN:15,_ZN10JsonObjectD2Ev
FN:15,_ZN10JsonObjectD0Ev
FNDA:330,_ZN10JsonObjectC2Ev
FNDA:600,_ZN10JsonObjectixESs
FNDA:660,_ZN10JsonObject17agregarClaveValorESsSs
FNDA:0,_ZN10JsonObjectD0Ev
FNDA:330,_ZN10JsonObjectD2Ev
FNF:5
FNH:4
DA:3,330
DA:4,330
DA:5,330
DA:7,600
DA:8,600
DA:11,660
DA:12,660
DA:13,660
DA:15,330
DA:18,330
LF:10
LH:10
end_of_record
TN:
SF:/home/diego/Desktop/taller2-appserver/Appserver/src/servicios/CredencialesDeUsuarios.cpp
FN:5,_ZN22CredencialesDeUsuariosC2ESs
FN:11,_ZN22CredencialesDeUsuarios19validarCredencialesESsSs
FN:25,_ZN22CredencialesDeUsuarios19agregarNuevoUsuarioESsSs
FN:35,_ZN22CredencialesDeUsuarios13existeUsuarioESs
FN:39,_ZN22CredencialesDeUsuarios13getPasswordDeESs
FN:43,_ZN22CredencialesDeUsuarios27agregarUsuarioYCredencialesESsSs
FN:47,_ZN22CredencialesDeUsuariosD0Ev
FN:47,_ZN22CredencialesDeUsuariosD2Ev
FNDA:60,_ZN22CredencialesDeUsuariosC2ESs
FNDA:20,_ZN22CredencialesDeUsuarios19validarCredencialesESsSs
FNDA:60,_ZN22CredencialesDeUsuarios19agregarNuevoUsuarioESsSs
FNDA:100,_ZN22CredencialesDeUsuarios13existeUsuarioESs
FNDA:20,_ZN22CredencialesDeUsuarios13getPasswordDeESs
FNDA:50,_ZN22CredencialesDeUsuarios27agregarUsuarioYCredencialesESsSs
FNDA:60,_ZN22CredencialesDeUsuariosD0Ev
FNDA:60,_ZN22CredencialesDeUsuariosD2Ev
FNF:8
FNH:8
DA:5,60
DA:6,60
DA:7,60
DA:11,20
DA:12,20
DA:13,20
DA:14,10
DA:17,10
DA:21,0
DA:25,60
DA:26,60
DA:27,10
DA:30,50
DA:31,50
DA:35,100
DA:36,100
DA:39,20
DA:40,20
DA:43,50
DA:44,50
DA:45,50
DA:47,120
DA:48,60
DA:49,120
LF:24
LH:23
end_of_record
SF:/usr/include/c++/4.8/bits/basic_string.h
FN:272,_ZNSs12_Alloc_hiderD2Ev
FN:2493,_ZSteqIcEN9__gnu_cxx11__enable_ifIXsrSt9__is_charIT_E7__valueEbE6__typeERKSbIS3_St11char_traitsIS3_ESaIS3_EESC_
FNDA:0,_ZNSs12_Alloc_hiderD2Ev
FNDA:0,_ZSteqIcEN9__gnu_cxx11__enable_ifIXsrSt9__is_charIT_E7__valueEbE6__typeERKSbIS3_St11char_traitsIS3_ESaIS3_EESC_
FNF:2
FNH:0
DA:272,0
DA:2493,0
DA:2495,0
DA:2497,0
LF:4
LH:0
end_of_record
SF:/usr/include/c++/4.8/bits/char_traits.h
FN:254,_ZNSt11char_traitsIcE7compareEPKcS2_m
FNDA:0,_ZNSt11char_traitsIcE7compareEPKcS2_m
FNF:1
FNH:0
DA:254,0
DA:255,0
LF:2
LH:0
end_of_record
SF:/usr/include/c++/4.8/ext/atomicity.h
FN:48,_ZN9__gnu_cxxL18__exchange_and_addEPVii
FN:65,_ZN9__gnu_cxxL25__exchange_and_add_singleEPii
FN:78,_ZN9__gnu_cxxL27__exchange_and_add_dispatchEPii
FNDA:0,_ZN9__gnu_cxxL18__exchange_and_addEPVii
FNDA:0,_ZN9__gnu_cxxL25__exchange_and_add_singleEPii
FNDA:0,_ZN9__gnu_cxxL27__exchange_and_add_dispatchEPii
FNF:3
FNH:0
DA:48,0
DA:49,0
DA:65,0
DA:67,0
DA:68,0
DA:69,0
DA:78,0
DA:81,0
DA:82,0
DA:84,0
LF:10
LH:0
end_of_record
SF:/usr/include/c++/4.8/ext/new_allocator.h
FN:81,_ZN9__gnu_cxx13new_allocatorIcEC2ERKS1_
FN:86,_ZN9__gnu_cxx13new_allocatorIcED2Ev
FNDA:0,_ZN9__gnu_cxx13new_allocatorIcEC2ERKS1_
FNDA:0,_ZN9__gnu_cxx13new_allocatorIcED2Ev
FNF:2
FNH:0
DA:81,0
DA:86,0
LF:2
LH:0
end_of_record
SF:/usr/include/x86_64-linux-gnu/c++/4.8/bits/gthr-default.h
FN:247,_ZL18__gthread_active_pv
FNDA:0,_ZL18__gthread_active_pv
FNF:1
FNH:0
DA:247,0
DA:251,0
LF:2
LH:0
end_of_record
TN:
SF:/home/diego/Desktop/taller2-appserver/Appserver/src/servicios/JsonArray.cpp
FN:3,_ZN9JsonArrayC2Ev
FN:7,_ZN9JsonArrayC2ESs
FN:13,_ZN9JsonArrayixEi
FN:18,_ZN9JsonArray7agregarER9JsonValor
FN:22,_ZN9JsonArray7agregarERSs
FN:25,_ZN9JsonArray7agregarERi
FN:30,_ZN9JsonArrayD0Ev
FN:30,_ZN9JsonArrayD2Ev
FNDA:390,_ZN9JsonArrayC2Ev
FNDA:250,_ZN9JsonArrayC2ESs
FNDA:700,_ZN9JsonArrayixEi
FNDA:340,_ZN9JsonArray7agregarER9JsonValor
FNDA:120,_ZN9JsonArray7agregarERSs
FNDA:60,_ZN9JsonArray7agregarERi
FNDA:0,_ZN9JsonArrayD0Ev
FNDA:640,_ZN9JsonArrayD2Ev
FNF:8
FNH:7
DA:3,390
DA:4,390
DA:5,390
DA:7,250
DA:9,250
DA:13,700
DA:14,700
DA:18,340
DA:19,340
DA:20,340
DA:22,120
DA:23,120
DA:24,120
DA:25,60
DA:26,60
DA:27,60
DA:30,640
DA:33,640
LF:18
LH:18
end_of_record
SF:/usr/include/c++/4.8/bits/basic_string.h
FN:272,_ZNSs12_Alloc_hiderD2Ev
FNDA:0,_ZNSs12_Alloc_hiderD2Ev
FNF:1
FNH:0
DA:272,0
LF:1
LH:0
end_of_record
SF:/usr/include/c++/4.8/ext/atomicity.h
FN:48,_ZN9__gnu_cxxL18__exchange_and_addEPVii
FN:65,_ZN9__gnu_cxxL25__exchange_and_add_singleEPii
FN:78,_ZN9__gnu_cxxL27__exchange_and_add_dispatchEPii
FNDA:0,_ZN9__gnu_cxxL18__exchange_and_addEPVii
FNDA:0,_ZN9__gnu_cxxL25__exchange_and_add_singleEPii
FNDA:0,_ZN9__gnu_cxxL27__exchange_and_add_dispatchEPii
FNF:3
FNH:0
DA:48,0
DA:49,0
DA:65,0
DA:67,0
DA:68,0
DA:69,0
DA:78,0
DA:81,0
DA:82,0
DA:84,0
LF:10
LH:0
end_of_record
SF:/usr/include/c++/4.8/ext/new_allocator.h
FN:81,_ZN9__gnu_cxx13new_allocatorIcEC2ERKS1_
FN:86,_ZN9__gnu_cxx13new_allocatorIcED2Ev
FNDA:0,_ZN9__gnu_cxx13new_allocatorIcEC2ERKS1_
FNDA:0,_ZN9__gnu_cxx13new_allocatorIcED2Ev
FNF:2
FNH:0
DA:81,0
DA:86,0
LF:2
LH:0
end_of_record
SF:/usr/include/x86_64-linux-gnu/c++/4.8/bits/gthr-default.h
FN:247,_ZL18__gthread_active_pv
FNDA:0,_ZL18__gthread_active_pv
FNF:1
FNH:0
DA:247,0
DA:251,0
LF:2
LH:0
end_of_record
TN:
SF:/home/diego/Desktop/taller2-appserver/Appserver/src/servicios/JsonArray.h
FN:8,_ZN9JsonArrayaSERKS_
FNDA:250,_ZN9JsonArrayaSERKS_
FNF:1
FNH:1
DA:8,250
LF:1
LH:1
end_of_record
SF:/home/diego/Desktop/taller2-appserver/Appserver/src/servicios/JsonValor.h
FN:10,_ZN9JsonValoraSERKS_
FNDA:250,_ZN9JsonValoraSERKS_
FNF:1
FNH:1
DA:10,250
LF:1
LH:1
end_of_record
SF:/home/diego/Desktop/taller2-appserver/Appserver/src/servicios/Mensajes.cpp
FN:5,_ZN8MensajesC2Ev
FN:20,_ZN8MensajesC2ESs
FN:24,_ZN8MensajesD2Ev
FN:24,_ZN8MensajesD0Ev
FN:29,_ZN8Mensajes12indiceValidoEi
FN:33,_ZN8Mensajes9getEmisorEi
FN:49,_ZN8Mensajes10getMensajeEi
FN:69,_ZN8Mensajes8toStringEv
FN:73,_ZN8Mensajes10getTamanioEv
FN:77,_ZN8Mensajes14agregarMensajeESsSs
FNDA:70,_ZN8MensajesC2Ev
FNDA:250,_ZN8MensajesC2ESs
FNDA:0,_ZN8MensajesD0Ev
FNDA:320,_ZN8MensajesD2Ev
FNDA:700,_ZN8Mensajes12indiceValidoEi
FNDA:350,_ZN8Mensajes9getEmisorEi
FNDA:350,_ZN8Mensajes10getMensajeEi
FNDA:180,_ZN8Mensajes8toStringEv
FNDA:70,_ZN8Mensajes10getTamanioEv
FNDA:330,_ZN8Mensajes14agregarMensajeESsSs
FNF:10
FNH:9
DA:5,70
DA:18,70
DA:20,250
DA:21,250
DA:22,250
DA:24,320
DA:26,320
DA:29,700
DA:30,700
DA:33,350
DA:34,350
DA:35,350
DA:36,300
DA:37,300
DA:38,600
DA:40,300
DA:41,600
DA:45,50
DA:49,350
DA:50,350
DA:51,350
DA:52,300
DA:53,300
DA:55,600
DA:57,300
DA:58,600
DA:64,50
DA:69,180
DA:70,180
DA:73,70
DA:74,70
DA:77,330
DA:78,330
DA:79,330
DA:80,330
DA:81,330
DA:82,330
LF:37
LH:37
end_of_record
SF:/usr/include/c++/4.8/bits/basic_string.h
FN:272,_ZNSs12_Alloc_hiderC2ERKS_
FN:272,_ZNSs12_Alloc_hiderD2Ev
FNDA:0,_ZNSs12_Alloc_hiderC2ERKS_
FNDA:0,_ZNSs12_Alloc_hiderD2Ev
FNF:2
FNH:0
DA:272,0
LF:1
LH:0
end_of_record
SF:/usr/include/c++/4.8/ext/atomicity.h
FN:48,_ZN9__gnu_cxxL18__exchange_and_addEPVii
FN:65,_ZN9__gnu_cxxL25__exchange_and_add_singleEPii
FN:78,_ZN9__gnu_cxxL27__exchange_and_add_dispatchEPii
FNDA:0,_ZN9__gnu_cxxL18__exchange_and_addEPVii
FNDA:0,_ZN9__gnu_cxxL25__exchange_and_add_singleEPii
FNDA:0,_ZN9__gnu_cxxL27__exchange_and_add_dispatchEPii
FNF:3
FNH:0
DA:48,0
DA:49,0
DA:65,0
DA:67,0
DA:68,0
DA:69,0
DA:78,0
DA:81,0
DA:82,0
DA:84,0
LF:10
LH:0
end_of_record
SF:/usr/include/c++/4.8/ext/new_allocator.h
FN:79,_ZN9__gnu_cxx13new_allocatorIcEC2Ev
FN:81,_ZN9__gnu_cxx13new_allocatorIcEC2ERKS1_
FN:86,_ZN9__gnu_cxx13new_allocatorIcED2Ev
FNDA:0,_ZN9__gnu_cxx13new_allocatorIcEC2Ev
FNDA:0,_ZN9__gnu_cxx13new_allocatorIcEC2ERKS1_
FNDA:0,_ZN9__gnu_cxx13new_allocatorIcED2Ev
FNF:3
FNH:0
DA:79,0
DA:81,0
DA:86,0
LF:3
LH:0
end_of_record
SF:/usr/include/x86_64-linux-gnu/c++/4.8/bits/gthr-default.h
FN:247,_ZL18__gthread_active_pv
FNDA:0,_ZL18__gthread_active_pv
FNF:1
FNH:0
DA:247,0
DA:251,0
LF:2
LH:0
end_of_record
TN:
SF:/home/diego/Desktop/taller2-appserver/Appserver/src/servicios/ServicioMensajes.cpp
FN:3,_ZN16ServicioMensajesC2EP18MensajeHTTPRequestP18SesionesDeUsuariosP14Conversaciones
FN:11,_ZN16ServicioMensajesD0Ev
FN:11,_ZN16ServicioMensajesD2Ev
FN:16,_ZN16ServicioMensajes15atenderMensajesEv
FN:42,_ZN16ServicioMensajes12getRespuestaEv
FN:44,_GLOBAL__sub_I__ZN16ServicioMensajesC2EP18MensajeHTTPRequestP18SesionesDeUsuariosP14Conversaciones
FN:44,_Z41__static_initialization_and_destruction_0ii
FNDA:0,_ZN16ServicioMensajesC2EP18MensajeHTTPRequestP18SesionesDeUsuariosP14Conversaciones
FNDA:0,_ZN16ServicioMensajesD0Ev
FNDA:0,_ZN16ServicioMensajesD2Ev
FNDA:0,_ZN16ServicioMensajes15atenderMensajesEv
FNDA:0,_ZN16ServicioMensajes12getRespuestaEv
FNDA:10,_GLOBAL__sub_I__ZN16ServicioMensajesC2EP18MensajeHTTPRequestP18SesionesDeUsuariosP14Conversaciones
FNDA:10,_Z41__static_initialization_and_destruction_0ii
FNF:7
FNH:2
DA:3,0
DA:4,0
DA:5,0
DA:6,0
DA:8,0
DA:9,0
DA:11,0
DA:13,0
DA:16,0
DA:17,0
DA:18,0
DA:24,0
DA:25,0
DA:26,0
DA:28,0
DA:29,0
DA:31,0
DA:39,0
DA:40,0
DA:42,0
DA:43,0
DA:44,30
LF:22
LH:1
end_of_record
SF:/usr/include/c++/4.8/bits/basic_string.h
FN:272,_ZNSs12_Alloc_hiderD2Ev
FNDA:0,_ZNSs12_Alloc_hiderD2Ev
FNF:1
FNH:0
DA:272,0
LF:1
LH:0
end_of_record
SF:/usr/include/c++/4.8/bits/basic_string.tcc
FN:692,_ZStplIcSt11char_traitsIcESaIcEESbIT_T0_T1_EPKS3_RKS6_
FNDA:4970,_ZStplIcSt11char_traitsIcESaIcEESbIT_T0_T1_EPKS3_RKS6_
FNF:1
FNH:1
DA:692,4970
DA:698,4970
DA:699,4970
DA:700,4970
DA:701,4970
DA:702,4970
DA:703,4970
LF:7
LH:7
end_of_record
SF:/usr/include/c++/4.8/bits/char_traits.h
FN:258,_ZNSt11char_traitsIcE6lengthEPKc
FNDA:4970,_ZNSt11char_traitsIcE6lengthEPKc
FNF:1
FNH:1
DA:258,4970
DA:259,4970
LF:2
LH:2
end_of_record
SF:/usr/include/c++/4.8/ext/atomicity.h
FN:48,_ZN9__gnu_cxxL18__exchange_and_addEPVii
FN:65,_ZN9__gnu_cxxL25__exchange_and_add_singleEPii
FN:78,_ZN9__gnu_cxxL27__exchange_and_add_dispatchEPii
FNDA:0,_ZN9__gnu_cxxL18__exchange_and_addEPVii
FNDA:0,_ZN9__gnu_cxxL25__exchange_and_add_singleEPii
FNDA:0,_ZN9__gnu_cxxL27__exchange_and_add_dispatchEPii
FNF:3
FNH:0
DA:48,0
DA:49,0
DA:65,0
DA:67,0
DA:68,0
DA:69,0
DA:78,0
DA:81,0
DA:82,0
DA:84,0
LF:10
LH:0
end_of_record
SF:/usr/include/c++/4.8/ext/new_allocator.h
FN:79,_ZN9__gnu_cxx13new_allocatorIcEC2Ev
FN:81,_ZN9__gnu_cxx13new_allocatorIcEC2ERKS1_
FN:86,_ZN9__gnu_cxx13new_allocatorIcED2Ev
FNDA:0,_ZN9__gnu_cxx13new_allocatorIcEC2Ev
FNDA:0,_ZN9__gnu_cxx13new_allocatorIcEC2ERKS1_
FNDA:0,_ZN9__gnu_cxx13new_allocatorIcED2Ev
FNF:3
FNH:0
DA:79,0
DA:81,0
DA:86,0
LF:3
LH:0
end_of_record
SF:/usr/include/c++/4.8/iostream
DA:74,10
LF:1
LH:1
end_of_record
SF:/usr/include/x86_64-linux-gnu/c++/4.8/bits/gthr-default.h
FN:247,_ZL18__gthread_active_pv
FNDA:0,_ZL18__gthread_active_pv
FNF:1
FNH:0
DA:247,0
DA:251,0
LF:2
LH:0
end_of_record
TN:
SF:/home/diego/Desktop/taller2-appserver/Appserver/src/servicios/ClienteDelSharedServer.cpp
FN:3,_ZN22ClienteDelSharedServerC2Ev
FN:8,_ZN22ClienteDelSharedServerD0Ev
FN:8,_ZN22ClienteDelSharedServerD2Ev
FN:13,_ZN22ClienteDelSharedServer16esperarRespuestaEv
FN:23,_ZN22ClienteDelSharedServer12setRespuestaE16MensajeHTTPReply
FN:28,_ZN22ClienteDelSharedServer16terminarConexionEv
FN:37,_ZN22ClienteDelSharedServer12getRespuestaEv
FN:39,_GLOBAL__sub_I__ZN22ClienteDelSharedServerC2Ev
FN:39,_Z41__static_initialization_and_destruction_0ii
FNDA:0,_ZN22ClienteDelSharedServerC2Ev
FNDA:0,_ZN22ClienteDelSharedServerD0Ev
FNDA:0,_ZN22ClienteDelSharedServerD2Ev
FNDA:0,_ZN22ClienteDelSharedServer16esperarRespuestaEv
FNDA:0,_ZN22ClienteDelSharedServer12setRespuestaE16MensajeHTTPReply
FNDA:0,_ZN22ClienteDelSharedServer16terminarConexionEv
FNDA:0,_ZN22ClienteDelSharedServer12getRespuestaEv
FNDA:10,_GLOBAL__sub_I__ZN22ClienteDelSharedServerC2Ev
FNDA:10,_Z41__static_initialization_and_destruction_0ii
FNF:9
FNH:2
DA:3,0
DA:5,0
DA:6,0
DA:8,0
DA:11,0
DA:13,0
DA:16,0
DA:17,0
DA:21,0
DA:23,0
DA:24,0
DA:26,0
DA:28,0
DA:29,0
DA:30,0
DA:37,0
DA:38,0
DA:39,30
LF:18
LH:1
end_of_record
SF:/home/diego/Desktop/taller2-appserver/Appserver/src/servicios/MensajeHTTP.h
FN:11,_ZN11MensajeHTTPaSERKS_
FN:11,_ZN11MensajeHTTPC2ERKS_
FNDA:0,_ZN11MensajeHTTPC2ERKS_
FNDA:0,_ZN11MensajeHTTPaSERKS_
FNF:2
FNH:0
DA:11,0
LF:1
LH:0
end_of_record
SF:/home/diego/Desktop/taller2-appserver/Appserver/src/servicios/MensajeHTTPReply.h
FN:9,_ZN16MensajeHTTPReplyaSERKS_
FN:9,_ZN16MensajeHTTPReplyC2ERKS_
FNDA:0,_ZN16MensajeHTTPReplyC2ERKS_
FNDA:0,_ZN16MensajeHTTPReplyaSERKS_
FNF:2
FNH:0
DA:9,0
LF:1
LH:0
end_of_record
SF:/usr/include/c++/4.8/bits/alloc_traits.h
FN:253,_ZNSt16allocator_traitsISaISt13_Rb_tree_nodeISt4pairIKSsSsEEEE12_S_constructIS4_IRKS3_EEENSt9enable_ifIXsrNS6_18__construct_helperIT_IDpT0_EEE5valueEvE4typeERS5_PSC_DpOSD_
FN:391,_ZNSt16allocator_traitsISaISt13_Rb_tree_nodeISt4pairIKSsSsEEEE9constructIS4_IRKS3_EEEDTcl12_S_constructfp_fp0_spcl7forwardIT0_Efp1_EEERS5_PT_DpOSA_
FNDA:0,_ZNSt16allocator_traitsISaISt13_Rb_tree_nodeISt4pairIKSsSsEEEE12_S_constructIS4_IRKS3_EEENSt9enable_ifIXsrNS6_18__construct_helperIT_IDpT0_EEE5valueEvE4typeERS5_PSC_DpOSD_
FNDA:0,_ZNSt16allocator_traitsISaISt13_Rb_tree_nodeISt4pairIKSsSsEEEE9constructIS4_IRKS3_EEEDTcl12_S_constructfp_fp0_spcl7forwardIT0_Efp1_EEERS5_PT_DpOSA_
FNF:2
FNH:0
DA:253,0
DA:254,0
DA:391,0
DA:393,0
LF:4
LH:0
end_of_record
SF:/usr/include/c++/4.8/bits/allocator.h
FN:115,_ZNSaISt13_Rb_tree_nodeISt4pairIKSsSsEEEC2ERKS4_
FN:121,_ZNSaISt13_Rb_tree_nodeISt4pairIKSsSsEEED2Ev
FNDA:0,_ZNSaISt13_Rb_tree_nodeISt4pairIKSsSsEEEC2ERKS4_
FNDA:110,_ZNSaISt13_Rb_tree_nodeISt4pairIKSsSsEEED2Ev
FNF:2
FNH:1
DA:115,0
DA:116,0
DA:121,110
LF:3
LH:1
end_of_record
SF:/usr/include/c++/4.8/bits/basic_string.h
FN:272,_ZNSs12_Alloc_hiderD2Ev
FNDA:0,_ZNSs12_Alloc_hiderD2Ev
FNF:1
FNH:0
DA:272,0
LF:1
LH:0
end_of_record
SF:/usr/include/c++/4.8/bits/move.h
FN:76,_ZSt7forwardIRKSt4pairIKSsSsEEOT_RNSt16remove_referenceIS5_E4typeE
FNDA:0,_ZSt7forwardIRKSt4pairIKSsSsEEOT_RNSt16remove_referenceIS5_E4typeE
FNF:1
FNH:0
DA:76,0
DA:77,0
LF:2
LH:0
end_of_record
SF:/usr/include/c++/4.8/bits/stl_map.h
FN:180,_ZNSt3mapISsSsSt4lessISsESaISt4pairIKSsSsEEEC2ERKS6_
FN:264,_ZNSt3mapISsSsSt4lessISsESaISt4pairIKSsSsEEEaSERKS6_
FNDA:0,_ZNSt3mapISsSsSt4lessISsESaISt4pairIKSsSsEEEC2ERKS6_
FNDA:0,_ZNSt3mapISsSsSt4lessISsESaISt4pairIKSsSsEEEaSERKS6_
FNF:2
FNH:0
DA:180,0
DA:181,0
DA:264,0
DA:266,0
DA:267,0
LF:5
LH:0
end_of_record
SF:/usr/include/c++/4.8/bits/stl_pair.h
FN:96,_ZNSt4pairIKSsSsED2Ev
FN:127,_ZNSt4pairIKSsSsEC2ERKS1_
FNDA:940,_ZNSt4pairIKSsSsED2Ev
FNDA:0,_ZNSt4pairIKSsSsEC2ERKS1_
FNF:2
FNH:1
DA:96,940
DA:127,0
LF:2
LH:1
end_of_record
SF:/usr/include/c++/4.8/bits/stl_tree.h
FN:102,_ZNSt18_Rb_tree_node_base10_S_minimumEPS_
FN:116,_ZNSt18_Rb_tree_node_base10_S_maximumEPS_
FN:131,_ZNSt13_Rb_tree_nodeISt4pairIKSsSsEED2Ev
FN:138,_ZNSt13_Rb_tree_nodeISt4pairIKSsSsEEC2IIRKS2_EEEDpOT_
FN:356,_ZNSt8_Rb_treeISsSt4pairIKSsSsESt10_Select1stIS2_ESt4lessISsESaIS2_EE21_M_get_Node_allocatorEv
FN:360,_ZNKSt8_Rb_treeISsSt4pairIKSsSsESt10_Select1stIS2_ESt4lessISsESaIS2_EE21_M_get_Node_allocatorEv
FN:369,_ZNSt8_Rb_treeISsSt4pairIKSsSsESt10_Select1stIS2_ESt4lessISsESaIS2_EE11_M_get_nodeEv
FN:373,_ZNSt8_Rb_treeISsSt4pairIKSsSsESt10_Select1stIS2_ESt4lessISsESaIS2_EE11_M_put_nodeEPSt13_Rb_tree_nodeIS2_E
FN:401,_ZNSt8_Rb_treeISsSt4pairIKSsSsESt10_Select1stIS2_ESt4lessISsESaIS2_EE14_M_create_nodeIIRKS2_EEEPSt13_Rb_tree_nodeIS2_EDpOT_
FN:419,_ZNSt8_Rb_treeISsSt4pairIKSsSsESt10_Select1stIS2_ESt4lessISsESaIS2_EE15_M_destroy_nodeEPSt13_Rb_tree_nodeIS2_E
FN:427,_ZNSt8_Rb_treeISsSt4pairIKSsSsESt10_Select1stIS2_ESt4lessISsESaIS2_EE13_M_clone_nodeEPKSt13_Rb_tree_nodeIS2_E
FN:439,_ZNSt8_Rb_treeISsSt4pairIKSsSsESt10_Select1stIS2_ESt4lessISsESaIS2_EE13_Rb_tree_implIS6_Lb1EED2Ev
FN:450,_ZNSt8_Rb_treeISsSt4pairIKSsSsESt10_Select1stIS2_ESt4lessISsESaIS2_EE13_Rb_tree_implIS6_Lb1EEC2ERKS6_RKSaISt13_Rb_tree_nodeIS2_EE
FN:464,_ZNSt8_Rb_treeISsSt4pairIKSsSsESt10_Select1stIS2_ESt4lessISsESaIS2_EE13_Rb_tree_implIS6_Lb1EE13_M_initializeEv
FN:477,_ZNSt8_Rb_treeISsSt4pairIKSsSsESt10_Select1stIS2_ESt4lessISsESaIS2_EE7_M_rootEv
FN:481,_ZNKSt8_Rb_treeISsSt4pairIKSsSsESt10_Select1stIS2_ESt4lessISsESaIS2_EE7_M_rootEv
FN:485,_ZNSt8_Rb_treeISsSt4pairIKSsSsESt10_Select1stIS2_ESt4lessISsESaIS2_EE11_M_leftmostEv
FN:493,_ZNSt8_Rb_treeISsSt4pairIKSsSsESt10_Select1stIS2_ESt4lessISsESaIS2_EE12_M_rightmostEv
FN:501,_ZNSt8_Rb_treeISsSt4pairIKSsSsESt10_Select1stIS2_ESt4lessISsESaIS2_EE8_M_beginEv
FN:505,_ZNKSt8_Rb_treeISsSt4pairIKSsSsESt10_Select1stIS2_ESt4lessISsESaIS2_EE8_M_beginEv
FN:512,_ZNSt8_Rb_treeISsSt4pairIKSsSsESt10_Select1stIS2_ESt4lessISsESaIS2_EE6_M_endEv
FN:528,_ZNSt8_Rb_treeISsSt4pairIKSsSsESt10_Select1stIS2_ESt4lessISsESaIS2_EE7_S_leftEPSt18_Rb_tree_node_base
FN:532,_ZNSt8_Rb_treeISsSt4pairIKSsSsESt10_Select1stIS2_ESt4lessISsESaIS2_EE7_S_leftEPKSt18_Rb_tree_node_base
FN:536,_ZNSt8_Rb_treeISsSt4pairIKSsSsESt10_Select1stIS2_ESt4lessISsESaIS2_EE8_S_rightEPSt18_Rb_tree_node_base
FN:540,_ZNSt8_Rb_treeISsSt4pairIKSsSsESt10_Select1stIS2_ESt4lessISsESaIS2_EE8_S_rightEPKSt18_Rb_tree_node_base
FN:552,_ZNSt8_Rb_treeISsSt4pairIKSsSsESt10_Select1stIS2_ESt4lessISsESaIS2_EE10_S_minimumEPSt18_Rb_tree_node_base
FN:560,_ZNSt8_Rb_treeISsSt4pairIKSsSsESt10_Select1stIS2_ESt4lessISsESaIS2_EE10_S_maximumEPSt18_Rb_tree_node_base
FN:654,_ZNSt8_Rb_treeISsSt4pairIKSsSsESt10_Select1stIS2_ESt4lessISsESaIS2_EEC2ERKS8_
FN:858,_ZNSt8_Rb_treeISsSt4pairIKSsSsESt10_Select1stIS2_ESt4lessISsESaIS2_EE5clearEv
FN:987,_ZNSt8_Rb_treeISsSt4pairIKSsSsESt10_Select1stIS2_ESt4lessISsESaIS2_EEaSERKS8_
FN:1083,_ZNSt8_Rb_treeISsSt4pairIKSsSsESt10_Select1stIS2_ESt4lessISsESaIS2_EE7_M_copyEPKSt13_Rb_tree_nodeIS2_EPSA_
FN:1119,_ZNSt8_Rb_treeISsSt4pairIKSsSsESt10_Select1stIS2_ESt4lessISsESaIS2_EE8_M_eraseEPSt13_Rb_tree_nodeIS2_E
FNDA:1710,_ZNSt18_Rb_tree_node_base10_S_minimumEPS_
FNDA:1710,_ZNSt18_Rb_tree_node_base10_S_maximumEPS_
FNDA:940,_ZNSt13_Rb_tree_nodeISt4pairIKSsSsEED2Ev
FNDA:0,_ZNSt13_Rb_tree_nodeISt4pairIKSsSsEEC2IIRKS2_EEEDpOT_
FNDA:1140,_ZNSt8_Rb_treeISsSt4pairIKSsSsESt10_Select1stIS2_ESt4lessISsESaIS2_EE21_M_get_Node_allocatorEv
FNDA:0,_ZNKSt8_Rb_treeISsSt4pairIKSsSsESt10_Select1stIS2_ESt4lessISsESaIS2_EE21_M_get_Node_allocatorEv
FNDA:200,_ZNSt8_Rb_treeISsSt4pairIKSsSsESt10_Select1stIS2_ESt4lessISsESaIS2_EE11_M_get_nodeEv
FNDA:940,_ZNSt8_Rb_treeISsSt4pairIKSsSsESt10_Select1stIS2_ESt4lessISsESaIS2_EE11_M_put_nodeEPSt13_Rb_tree_nodeIS2_E
FNDA:0,_ZNSt8_Rb_treeISsSt4pairIKSsSsESt10_Select1stIS2_ESt4lessISsESaIS2_EE14_M_create_nodeIIRKS2_EEEPSt13_Rb_tree_nodeIS2_EDpOT_
FNDA:940,_ZNSt8_Rb_treeISsSt4pairIKSsSsESt10_Select1stIS2_ESt4lessISsESaIS2_EE15_M_destroy_nodeEPSt13_Rb_tree_nodeIS2_E
FNDA:0,_ZNSt8_Rb_treeISsSt4pairIKSsSsESt10_Select1stIS2_ESt4lessISsESaIS2_EE13_M_clone_nodeEPKSt13_Rb_tree_nodeIS2_E
FNDA:110,_ZNSt8_Rb_treeISsSt4pairIKSsSsESt10_Select1stIS2_ESt4lessISsESaIS2_EE13_Rb_tree_implIS6_Lb1EED2Ev
FNDA:0,_ZNSt8_Rb_treeISsSt4pairIKSsSsESt10_Select1stIS2_ESt4lessISsESaIS2_EE13_Rb_tree_implIS6_Lb1EEC2ERKS6_RKSaISt13_Rb_tree_nodeIS2_EE
FNDA:110,_ZNSt8_Rb_treeISsSt4pairIKSsSsESt10_Select1stIS2_ESt4lessISsESaIS2_EE13_Rb_tree_implIS6_Lb1EE13_M_initializeEv
FNDA:0,_ZNSt8_Rb_treeISsSt4pairIKSsSsESt10_Select1stIS2_ESt4lessISsESaIS2_EE7_M_rootEv
FNDA:0,_ZNKSt8_Rb_treeISsSt4pairIKSsSsESt10_Select1stIS2_ESt4lessISsESaIS2_EE7_M_rootEv
FNDA:30,_ZNSt8_Rb_treeISsSt4pairIKSsSsESt10_Select1stIS2_ESt4lessISsESaIS2_EE11_M_leftmostEv
FNDA:160,_ZNSt8_Rb_treeISsSt4pairIKSsSsESt10_Select1stIS2_ESt4lessISsESaIS2_EE12_M_rightmostEv
FNDA:660,_ZNSt8_Rb_treeISsSt4pairIKSsSsESt10_Select1stIS2_ESt4lessISsESaIS2_EE8_M_beginEv
FNDA:0,_ZNKSt8_Rb_treeISsSt4pairIKSsSsESt10_Select1stIS2_ESt4lessISsESaIS2_EE8_M_beginEv
FNDA:970,_ZNSt8_Rb_treeISsSt4pairIKSsSsESt10_Select1stIS2_ESt4lessISsESaIS2_EE6_M_endEv
FNDA:1100,_ZNSt8_Rb_treeISsSt4pairIKSsSsESt10_Select1stIS2_ESt4lessISsESaIS2_EE7_S_leftEPSt18_Rb_tree_node_base
FNDA:0,_ZNSt8_Rb_treeISsSt4pairIKSsSsESt10_Select1stIS2_ESt4lessISsESaIS2_EE7_S_leftEPKSt18_Rb_tree_node_base
FNDA:1060,_ZNSt8_Rb_treeISsSt4pairIKSsSsESt10_Select1stIS2_ESt4lessISsESaIS2_EE8_S_rightEPSt18_Rb_tree_node_base
FNDA:0,_ZNSt8_Rb_treeISsSt4pairIKSsSsESt10_Select1stIS2_ESt4lessISsESaIS2_EE8_S_rightEPKSt18_Rb_tree_node_base
FNDA:0,_ZNSt8_Rb_treeISsSt4pairIKSsSsESt10_Select1stIS2_ESt4lessISsESaIS2_EE10_S_minimumEPSt18_Rb_tree_node_base
FNDA:0,_ZNSt8_Rb_treeISsSt4pairIKSsSsESt10_Select1stIS2_ESt4lessISsESaIS2_EE10_S_maximumEPSt18_Rb_tree_node_base
FNDA:0,_ZNSt8_Rb_treeISsSt4pairIKSsSsESt10_Select1stIS2_ESt4lessISsESaIS2_EEC2ERKS8_
FNDA:0,_ZNSt8_Rb_treeISsSt4pairIKSsSsESt10_Select1stIS2_ESt4lessISsESaIS2_EE5clearEv
FNDA:0,_ZNSt8_Rb_treeISsSt4pairIKSsSsESt10_Select1stIS2_ESt4lessISsESaIS2_EEaSERKS8_
FNDA:0,_ZNSt8_Rb_treeISsSt4pairIKSsSsESt10_Select1stIS2_ESt4lessISsESaIS2_EE7_M_copyEPKSt13_Rb_tree_nodeIS2_EPSA_
FNDA:1790,_ZNSt8_Rb_treeISsSt4pairIKSsSsESt10_Select1stIS2_ESt4lessISsESaIS2_EE8_M_eraseEPSt13_Rb_tree_nodeIS2_E
FNF:32
FNH:16
DA:102,1710
DA:104,1710
DA:105,1710
DA:116,1710
DA:118,1710
DA:119,1710
DA:131,940
DA:138,0
DA:140,0
DA:356,1140
DA:357,1140
DA:360,0
DA:361,0
DA:369,200
DA:370,200
DA:373,940
DA:374,940
DA:401,0
DA:403,0
DA:406,0
DA:407,0
DA:408,0
DA:410,=====
DA:412,=====
DA:413,=====
DA:415,0
DA:419,940
DA:421,940
DA:422,940
DA:423,940
DA:427,0
DA:429,0
DA:430,0
DA:431,0
DA:432,0
DA:433,0
DA:439,110
DA:450,0
DA:452,0
DA:453,0
DA:464,110
DA:466,110
DA:467,110
DA:468,110
DA:469,110
DA:470,110
DA:477,0
DA:478,0
DA:481,0
DA:482,0
DA:485,30
DA:486,30
DA:493,160
DA:494,160
DA:501,660
DA:502,660
DA:505,0
DA:508,0
DA:512,970
DA:513,970
DA:528,1100
DA:529,1100
DA:532,0
DA:533,0
DA:536,1060
DA:537,1060
DA:540,0
DA:541,0
DA:552,0
DA:553,0
DA:560,0
DA:561,0
DA:654,0
DA:655,0
DA:657,0
DA:659,0
DA:660,0
DA:661,0
DA:662,0
DA:664,0
DA:858,0
DA:860,0
DA:861,0
DA:862,0
DA:863,0
DA:864,0
DA:865,0
DA:987,0
DA:990,0
DA:993,0
DA:995,0
DA:997,0
DA:998,0
DA:999,0
DA:1000,0
DA:1003,0
DA:1083,0
DA:1087,0
DA:1088,0
DA:1092,0
DA:1093,0
DA:1094,0
DA:1095,0
DA:1097,0
DA:1099,0
DA:1100,0
DA:1101,0
DA:1102,0
DA:1103,0
DA:1104,0
DA:1105,0
DA:1108,=====
DA:1110,=====
DA:1111,=====
DA:1113,0
DA:1119,1790
DA:1123,4520
DA:1125,940
DA:1126,940
DA:1127,940
DA:1128,940
DA:1130,1790
LF:122
LH:43
end_of_record
SF:/usr/include/c++/4.8/ext/atomicity.h
FN:48,_ZN9__gnu_cxxL18__exchange_and_addEPVii
FN:65,_ZN9__gnu_cxxL25__exchange_and_add_singleEPii
FN:78,_ZN9__gnu_cxxL27__exchange_and_add_dispatchEPii
FNDA:0,_ZN9__gnu_cxxL18__exchange_and_addEPVii
FNDA:0,_ZN9__gnu_cxxL25__exchange_and_add_singleEPii
FNDA:0,_ZN9__gnu_cxxL27__exchange_and_add_dispatchEPii
FNF:3
FNH:0
DA:48,0
DA:49,0
DA:65,0
DA:67,0
DA:68,0
DA:69,0
DA:78,0
DA:81,0
DA:82,0
DA:84,0
LF:10
LH:0
end_of_record
SF:/usr/include/c++/4.8/ext/new_allocator.h
FN:81,_ZN9__gnu_cxx13new_allocatorISt13_Rb_tree_nodeISt4pairIKSsSsEEEC2ERKS6_
FN:81,_ZN9__gnu_cxx13new_allocatorIcEC2ERKS1_
FN:86,_ZN9__gnu_cxx13new_allocatorISt13_Rb_tree_nodeISt4pairIKSsSsEEED2Ev
FN:86,_ZN9__gnu_cxx13new_allocatorIcED2Ev
FN:99,_ZN9__gnu_cxx13new_allocatorISt13_Rb_tree_nodeISt4pairIKSsSsEEE8allocateEmPKv
FN:109,_ZN9__gnu_cxx13new_allocatorISt13_Rb_tree_nodeISt4pairIKSsSsEEE10deallocateEPS5_m
FN:113,_ZNK9__gnu_cxx13new_allocatorISt13_Rb_tree_nodeISt4pairIKSsSsEEE8max_sizeEv
FN:119,_ZN9__gnu_cxx13new_allocatorISt13_Rb_tree_nodeISt4pairIKSsSsEEE9constructIS5_IRKS4_EEEvPT_DpOT0_
FN:124,_ZN9__gnu_cxx13new_allocatorISt13_Rb_tree_nodeISt4pairIKSsSsEEE7destroyIS5_EEvPT_
FNDA:0,_ZN9__gnu_cxx13new_allocatorISt13_Rb_tree_nodeISt4pairIKSsSsEEEC2ERKS6_
FNDA:0,_ZN9__gnu_cxx13new_allocatorIcEC2ERKS1_
FNDA:110,_ZN9__gnu_cxx13new_allocatorISt13_Rb_tree_nodeISt4pairIKSsSsEEED2Ev
FNDA:0,_ZN9__gnu_cxx13new_allocatorIcED2Ev
FNDA:200,_ZN9__gnu_cxx13new_allocatorISt13_Rb_tree_nodeISt4pairIKSsSsEEE8allocateEmPKv
FNDA:940,_ZN9__gnu_cxx13new_allocatorISt13_Rb_tree_nodeISt4pairIKSsSsEEE10deallocateEPS5_m
FNDA:200,_ZNK9__gnu_cxx13new_allocatorISt13_Rb_tree_nodeISt4pairIKSsSsEEE8max_sizeEv
FNDA:0,_ZN9__gnu_cxx13new_allocatorISt13_Rb_tree_nodeISt4pairIKSsSsEEE9constructIS5_IRKS4_EEEvPT_DpOT0_
FNDA:940,_ZN9__gnu_cxx13new_allocatorISt13_Rb_tree_nodeISt4pairIKSsSsEEE7destroyIS5_EEvPT_
FNF:9
FNH:5
DA:81,0
DA:86,110
DA:99,200
DA:101,200
DA:102,0
DA:104,200
DA:109,940
DA:110,940
DA:113,200
DA:114,200
DA:119,0
DA:120,0
DA:124,940
LF:13
LH:9
end_of_record
SF:/usr/include/c++/4.8/iostream
DA:74,10
LF:1
LH:1
end_of_record
SF:/usr/include/c++/4.8/new
FN:109,_ZnwmPv
FN:115,_ZdlPvS_
FNDA:24800,_ZnwmPv
FNDA:0,_ZdlPvS_
FNF:2
FNH:1
DA:109,24800
DA:110,24800
DA:115,0
LF:3
LH:2
end_of_record
SF:/usr/include/x86_64-linux-gnu/c++/4.8/bits/gthr-default.h
FN:247,_ZL18__gthread_active_pv
FNDA:0,_ZL18__gthread_active_pv
FNF:1
FNH:0
DA:247,0
DA:251,0
LF:2
LH:0
end_of_record
TN:
SF:/home/diego/Desktop/taller2-appserver/Appserver/src/servicios/MensajeHTTPReply.cpp
FN:3,_ZN16MensajeHTTPReplyC2Ev
FN:7,_ZN16MensajeHTTPReplyC2EP12http_message
FN:13,_ZN16MensajeHTTPReply9getCodigoEv
FN:17,_ZN16MensajeHTTPReply18getMensajeDeEstadoEv
FN:21,_ZN16MensajeHTTPReply8toStringEv
FN:39,_ZN16MensajeHTTPReplyD2Ev
FN:39,_ZN16MensajeHTTPReplyD0Ev
FN:42,_GLOBAL__sub_I__ZN16MensajeHTTPReplyC2Ev
FN:42,_Z41__static_initialization_and_destruction_0ii
FNDA:0,_ZN16MensajeHTTPReplyC2Ev
FNDA:30,_ZN16MensajeHTTPReplyC2EP12http_message
FNDA:10,_ZN16MensajeHTTPReply9getCodigoEv
FNDA:10,_ZN16MensajeHTTPReply18getMensajeDeEstadoEv
FNDA:0,_ZN16MensajeHTTPReply8toStringEv
FNDA:30,_ZN16MensajeHTTPReplyD0Ev
FNDA:30,_ZN16MensajeHTTPReplyD2Ev
FNDA:10,_GLOBAL__sub_I__ZN16MensajeHTTPReplyC2Ev
FNDA:10,_Z41__static_initialization_and_destruction_0ii
FNF:9
FNH:7
DA:3,0
DA:5,0
DA:7,30
DA:8,30
DA:9,30
DA:10,30
DA:13,10
DA:14,10
DA:17,10
DA:18,10
DA:21,0
DA:22,0
DA:39,60
DA:42,90
LF:14
LH:10
end_of_record
SF:/usr/include/c++/4.8/bits/basic_string.h
FN:272,_ZNSs12_Alloc_hiderC2ERKS_
FN:272,_ZNSs12_Alloc_hiderD2Ev
FN:2442,_ZStplIcSt11char_traitsIcESaIcEESbIT_T0_T1_EOS6_S7_
FN:2454,_ZStplIcSt11char_traitsIcESaIcEESbIT_T0_T1_EPKS3_OS6_
FN:2466,_ZStplIcSt11char_traitsIcESaIcEESbIT_T0_T1_EOS6_PKS3_
FNDA:0,_ZNSs12_Alloc_hiderC2ERKS_
FNDA:0,_ZNSs12_Alloc_hiderD2Ev
FNDA:0,_ZStplIcSt11char_traitsIcESaIcEESbIT_T0_T1_EOS6_S7_
FNDA:180,_ZStplIcSt11char_traitsIcESaIcEESbIT_T0_T1_EPKS3_OS6_
FNDA:0,_ZStplIcSt11char_traitsIcESaIcEESbIT_T0_T1_EOS6_PKS3_
FNF:5
FNH:1
DA:272,0
DA:2442,0
DA:2445,0
DA:2446,0
DA:2447,0
DA:2448,0
DA:2449,0
DA:2454,180
DA:2456,180
DA:2466,0
DA:2468,0
LF:11
LH:2
end_of_record
SF:/usr/include/c++/4.8/bits/char_traits.h
FN:258,_ZNSt11char_traitsIcE6lengthEPKc
FNDA:0,_ZNSt11char_traitsIcE6lengthEPKc
FNF:1
FNH:0
DA:258,0
DA:259,0
LF:2
LH:0
end_of_record
SF:/usr/include/c++/4.8/bits/move.h
FN:101,_ZSt4moveIRSsEONSt16remove_referenceIT_E4typeEOS2_
FNDA:0,_ZSt4moveIRSsEONSt16remove_referenceIT_E4typeEOS2_
FNF:1
FNH:0
DA:101,0
DA:102,0
LF:2
LH:0
end_of_record
SF:/usr/include/c++/4.8/ext/atomicity.h
FN:48,_ZN9__gnu_cxxL18__exchange_and_addEPVii
FN:65,_ZN9__gnu_cxxL25__exchange_and_add_singleEPii
FN:78,_ZN9__gnu_cxxL27__exchange_and_add_dispatchEPii
FNDA:0,_ZN9__gnu_cxxL18__exchange_and_addEPVii
FNDA:0,_ZN9__gnu_cxxL25__exchange_and_add_singleEPii
FNDA:0,_ZN9__gnu_cxxL27__exchange_and_add_dispatchEPii
FNF:3
FNH:0
DA:48,0
DA:49,0
DA:65,0
DA:67,0
DA:68,0
DA:69,0
DA:78,0
DA:81,0
DA:82,0
DA:84,0
LF:10
LH:0
end_of_record
SF:/usr/include/c++/4.8/ext/new_allocator.h
FN:79,_ZN9__gnu_cxx13new_allocatorIcEC2Ev
FN:81,_ZN9__gnu_cxx13new_allocatorIcEC2ERKS1_
FN:86,_ZN9__gnu_cxx13new_allocatorIcED2Ev
FNDA:0,_ZN9__gnu_cxx13new_allocatorIcEC2Ev
FNDA:0,_ZN9__gnu_cxx13new_allocatorIcEC2ERKS1_
FNDA:0,_ZN9__gnu_cxx13new_allocatorIcED2Ev
FNF:3
FNH:0
DA:79,0
DA:81,0
DA:86,0
LF:3
LH:0
end_of_record
SF:/usr/include/c++/4.8/iostream
DA:74,10
LF:1
LH:1
end_of_record
SF:/usr/include/x86_64-linux-gnu/c++/4.8/bits/gthr-default.h
FN:247,_ZL18__gthread_active_pv
FNDA:0,_ZL18__gthread_active_pv
FNF:1
FNH:0
DA:247,0
DA:251,0
LF:2
LH:0
end_of_record
TN:
SF:/home/diego/Desktop/taller2-appserver/Appserver/src/servicios/Conversaciones.cpp
FN:5,_ZN14ConversacionesC2ESs
FN:9,_ZN14ConversacionesD0Ev
FN:9,_ZN14ConversacionesD2Ev
FN:14,_ZN14Conversaciones28obtenerTodosLosMensajesEntreESsSs
FN:20,_ZN14Conversaciones33obtenerCantidadMensajesDesdeEntreEiiSsSs
FN:43,_ZN14Conversaciones26armarClaveDeLaConversacionERSsS0_S0_
FN:52,_ZN14Conversaciones19guardarConversacionERSsS0_R8Mensajes
FN:59,_ZN14Conversaciones20agregarMensajeDeParaERSsS0_S0_
FN:68,_Z41__static_initialization_and_destruction_0ii
FN:68,_GLOBAL__sub_I__ZN14ConversacionesC2ESs
FNDA:60,_ZN14ConversacionesC2ESs
FNDA:60,_ZN14ConversacionesD0Ev
FNDA:60,_ZN14ConversacionesD2Ev
FNDA:250,_ZN14Conversaciones28obtenerTodosLosMensajesEntreESsSs
FNDA:70,_ZN14Conversaciones33obtenerCantidadMensajesDesdeEntreEiiSsSs
FNDA:430,_ZN14Conversaciones26armarClaveDeLaConversacionERSsS0_S0_
FNDA:180,_ZN14Conversaciones19guardarConversacionERSsS0_R8Mensajes
FNDA:180,_ZN14Conversaciones20agregarMensajeDeParaERSsS0_S0_
FNDA:10,_GLOBAL__sub_I__ZN14ConversacionesC2ESs
FNDA:10,_Z41__static_initialization_and_destruction_0ii
FNF:10
FNH:10
DA:5,60
DA:6,60
DA:7,60
DA:9,120
DA:10,60
DA:11,120
DA:14,250
DA:15,250
DA:16,250
DA:17,250
DA:20,70
DA:22,70
DA:23,70
DA:25,70
DA:27,70
DA:28,70
DA:29,30
DA:31,220
DA:33,150
DA:36,70
DA:43,430
DA:44,430
DA:45,230
DA:48,200
DA:50,430
DA:52,180
DA:53,180
DA:54,180
DA:55,180
DA:56,180
DA:59,180
DA:64,180
DA:65,180
DA:66,180
DA:68,210
LF:35
LH:35
end_of_record
SF:/usr/include/c++/4.8/bits/basic_string.h
FN:272,_ZNSs12_Alloc_hiderC2ERKS_
FN:272,_ZNSs12_Alloc_hiderD2Ev
FN:2402,_ZStplIcSt11char_traitsIcESaIcEESbIT_T0_T1_ERKS6_PKS3_
FN:2430,_ZStplIcSt11char_traitsIcESaIcEESbIT_T0_T1_EOS6_RKS6_
FN:2569,_ZStltIcSt11char_traitsIcESaIcEEbRKSbIT_T0_T1_ES8_
FNDA:0,_ZNSs12_Alloc_hiderC2ERKS_
FNDA:0,_ZNSs12_Alloc_hiderD2Ev
FNDA:1480,_ZStplIcSt11char_traitsIcESaIcEESbIT_T0_T1_ERKS6_PKS3_
FNDA:530,_ZStplIcSt11char_traitsIcESaIcEESbIT_T0_T1_EOS6_RKS6_
FNDA:1040,_ZStltIcSt11char_traitsIcESaIcEEbRKSbIT_T0_T1_ES8_
FNF:5
FNH:3
DA:272,0
DA:2402,1480
DA:2405,1480
DA:2406,1480
DA:2407,1480
DA:2430,530
DA:2432,530
DA:2569,1040
DA:2571,1040
LF:9
LH:8
end_of_record
SF:/usr/include/c++/4.8/bits/char_traits.h
FN:254,_ZNSt11char_traitsIcE7compareEPKcS2_m
FN:258,_ZNSt11char_traitsIcE6lengthEPKc
FNDA:0,_ZNSt11char_traitsIcE7compareEPKcS2_m
FNDA:0,_ZNSt11char_traitsIcE6lengthEPKc
FNF:2
FNH:0
DA:254,0
DA:255,0
DA:258,0
DA:259,0
LF:4
LH:0
end_of_record
SF:/usr/include/c++/4.8/bits/move.h
FN:101,_ZSt4moveIRSsEONSt16remove_referenceIT_E4typeEOS2_
FNDA:18040,_ZSt4moveIRSsEONSt16remove_referenceIT_E4typeEOS2_
FNF:1
FNH:1
DA:101,18040
DA:102,18040
LF:2
LH:2
end_of_record
SF:/usr/include/c++/4.8/bits/stl_algobase.h
FN:193,_ZSt3minImERKT_S2_S2_
FNDA:0,_ZSt3minImERKT_S2_S2_
FNF:1
FNH:0
DA:193,0
DA:198,0
DA:199,0
DA:200,0
LF:4
LH:0
end_of_record
SF:/usr/include/c++/4.8/ext/atomicity.h
FN:48,_ZN9__gnu_cxxL18__exchange_and_addEPVii
FN:65,_ZN9__gnu_cxxL25__exchange_and_add_singleEPii
FN:78,_ZN9__gnu_cxxL27__exchange_and_add_dispatchEPii
FNDA:0,_ZN9__gnu_cxxL18__exchange_and_addEPVii
FNDA:0,_ZN9__gnu_cxxL25__exchange_and_add_singleEPii
FNDA:0,_ZN9__gnu_cxxL27__exchange_and_add_dispatchEPii
FNF:3
FNH:0
DA:48,0
DA:49,0
DA:65,0
DA:67,0
DA:68,0
DA:69,0
DA:78,0
DA:81,0
DA:82,0
DA:84,0
LF:10
LH:0
end_of_record
SF:/usr/include/c++/4.8/ext/new_allocator.h
FN:79,_ZN9__gnu_cxx13new_allocatorIcEC2Ev
FN:81,_ZN9__gnu_cxx13new_allocatorIcEC2ERKS1_
FN:86,_ZN9__gnu_cxx13new_allocatorIcED2Ev
FNDA:0,_ZN9__gnu_cxx13new_allocatorIcEC2Ev
FNDA:0,_ZN9__gnu_cxx13new_allocatorIcEC2ERKS1_
FNDA:0,_ZN9__gnu_cxx13new_allocatorIcED2Ev
FNF:3
FNH:0
DA:79,0
DA:81,0
DA:86,0
LF:3
LH:0
end_of_record
SF:/usr/include/c++/4.8/iostream
DA:74,10
LF:1
LH:1
end_of_record
SF:/usr/include/x86_64-linux-gnu/c++/4.8/bits/gthr-default.h
FN:247,_ZL18__gthread_active_pv
FNDA:0,_ZL18__gthread_active_pv
FNF:1
FNH:0
DA:247,0
DA:251,0
LF:2
LH:0
end_of_record
TN:
SF:/home/diego/Desktop/taller2-appserver/Appserver/src/servicios/MensajeHTTP.h
FN:11,_ZN11MensajeHTTPaSERKS_
FNDA:0,_ZN11MensajeHTTPaSERKS_
FNF:1
FNH:0
DA:11,0
LF:1
LH:0
end_of_record
SF:/home/diego/Desktop/taller2-appserver/Appserver/src/servicios/MensajeHTTPRequest.h
FN:9,_ZN18MensajeHTTPRequestaSERKS_
FNDA:0,_ZN18MensajeHTTPRequestaSERKS_
FNF:1
FNH:0
DA:9,0
LF:1
LH:0
end_of_record
SF:/home/diego/Desktop/taller2-appserver/Appserver/src/servicios/servicioLogin.cpp
FN:3,_ZN13servicioLoginC2EP18SesionesDeUsuarios18MensajeHTTPRequestP22CredencialesDeUsuarios
FN:11,_ZN13servicioLogin12atenderLoginEv
FN:22,_ZN13servicioLogin19validarCredencialesEv
FN:33,_ZN13servicioLogin13realizarLoginEv
FN:41,_ZN13servicioLogin12generarTokenEv
FN:49,_ZN13servicioLogin12getRespuestaEv
FN:53,_ZN13servicioLoginD2Ev
FN:53,_ZN13servicioLoginD0Ev
FN:55,_GLOBAL__sub_I__ZN13servicioLoginC2EP18SesionesDeUsuarios18MensajeHTTPRequestP22CredencialesDeUsuarios
FN:55,_Z41__static_initialization_and_destruction_0ii
FNDA:0,_ZN13servicioLoginC2EP18SesionesDeUsuarios18MensajeHTTPRequestP22CredencialesDeUsuarios
FNDA:0,_ZN13servicioLogin12atenderLoginEv
FNDA:0,_ZN13servicioLogin19validarCredencialesEv
FNDA:0,_ZN13servicioLogin13realizarLoginEv
FNDA:0,_ZN13servicioLogin12generarTokenEv
FNDA:0,_ZN13servicioLogin12getRespuestaEv
FNDA:0,_ZN13servicioLoginD0Ev
FNDA:0,_ZN13servicioLoginD2Ev
FNDA:10,_GLOBAL__sub_I__ZN13servicioLoginC2EP18SesionesDeUsuarios18MensajeHTTPRequestP22CredencialesDeUsuarios
FNDA:10,_Z41__static_initialization_and_destruction_0ii
FNF:10
FNH:2
DA:3,0
DA:4,0
DA:5,0
DA:6,0
DA:7,0
DA:8,0
DA:11,0
DA:12,0
DA:13,0
DA:18,0
DA:20,0
DA:22,0
DA:26,0
DA:27,0
DA:28,0
DA:33,0
DA:34,0
DA:35,0
DA:36,0
DA:37,0
DA:38,0
DA:39,0
DA:41,0
DA:43,0
DA:49,0
DA:50,0
DA:53,0
DA:55,30
LF:28
LH:1
end_of_record
SF:/usr/include/c++/4.8/bits/alloc_traits.h
FN:253,_ZNSt16allocator_traitsISaISt13_Rb_tree_nodeISt4pairIKSsSsEEEE12_S_constructIS4_IRKS3_EEENSt9enable_ifIXsrNS6_18__construct_helperIT_IDpT0_EEE5valueEvE4typeERS5_PSC_DpOSD_
FN:391,_ZNSt16allocator_traitsISaISt13_Rb_tree_nodeISt4pairIKSsSsEEEE9constructIS4_IRKS3_EEEDTcl12_S_constructfp_fp0_spcl7forwardIT0_Efp1_EEERS5_PT_DpOSA_
FNDA:0,_ZNSt16allocator_traitsISaISt13_Rb_tree_nodeISt4pairIKSsSsEEEE12_S_constructIS4_IRKS3_EEENSt9enable_ifIXsrNS6_18__construct_helperIT_IDpT0_EEE5valueEvE4typeERS5_PSC_DpOSD_
FNDA:0,_ZNSt16allocator_traitsISaISt13_Rb_tree_nodeISt4pairIKSsSsEEEE9constructIS4_IRKS3_EEEDTcl12_S_constructfp_fp0_spcl7forwardIT0_Efp1_EEERS5_PT_DpOSA_
FNF:2
FNH:0
DA:253,0
DA:254,0
DA:391,0
DA:393,0
LF:4
LH:0
end_of_record
SF:/usr/include/c++/4.8/bits/basic_string.h
FN:272,_ZNSs12_Alloc_hiderD2Ev
FN:272,_ZNSs12_Alloc_hiderC2ERKS_
FN:2466,_ZStplIcSt11char_traitsIcESaIcEESbIT_T0_T1_EOS6_PKS3_
FNDA:0,_ZNSs12_Alloc_hiderC2ERKS_
FNDA:0,_ZNSs12_Alloc_hiderD2Ev
FNDA:5620,_ZStplIcSt11char_traitsIcESaIcEESbIT_T0_T1_EOS6_PKS3_
FNF:3
FNH:1
DA:272,0
DA:2466,5620
DA:2468,5620
LF:3
LH:2
end_of_record
SF:/usr/include/c++/4.8/bits/basic_string.tcc
FN:692,_ZStplIcSt11char_traitsIcESaIcEESbIT_T0_T1_EPKS3_RKS6_
FNDA:0,_ZStplIcSt11char_traitsIcESaIcEESbIT_T0_T1_EPKS3_RKS6_
FNF:1
FNH:0
DA:692,0
DA:698,0
DA:699,0
DA:700,0
DA:701,0
DA:702,0
DA:703,0
LF:7
LH:0
end_of_record
SF:/usr/include/c++/4.8/bits/char_traits.h
FN:258,_ZNSt11char_traitsIcE6lengthEPKc
FNDA:0,_ZNSt11char_traitsIcE6lengthEPKc
FNF:1
FNH:0
DA:258,0
DA:259,0
LF:2
LH:0
end_of_record
SF:/usr/include/c++/4.8/bits/move.h
FN:76,_ZSt7forwardIRKSt4pairIKSsSsEEOT_RNSt16remove_referenceIS5_E4typeE
FN:101,_ZSt4moveIRSsEONSt16remove_referenceIT_E4typeEOS2_
FNDA:0,_ZSt7forwardIRKSt4pairIKSsSsEEOT_RNSt16remove_referenceIS5_E4typeE
FNDA:0,_ZSt4moveIRSsEONSt16remove_referenceIT_E4typeEOS2_
FNF:2
FNH:0
DA:76,0
DA:77,0
DA:101,0
DA:102,0
LF:4
LH:0
end_of_record
SF:/usr/include/c++/4.8/bits/stl_map.h
FN:264,_ZNSt3mapISsSsSt4lessISsESaISt4pairIKSsSsEEEaSERKS6_
FNDA:0,_ZNSt3mapISsSsSt4lessISsESaISt4pairIKSsSsEEEaSERKS6_
FNF:1
FNH:0
DA:264,0
DA:266,0
DA:267,0
LF:3
LH:0
end_of_record
SF:/usr/include/c++/4.8/bits/stl_pair.h
FN:96,_ZNSt4pairIKSsSsED2Ev
FN:127,_ZNSt4pairIKSsSsEC2ERKS1_
FNDA:0,_ZNSt4pairIKSsSsED2Ev
FNDA:0,_ZNSt4pairIKSsSsEC2ERKS1_
FNF:2
FNH:0
DA:96,0
DA:127,0
LF:2
LH:0
end_of_record
SF:/usr/include/c++/4.8/bits/stl_tree.h
FN:102,_ZNSt18_Rb_tree_node_base10_S_minimumEPS_
FN:116,_ZNSt18_Rb_tree_node_base10_S_maximumEPS_
FN:131,_ZNSt13_Rb_tree_nodeISt4pairIKSsSsEED2Ev
FN:138,_ZNSt13_Rb_tree_nodeISt4pairIKSsSsEEC2IIRKS2_EEEDpOT_
FN:356,_ZNSt8_Rb_treeISsSt4pairIKSsSsESt10_Select1stIS2_ESt4lessISsESaIS2_EE21_M_get_Node_allocatorEv
FN:369,_ZNSt8_Rb_treeISsSt4pairIKSsSsESt10_Select1stIS2_ESt4lessISsESaIS2_EE11_M_get_nodeEv
FN:373,_ZNSt8_Rb_treeISsSt4pairIKSsSsESt10_Select1stIS2_ESt4lessISsESaIS2_EE11_M_put_nodeEPSt13_Rb_tree_nodeIS2_E
FN:401,_ZNSt8_Rb_treeISsSt4pairIKSsSsESt10_Select1stIS2_ESt4lessISsESaIS2_EE14_M_create_nodeIIRKS2_EEEPSt13_Rb_tree_nodeIS2_EDpOT_
FN:419,_ZNSt8_Rb_treeISsSt4pairIKSsSsESt10_Select1stIS2_ESt4lessISsESaIS2_EE15_M_destroy_nodeEPSt13_Rb_tree_nodeIS2_E
FN:427,_ZNSt8_Rb_treeISsSt4pairIKSsSsESt10_Select1stIS2_ESt4lessISsESaIS2_EE13_M_clone_nodeEPKSt13_Rb_tree_nodeIS2_E
FN:477,_ZNSt8_Rb_treeISsSt4pairIKSsSsESt10_Select1stIS2_ESt4lessISsESaIS2_EE7_M_rootEv
FN:481,_ZNKSt8_Rb_treeISsSt4pairIKSsSsESt10_Select1stIS2_ESt4lessISsESaIS2_EE7_M_rootEv
FN:485,_ZNSt8_Rb_treeISsSt4pairIKSsSsESt10_Select1stIS2_ESt4lessISsESaIS2_EE11_M_leftmostEv
FN:493,_ZNSt8_Rb_treeISsSt4pairIKSsSsESt10_Select1stIS2_ESt4lessISsESaIS2_EE12_M_rightmostEv
FN:501,_ZNSt8_Rb_treeISsSt4pairIKSsSsESt10_Select1stIS2_ESt4lessISsESaIS2_EE8_M_beginEv
FN:505,_ZNKSt8_Rb_treeISsSt4pairIKSsSsESt10_Select1stIS2_ESt4lessISsESaIS2_EE8_M_beginEv
FN:512,_ZNSt8_Rb_treeISsSt4pairIKSsSsESt10_Select1stIS2_ESt4lessISsESaIS2_EE6_M_endEv
FN:528,_ZNSt8_Rb_treeISsSt4pairIKSsSsESt10_Select1stIS2_ESt4lessISsESaIS2_EE7_S_leftEPSt18_Rb_tree_node_base
FN:532,_ZNSt8_Rb_treeISsSt4pairIKSsSsESt10_Select1stIS2_ESt4lessISsESaIS2_EE7_S_leftEPKSt18_Rb_tree_node_base
FN:536,_ZNSt8_Rb_treeISsSt4pairIKSsSsESt10_Select1stIS2_ESt4lessISsESaIS2_EE8_S_rightEPSt18_Rb_tree_node_base
FN:540,_ZNSt8_Rb_treeISsSt4pairIKSsSsESt10_Select1stIS2_ESt4lessISsESaIS2_EE8_S_rightEPKSt18_Rb_tree_node_base
FN:552,_ZNSt8_Rb_treeISsSt4pairIKSsSsESt10_Select1stIS2_ESt4lessISsESaIS2_EE10_S_minimumEPSt18_Rb_tree_node_base
FN:560,_ZNSt8_Rb_treeISsSt4pairIKSsSsESt10_Select1stIS2_ESt4lessISsESaIS2_EE10_S_maximumEPSt18_Rb_tree_node_base
FN:858,_ZNSt8_Rb_treeISsSt4pairIKSsSsESt10_Select1stIS2_ESt4lessISsESaIS2_EE5clearEv
FN:987,_ZNSt8_Rb_treeISsSt4pairIKSsSsESt10_Select1stIS2_ESt4lessISsESaIS2_EEaSERKS8_
FN:1083,_ZNSt8_Rb_treeISsSt4pairIKSsSsESt10_Select1stIS2_ESt4lessISsESaIS2_EE7_M_copyEPKSt13_Rb_tree_nodeIS2_EPSA_
FN:1119,_ZNSt8_Rb_treeISsSt4pairIKSsSsESt10_Select1stIS2_ESt4lessISsESaIS2_EE8_M_eraseEPSt13_Rb_tree_nodeIS2_E
FNDA:0,_ZNSt18_Rb_tree_node_base10_S_minimumEPS_
FNDA:0,_ZNSt18_Rb_tree_node_base10_S_maximumEPS_
FNDA:0,_ZNSt13_Rb_tree_nodeISt4pairIKSsSsEED2Ev
FNDA:0,_ZNSt13_Rb_tree_nodeISt4pairIKSsSsEEC2IIRKS2_EEEDpOT_
FNDA:0,_ZNSt8_Rb_treeISsSt4pairIKSsSsESt10_Select1stIS2_ESt4lessISsESaIS2_EE21_M_get_Node_allocatorEv
FNDA:0,_ZNSt8_Rb_treeISsSt4pairIKSsSsESt10_Select1stIS2_ESt4lessISsESaIS2_EE11_M_get_nodeEv
FNDA:0,_ZNSt8_Rb_treeISsSt4pairIKSsSsESt10_Select1stIS2_ESt4lessISsESaIS2_EE11_M_put_nodeEPSt13_Rb_tree_nodeIS2_E
FNDA:0,_ZNSt8_Rb_treeISsSt4pairIKSsSsESt10_Select1stIS2_ESt4lessISsESaIS2_EE14_M_create_nodeIIRKS2_EEEPSt13_Rb_tree_nodeIS2_EDpOT_
FNDA:0,_ZNSt8_Rb_treeISsSt4pairIKSsSsESt10_Select1stIS2_ESt4lessISsESaIS2_EE15_M_destroy_nodeEPSt13_Rb_tree_nodeIS2_E
FNDA:0,_ZNSt8_Rb_treeISsSt4pairIKSsSsESt10_Select1stIS2_ESt4lessISsESaIS2_EE13_M_clone_nodeEPKSt13_Rb_tree_nodeIS2_E
FNDA:0,_ZNSt8_Rb_treeISsSt4pairIKSsSsESt10_Select1stIS2_ESt4lessISsESaIS2_EE7_M_rootEv
FNDA:0,_ZNKSt8_Rb_treeISsSt4pairIKSsSsESt10_Select1stIS2_ESt4lessISsESaIS2_EE7_M_rootEv
FNDA:0,_ZNSt8_Rb_treeISsSt4pairIKSsSsESt10_Select1stIS2_ESt4lessISsESaIS2_EE11_M_leftmostEv
FNDA:0,_ZNSt8_Rb_treeISsSt4pairIKSsSsESt10_Select1stIS2_ESt4lessISsESaIS2_EE12_M_rightmostEv
FNDA:0,_ZNSt8_Rb_treeISsSt4pairIKSsSsESt10_Select1stIS2_ESt4lessISsESaIS2_EE8_M_beginEv
FNDA:0,_ZNKSt8_Rb_treeISsSt4pairIKSsSsESt10_Select1stIS2_ESt4lessISsESaIS2_EE8_M_beginEv
FNDA:0,_ZNSt8_Rb_treeISsSt4pairIKSsSsESt10_Select1stIS2_ESt4lessISsESaIS2_EE6_M_endEv
FNDA:0,_ZNSt8_Rb_treeISsSt4pairIKSsSsESt10_Select1stIS2_ESt4lessISsESaIS2_EE7_S_leftEPSt18_Rb_tree_node_base
FNDA:0,_ZNSt8_Rb_treeISsSt4pairIKSsSsESt10_Select1stIS2_ESt4lessISsESaIS2_EE7_S_leftEPKSt18_Rb_tree_node_base
FNDA:0,_ZNSt8_Rb_treeISsSt4pairIKSsSsESt10_Select1stIS2_ESt4lessISsESaIS2_EE8_S_rightEPSt18_Rb_tree_node_base
FNDA:0,_ZNSt8_Rb_treeISsSt4pairIKSsSsESt10_Select1stIS2_ESt4lessISsESaIS2_EE8_S_rightEPKSt18_Rb_tree_node_base
FNDA:0,_ZNSt8_Rb_treeISsSt4pairIKSsSsESt10_Select1stIS2_ESt4lessISsESaIS2_EE10_S_minimumEPSt18_Rb_tree_node_base
FNDA:0,_ZNSt8_Rb_treeISsSt4pairIKSsSsESt10_Select1stIS2_ESt4lessISsESaIS2_EE10_S_maximumEPSt18_Rb_tree_node_base
FNDA:0,_ZNSt8_Rb_treeISsSt4pairIKSsSsESt10_Select1stIS2_ESt4lessISsESaIS2_EE5clearEv
FNDA:0,_ZNSt8_Rb_treeISsSt4pairIKSsSsESt10_Select1stIS2_ESt4lessISsESaIS2_EEaSERKS8_
FNDA:0,_ZNSt8_Rb_treeISsSt4pairIKSsSsESt10_Select1stIS2_ESt4lessISsESaIS2_EE7_M_copyEPKSt13_Rb_tree_nodeIS2_EPSA_
FNDA:0,_ZNSt8_Rb_treeISsSt4pairIKSsSsESt10_Select1stIS2_ESt4lessISsESaIS2_EE8_M_eraseEPSt13_Rb_tree_nodeIS2_E
FNF:27
FNH:0
DA:102,0
DA:104,0
DA:105,0
DA:116,0
DA:118,0
DA:119,0
DA:131,0
DA:138,0
DA:140,0
DA:356,0
DA:357,0
DA:369,0
DA:370,0
DA:373,0
DA:374,0
DA:401,0
DA:403,0
DA:406,0
DA:407,0
DA:408,0
DA:410,=====
DA:412,=====
DA:413,=====
DA:415,0
DA:419,0
DA:421,0
DA:422,0
DA:423,0
DA:427,0
DA:429,0
DA:430,0
DA:431,0
DA:432,0
DA:433,0
DA:477,0
DA:478,0
DA:481,0
DA:482,0
DA:485,0
DA:486,0
DA:493,0
DA:494,0
DA:501,0
DA:502,0
DA:505,0
DA:508,0
DA:512,0
DA:513,0
DA:528,0
DA:529,0
DA:532,0
DA:533,0
DA:536,0
DA:537,0
DA:540,0
DA:541,0
DA:552,0
DA:553,0
DA:560,0
DA:561,0
DA:858,0
DA:860,0
DA:861,0
DA:862,0
DA:863,0
DA:864,0
DA:865,0
DA:987,0
DA:990,0
DA:993,0
DA:995,0
DA:997,0
DA:998,0
DA:999,0
DA:1000,0
DA:1003,0
DA:1083,0
DA:1087,0
DA:1088,0
DA:1092,0
DA:1093,0
DA:1094,0
DA:1095,0
DA:1097,0
DA:1099,0
DA:1100,0
DA:1101,0
DA:1102,0
DA:1103,0
DA:1104,0
DA:1105,0
DA:1108,=====
DA:1110,=====
DA:1111,=====
DA:1113,0
DA:1119,0
DA:1123,0
DA:1125,0
DA:1126,0
DA:1127,0
DA:1128,0
DA:1130,0
LF:102
LH:0
end_of_record
SF:/usr/include/c++/4.8/ext/atomicity.h
FN:48,_ZN9__gnu_cxxL18__exchange_and_addEPVii
FN:65,_ZN9__gnu_cxxL25__exchange_and_add_singleEPii
FN:78,_ZN9__gnu_cxxL27__exchange_and_add_dispatchEPii
FNDA:0,_ZN9__gnu_cxxL18__exchange_and_addEPVii
FNDA:0,_ZN9__gnu_cxxL25__exchange_and_add_singleEPii
FNDA:0,_ZN9__gnu_cxxL27__exchange_and_add_dispatchEPii
FNF:3
FNH:0
DA:48,0
DA:49,0
DA:65,0
DA:67,0
DA:68,0
DA:69,0
DA:78,0
DA:81,0
DA:82,0
DA:84,0
LF:10
LH:0
end_of_record
SF:/usr/include/c++/4.8/ext/new_allocator.h
