TN:
SF:/home/taller2-appserver/Appserver/src/main.cpp
FN:9,main
FN:16,_Z41__static_initialization_and_destruction_0ii
FN:16,_GLOBAL__sub_I_main
FNDA:4,main
FNDA:4,_GLOBAL__sub_I_main
FNDA:4,_Z41__static_initialization_and_destruction_0ii
FNF:3
FNH:3
DA:9,4
DA:11,4
DA:12,4
DA:14,4
DA:16,12
LF:5
LH:5
end_of_record
SF:/usr/include/c++/4.8/iostream
DA:74,4
LF:1
LH:1
end_of_record
TN:
SF:/home/taller2-appserver/Appserver/src/external/json/json.h
FN:603,_ZN4Json12RuntimeErrorD0Ev
FN:603,_ZN4Json12RuntimeErrorD2Ev
FN:614,_ZN4Json10LogicErrorD2Ev
FN:614,_ZN4Json10LogicErrorD0Ev
FN:666,_ZN4Json12StaticStringC2EPKc
FN:670,_ZNK4Json12StaticString5c_strEv
FN:1159,_ZN4Json12PathArgumentD2Ev
FN:1159,_ZN4Json12PathArgumentC2EOS0_
FN:1159,_ZN4Json12PathArgumentC2ERKS0_
FN:1458,_ZN4Json6Reader15StructuredErrorC2EOS1_
FN:1458,_ZN4Json6Reader15StructuredErrorC2Ev
FN:1458,_ZN4Json6Reader15StructuredErrorC2ERKS1_
FN:1458,_ZN4Json6Reader15StructuredErrorD2Ev
FN:1597,_ZN4Json6Reader9ErrorInfoC2Ev
FN:1597,_ZN4Json6Reader9ErrorInfoC2ERKS1_
FN:1597,_ZN4Json6Reader9ErrorInfoD2Ev
FN:1661,_ZN4Json10CharReaderC2Ev
FN:1663,_ZN4Json10CharReaderD2Ev
FN:1663,_ZN4Json10CharReaderD0Ev
FN:1685,_ZN4Json10CharReader7FactoryC2Ev
FN:1687,_ZN4Json10CharReader7FactoryD0Ev
FN:1687,_ZN4Json10CharReader7FactoryD2Ev
FN:1888,_ZN4Json12StreamWriter7FactoryC2Ev
FN:1973,_ZN4Json6WriterC2Ev
FN:1993,_ZN4Json10FastWriterD0Ev
FN:1993,_ZN4Json10FastWriterD2Ev
FN:2045,_ZN4Json12StyledWriterD0Ev
FN:2045,_ZN4Json12StyledWriterD2Ev
FNDA:0,_ZN4Json12RuntimeErrorD0Ev
FNDA:0,_ZN4Json12RuntimeErrorD2Ev
FNDA:0,_ZN4Json10LogicErrorD0Ev
FNDA:0,_ZN4Json10LogicErrorD2Ev
FNDA:0,_ZN4Json12StaticStringC2EPKc
FNDA:0,_ZNK4Json12StaticString5c_strEv
FNDA:0,_ZN4Json12PathArgumentC2EOS0_
FNDA:0,_ZN4Json12PathArgumentC2ERKS0_
FNDA:0,_ZN4Json12PathArgumentD2Ev
FNDA:0,_ZN4Json6Reader15StructuredErrorC2EOS1_
FNDA:0,_ZN4Json6Reader15StructuredErrorC2ERKS1_
FNDA:0,_ZN4Json6Reader15StructuredErrorD2Ev
FNDA:0,_ZN4Json6Reader15StructuredErrorC2Ev
FNDA:31,_ZN4Json6Reader9ErrorInfoC2ERKS1_
FNDA:62,_ZN4Json6Reader9ErrorInfoD2Ev
FNDA:31,_ZN4Json6Reader9ErrorInfoC2Ev
FNDA:0,_ZN4Json10CharReaderC2Ev
FNDA:0,_ZN4Json10CharReaderD0Ev
FNDA:0,_ZN4Json10CharReaderD2Ev
FNDA:0,_ZN4Json10CharReader7FactoryC2Ev
FNDA:0,_ZN4Json10CharReader7FactoryD0Ev
FNDA:0,_ZN4Json10CharReader7FactoryD2Ev
FNDA:0,_ZN4Json12StreamWriter7FactoryC2Ev
FNDA:1589,_ZN4Json6WriterC2Ev
FNDA:0,_ZN4Json10FastWriterD0Ev
FNDA:1589,_ZN4Json10FastWriterD2Ev
FNDA:0,_ZN4Json12StyledWriterD0Ev
FNDA:0,_ZN4Json12StyledWriterD2Ev
FNF:28
FNH:5
DA:603,0
DA:614,0
DA:666,0
DA:670,0
DA:1159,0
DA:1458,0
DA:1597,124
DA:1661,0
DA:1663,0
DA:1685,0
DA:1687,0
DA:1888,0
DA:1973,1589
DA:1993,1589
DA:2045,0
LF:15
LH:3
end_of_record
SF:/home/taller2-appserver/Appserver/src/external/json/jsoncpp.cpp
FN:104,_ZN4JsonL15codePointToUTF8Ej
FN:133,_ZN4JsonL18isControlCharacterEc
FN:149,_ZN4JsonL12uintToStringEyRPc
FN:162,_ZN4JsonL16fixNumericLocaleEPcS0_
FN:248,_ZN4Json8FeaturesC2Ev
FN:252,_ZN4Json8Features3allEv
FN:254,_ZN4Json8Features10strictModeEv
FN:266,_ZN4JsonL15containsNewLineEPKcS1_
FN:276,_ZN4Json6ReaderC2Ev
FN:281,_ZN4Json6ReaderC2ERKNS_8FeaturesE
FN:287,_ZN4Json6Reader5parseERKSsRNS_5ValueEb
FN:295,_ZN4Json6Reader5parseERSiRNS_5ValueEb
FN:308,_ZN4Json6Reader5parseEPKcS2_RNS_5ValueEb
FN:350,_ZN4Json6Reader9readValueEv
FN:434,_ZN4Json6Reader17skipCommentTokensERNS0_5TokenE
FN:444,_ZN4Json6Reader9readTokenERNS0_5TokenE
FN:515,_ZN4Json6Reader10skipSpacesEv
FN:525,_ZN4Json6Reader5matchEPKci
FN:536,_ZN4Json6Reader11readCommentEv
FN:559,_ZN4JsonL12normalizeEOLEPKcS1_
FN:579,_ZN4Json6Reader10addCommentEPKcS2_NS_16CommentPlacementE
FN:590,_ZN4Json6Reader17readCStyleCommentEv
FN:599,_ZN4Json6Reader19readCppStyleCommentEv
FN:615,_ZN4Json6Reader10readNumberEv
FN:637,_ZN4Json6Reader10readStringEv
FN:649,_ZN4Json6Reader10readObjectERNS0_5TokenE
FN:705,_ZN4Json6Reader9readArrayERNS0_5TokenE
FN:743,_ZN4Json6Reader12decodeNumberERNS0_5TokenE
FN:753,_ZN4Json6Reader12decodeNumberERNS0_5TokenERNS_5ValueE
FN:795,_ZN4Json6Reader12decodeDoubleERNS0_5TokenE
FN:805,_ZN4Json6Reader12decodeDoubleERNS0_5TokenERNS_5ValueE
FN:817,_ZN4Json6Reader12decodeStringERNS0_5TokenE
FN:828,_ZN4Json6Reader12decodeStringERNS0_5TokenERSs
FN:881,_ZN4Json6Reader22decodeUnicodeCodePointERNS0_5TokenERPKcS4_Rj
FN:910,_ZN4Json6Reader27decodeUnicodeEscapeSequenceERNS0_5TokenERPKcS4_Rj
FN:940,_ZN4Json6Reader8addErrorERKSsRNS0_5TokenEPKc
FN:949,_ZN4Json6Reader16recoverFromErrorENS0_9TokenTypeE
FN:962,_ZN4Json6Reader18addErrorAndRecoverERKSsRNS0_5TokenENS0_9TokenTypeE
FN:969,_ZN4Json6Reader12currentValueEv
FN:971,_ZN4Json6Reader11getNextCharEv
FN:977,_ZNK4Json6Reader24getLocationLineAndColumnEPKcRiS3_
FN:1000,_ZNK4Json6Reader24getLocationLineAndColumnEPKc
FN:1009,_ZNK4Json6Reader24getFormatedErrorMessagesEv
FN:1013,_ZNK4Json6Reader25getFormattedErrorMessagesEv
FN:1029,_ZNK4Json6Reader19getStructuredErrorsEv
FN:1044,_ZN4Json6Reader9pushErrorERKNS_5ValueERKSs
FN:1061,_ZN4Json6Reader9pushErrorERKNS_5ValueERKSsS3_
FN:1079,_ZNK4Json6Reader4goodEv
FN:1101,_ZN4Json11OurFeatures3allEv
FN:1107,_ZN4Json9OurReaderD2Ev
FN:1111,_ZN4Json9OurReader15StructuredErrorD2Ev
FN:1111,_ZN4Json9OurReader15StructuredErrorC2ERKS1_
FN:1111,_ZN4Json9OurReader15StructuredErrorC2Ev
FN:1111,_ZN4Json9OurReader15StructuredErrorC2EOS1_
FN:1159,_ZN4Json9OurReader9ErrorInfoC2Ev
FN:1159,_ZN4Json9OurReader9ErrorInfoD2Ev
FN:1159,_ZN4Json9OurReader9ErrorInfoC2ERKS1_
FN:1226,_ZN4Json9OurReaderC2ERKNS_11OurFeaturesE
FN:1233,_ZN4Json9OurReader5parseEPKcS2_RNS_5ValueEb
FN:1281,_ZN4Json9OurReader9readValueEv
FN:1384,_ZN4Json9OurReader17skipCommentTokensERNS0_5TokenE
FN:1394,_ZN4Json9OurReader9readTokenERNS0_5TokenE
FN:1494,_ZN4Json9OurReader10skipSpacesEv
FN:1504,_ZN4Json9OurReader5matchEPKci
FN:1515,_ZN4Json9OurReader11readCommentEv
FN:1539,_ZN4Json9OurReader10addCommentEPKcS2_NS_16CommentPlacementE
FN:1550,_ZN4Json9OurReader17readCStyleCommentEv
FN:1559,_ZN4Json9OurReader19readCppStyleCommentEv
FN:1575,_ZN4Json9OurReader10readNumberEb
FN:1601,_ZN4Json9OurReader10readStringEv
FN:1614,_ZN4Json9OurReader21readStringSingleQuoteEv
FN:1626,_ZN4Json9OurReader10readObjectERNS0_5TokenE
FN:1688,_ZN4Json9OurReader9readArrayERNS0_5TokenE
FN:1726,_ZN4Json9OurReader12decodeNumberERNS0_5TokenE
FN:1736,_ZN4Json9OurReader12decodeNumberERNS0_5TokenERNS_5ValueE
FN:1776,_ZN4Json9OurReader12decodeDoubleERNS0_5TokenE
FN:1786,_ZN4Json9OurReader12decodeDoubleERNS0_5TokenERNS_5ValueE
FN:1823,_ZN4Json9OurReader12decodeStringERNS0_5TokenE
FN:1834,_ZN4Json9OurReader12decodeStringERNS0_5TokenERSs
FN:1887,_ZN4Json9OurReader22decodeUnicodeCodePointERNS0_5TokenERPKcS4_Rj
FN:1916,_ZN4Json9OurReader27decodeUnicodeEscapeSequenceERNS0_5TokenERPKcS4_Rj
FN:1946,_ZN4Json9OurReader8addErrorERKSsRNS0_5TokenEPKc
FN:1955,_ZN4Json9OurReader16recoverFromErrorENS0_9TokenTypeE
FN:1968,_ZN4Json9OurReader18addErrorAndRecoverERKSsRNS0_5TokenENS0_9TokenTypeE
FN:1975,_ZN4Json9OurReader12currentValueEv
FN:1977,_ZN4Json9OurReader11getNextCharEv
FN:1983,_ZNK4Json9OurReader24getLocationLineAndColumnEPKcRiS3_
FN:2006,_ZNK4Json9OurReader24getLocationLineAndColumnEPKc
FN:2014,_ZNK4Json9OurReader25getFormattedErrorMessagesEv
FN:2030,_ZNK4Json9OurReader19getStructuredErrorsEv
FN:2045,_ZN4Json9OurReader9pushErrorERKNS_5ValueERKSs
FN:2062,_ZN4Json9OurReader9pushErrorERKNS_5ValueERKSsS3_
FN:2080,_ZNK4Json9OurReader4goodEv
FN:2085,_ZN4Json13OurCharReaderD2Ev
FN:2085,_ZN4Json13OurCharReaderD0Ev
FN:2089,_ZN4Json13OurCharReaderC2EbRKNS_11OurFeaturesE
FN:2095,_ZN4Json13OurCharReader5parseEPKcS2_PNS_5ValueEPSs
FN:2106,_ZN4Json17CharReaderBuilderC2Ev
FN:2110,_ZN4Json17CharReaderBuilderD0Ev
FN:2110,_ZN4Json17CharReaderBuilderD2Ev
FN:2112,_ZNK4Json17CharReaderBuilder13newCharReaderEv
FN:2127,_ZN4JsonL18getValidReaderKeysEPSt3setISsSt4lessISsESaISsEE
FN:2141,_ZNK4Json17CharReaderBuilder8validateEPNS_5ValueE
FN:2158,_ZN4Json17CharReaderBuilderixESs
FN:2163,_ZN4Json17CharReaderBuilder10strictModeEPNS_5ValueE
FN:2178,_ZN4Json17CharReaderBuilder11setDefaultsEPNS_5ValueE
FN:2197,_ZN4Json15parseFromStreamERKNS_10CharReader7FactoryERSiPNS_5ValueEPSs
FN:2211,_ZN4JsonrsERSiRNS_5ValueE
FN:2257,_ZN4Json17ValueIteratorBaseC2Ev
FN:2261,_ZN4Json17ValueIteratorBaseC2ERKSt17_Rb_tree_iteratorISt4pairIKNS_5Value8CZStringES3_EE
FN:2265,_ZNK4Json17ValueIteratorBase5derefEv
FN:2269,_ZN4Json17ValueIteratorBase9incrementEv
FN:2273,_ZN4Json17ValueIteratorBase9decrementEv
FN:2278,_ZNK4Json17ValueIteratorBase15computeDistanceERKS0_
FN:2305,_ZNK4Json17ValueIteratorBase7isEqualERKS0_
FN:2312,_ZN4Json17ValueIteratorBase4copyERKS0_
FN:2317,_ZNK4Json17ValueIteratorBase3keyEv
FN:2327,_ZNK4Json17ValueIteratorBase5indexEv
FN:2334,_ZNK4Json17ValueIteratorBase4nameEv
FN:2342,_ZNK4Json17ValueIteratorBase10memberNameEv
FN:2347,_ZNK4Json17ValueIteratorBase10memberNameEPPKc
FN:2365,_ZN4Json18ValueConstIteratorC2Ev
FN:2367,_ZN4Json18ValueConstIteratorC2ERKSt17_Rb_tree_iteratorISt4pairIKNS_5Value8CZStringES3_EE
FN:2371,_ZN4Json18ValueConstIteratorC2ERKNS_13ValueIteratorE
FN:2374,_ZN4Json18ValueConstIteratoraSERKNS_17ValueIteratorBaseE
FN:2388,_ZN4Json13ValueIteratorC2Ev
FN:2390,_ZN4Json13ValueIteratorC2ERKSt17_Rb_tree_iteratorISt4pairIKNS_5Value8CZStringES3_EE
FN:2393,_ZN4Json13ValueIteratorC2ERKNS_18ValueConstIteratorE
FN:2398,_ZN4Json13ValueIteratorC2ERKS0_
FN:2401,_ZN4Json13ValueIteratoraSERKS0_
FN:2456,_Z41__static_initialization_and_destruction_0ii
FN:2477,_ZN4JsonL7InRangeIiyEEbdT_T0_
FN:2477,_ZN4JsonL7InRangeIxxEEbdT_T0_
FN:2477,_ZN4JsonL7InRangeIijEEbdT_T0_
FN:2477,_ZN4JsonL7InRangeIiiEEbdT_T0_
FN:2505,_ZN4JsonL20duplicateStringValueEPKcm
FN:2526,_ZN4JsonL29duplicateAndPrefixStringValueEPKcj
FN:2547,_ZN4JsonL20decodePrefixedStringEbPKcPjPS1_
FN:2577,_ZN4JsonL26releasePrefixedStringValueEPc
FN:2580,_ZN4JsonL18releaseStringValueEPcj
FN:2601,_ZN4Json9ExceptionC2ERKSs
FN:2604,_ZN4Json9ExceptionD0Ev
FN:2604,_ZN4Json9ExceptionD2Ev
FN:2606,_ZNK4Json9Exception4whatEv
FN:2610,_ZN4Json12RuntimeErrorC2ERKSs
FN:2613,_ZN4Json10LogicErrorC2ERKSs
FN:2616,_ZN4Json17throwRuntimeErrorERKSs
FN:2620,_ZN4Json15throwLogicErrorERKSs
FN:2633,_ZN4Json5Value11CommentInfoC2Ev
FN:2636,_ZN4Json5Value11CommentInfoD2Ev
FN:2641,_ZN4Json5Value11CommentInfo10setCommentEPKcm
FN:2665,_ZN4Json5Value8CZStringC2Ej
FN:2667,_ZN4Json5Value8CZStringC2EPKcjNS1_17DuplicationPolicyE
FN:2674,_ZN4Json5Value8CZStringC2ERKS1_
FN:2686,_ZN4Json5Value8CZStringC2EOS1_
FN:2692,_ZN4Json5Value8CZStringD2Ev
FN:2698,_ZN4Json5Value8CZString4swapERS1_
FN:2703,_ZN4Json5Value8CZStringaSES1_
FN:2708,_ZNK4Json5Value8CZStringltERKS1_
FN:2722,_ZNK4Json5Value8CZStringeqERKS1_
FN:2734,_ZNK4Json5Value8CZString5indexEv
FN:2737,_ZNK4Json5Value8CZString4dataEv
FN:2738,_ZNK4Json5Value8CZString6lengthEv
FN:2739,_ZNK4Json5Value8CZString14isStaticStringEv
FN:2753,_ZN4Json5ValueC2ENS_9ValueTypeE
FN:2780,_ZN4Json5ValueC2Ei
FN:2785,_ZN4Json5ValueC2Ej
FN:2790,_ZN4Json5ValueC2Ex
FN:2794,_ZN4Json5ValueC2Ey
FN:2800,_ZN4Json5ValueC2Ed
FN:2805,_ZN4Json5ValueC2EPKc
FN:2810,_ZN4Json5ValueC2EPKcS2_
FN:2816,_ZN4Json5ValueC2ERKSs
FN:2822,_ZN4Json5ValueC2ERKNS_12StaticStringE
FN:2834,_ZN4Json5ValueC2Eb
FN:2839,_ZN4Json5ValueC2ERKS0_
FN:2885,_ZN4Json5ValueC2EOS0_
FN:2891,_ZN4Json5ValueD2Ev
FN:2917,_ZN4Json5ValueaSES0_
FN:2922,_ZN4Json5Value11swapPayloadERS0_
FN:2932,_ZN4Json5Value4swapERS0_
FN:2939,_ZNK4Json5Value4typeEv
FN:2941,_ZNK4Json5Value7compareERKS0_
FN:2949,_ZNK4Json5ValueltERKS0_
FN:2996,_ZNK4Json5ValueleERKS0_
FN:2998,_ZNK4Json5ValuegeERKS0_
FN:3000,_ZNK4Json5ValuegtERKS0_
FN:3002,_ZNK4Json5ValueeqERKS0_
FN:3047,_ZNK4Json5ValueneERKS0_
FN:3049,_ZNK4Json5Value9asCStringEv
FN:3071,_ZNK4Json5Value9getStringEPPKcS3_
FN:3080,_ZNK4Json5Value8asStringEv
FN:3115,_ZNK4Json5Value5asIntEv
FN:3137,_ZNK4Json5Value6asUIntEv
FN:3161,_ZNK4Json5Value7asInt64Ev
FN:3182,_ZNK4Json5Value8asUInt64Ev
FN:3204,_ZNK4Json5Value12asLargestIntEv
FN:3212,_ZNK4Json5Value13asLargestUIntEv
FN:3220,_ZNK4Json5Value8asDoubleEv
FN:3242,_ZNK4Json5Value7asFloatEv
FN:3265,_ZNK4Json5Value6asBoolEv
FN:3284,_ZNK4Json5Value15isConvertibleToENS_9ValueTypeE
FN:3318,_ZNK4Json5Value4sizeEv
FN:3341,_ZNK4Json5Value5emptyEv
FN:3348,_ZNK4Json5ValuentEv
FN:3350,_ZN4Json5Value5clearEv
FN:3366,_ZN4Json5Value6resizeEj
FN:3384,_ZN4Json5ValueixEj
FN:3400,_ZN4Json5ValueixEi
FN:3407,_ZNK4Json5ValueixEj
FN:3420,_ZNK4Json5ValueixEi
FN:3427,_ZN4Json5Value9initBasicENS_9ValueTypeEb
FN:3438,_ZN4Json5Value16resolveReferenceEPKc
FN:3457,_ZN4Json5Value16resolveReferenceEPKcS2_
FN:3476,_ZNK4Json5Value3getEjRKS0_
FN:3481,_ZNK4Json5Value12isValidIndexEj
FN:3483,_ZNK4Json5Value4findEPKcS2_
FN:3494,_ZNK4Json5ValueixEPKc
FN:3500,_ZNK4Json5ValueixERKSs
FN:3507,_ZN4Json5ValueixEPKc
FN:3511,_ZN4Json5ValueixERKSs
FN:3515,_ZN4Json5ValueixERKNS_12StaticStringE
FN:3531,_ZN4Json5Value6appendERKS0_
FN:3533,_ZNK4Json5Value3getEPKcS2_RKS0_
FN:3538,_ZNK4Json5Value3getEPKcRKS0_
FN:3542,_ZNK4Json5Value3getERKSsRKS0_
FN:3548,_ZN4Json5Value12removeMemberEPKcS2_PS0_
FN:3561,_ZN4Json5Value12removeMemberEPKcPS0_
FN:3565,_ZN4Json5Value12removeMemberERKSsPS0_
FN:3569,_ZN4Json5Value12removeMemberEPKc
FN:3580,_ZN4Json5Value12removeMemberERKSs
FN:3585,_ZN4Json5Value11removeIndexEjPS0_
FN:3615,_ZNK4Json5Value8isMemberEPKcS2_
FN:3620,_ZNK4Json5Value8isMemberEPKc
FN:3624,_ZNK4Json5Value8isMemberERKSs
FN:3635,_ZNK4Json5Value14getMemberNamesEv
FN:3677,_ZN4JsonL10IsIntegralEd
FN:3682,_ZNK4Json5Value6isNullEv
FN:3684,_ZNK4Json5Value6isBoolEv
FN:3686,_ZNK4Json5Value5isIntEv
FN:3701,_ZNK4Json5Value6isUIntEv
FN:3716,_ZNK4Json5Value7isInt64Ev
FN:3736,_ZNK4Json5Value8isUInt64Ev
FN:3756,_ZNK4Json5Value10isIntegralEv
FN:3764,_ZNK4Json5Value8isDoubleEv
FN:3766,_ZNK4Json5Value9isNumericEv
FN:3768,_ZNK4Json5Value8isStringEv
FN:3770,_ZNK4Json5Value7isArrayEv
FN:3772,_ZNK4Json5Value8isObjectEv
FN:3774,_ZN4Json5Value10setCommentEPKcmNS_16CommentPlacementE
FN:3784,_ZN4Json5Value10setCommentEPKcNS_16CommentPlacementE
FN:3788,_ZN4Json5Value10setCommentERKSsNS_16CommentPlacementE
FN:3792,_ZNK4Json5Value10hasCommentENS_16CommentPlacementE
FN:3796,_ZNK4Json5Value10getCommentENS_16CommentPlacementE
FN:3802,_ZN4Json5Value14setOffsetStartEl
FN:3804,_ZN4Json5Value14setOffsetLimitEl
FN:3806,_ZNK4Json5Value14getOffsetStartEv
FN:3808,_ZNK4Json5Value14getOffsetLimitEv
FN:3810,_ZNK4Json5Value14toStyledStringEv
FN:3815,_ZNK4Json5Value5beginEv
FN:3828,_ZNK4Json5Value3endEv
FN:3841,_ZN4Json5Value5beginEv
FN:3854,_ZN4Json5Value3endEv
FN:3870,_ZN4Json12PathArgumentC2Ev
FN:3872,_ZN4Json12PathArgumentC2Ej
FN:3875,_ZN4Json12PathArgumentC2EPKc
FN:3878,_ZN4Json12PathArgumentC2ERKSs
FN:3884,_ZN4Json4PathC2ERKSsRKNS_12PathArgumentES5_S5_S5_S5_
FN:3899,_ZN4Json4Path8makePathERKSsRKSt6vectorIPKNS_12PathArgumentESaIS6_EE
FN:3930,_ZN4Json4Path12addPathInArgERKSsRKSt6vectorIPKNS_12PathArgumentESaIS6_EERN9__gnu_cxx17__normal_iteratorIPKS6_S8_EENS4_4KindE
FN:3943,_ZN4Json4Path11invalidPathERKSsi
FN:3947,_ZNK4Json4Path7resolveERKNS_5ValueE
FN:3970,_ZNK4Json4Path7resolveERKNS_5ValueES3_
FN:3989,_ZNK4Json4Path4makeERNS_5ValueE
FN:4106,_ZN4JsonL24containsControlCharacterEPKc
FN:4114,_ZN4JsonL25containsControlCharacter0EPKcj
FN:4124,_ZN4Json13valueToStringEx
FN:4140,_ZN4Json13valueToStringEy
FN:4150,_ZN4Json13valueToStringEi
FN:4154,_ZN4Json13valueToStringEj
FN:4160,_ZN4Json13valueToStringEdbj
FN:4190,_ZN4Json13valueToStringEd
FN:4192,_ZN4Json13valueToStringEb
FN:4194,_ZN4Json19valueToQuotedStringEPKc
FN:4257,_ZN4JsonL8strnpbrkEPKcS1_m
FN:4271,_ZN4JsonL20valueToQuotedStringNEPKcj
FN:4336,_ZN4Json6WriterD0Ev
FN:4336,_ZN4Json6WriterD2Ev
FN:4341,_ZN4Json10FastWriterC2Ev
FN:4345,_ZN4Json10FastWriter23enableYAMLCompatibilityEv
FN:4347,_ZN4Json10FastWriter20dropNullPlaceholdersEv
FN:4349,_ZN4Json10FastWriter18omitEndingLineFeedEv
FN:4351,_ZN4Json10FastWriter5writeERKNS_5ValueE
FN:4359,_ZN4Json10FastWriter10writeValueERKNS_5ValueE
FN:4416,_ZN4Json12StyledWriterC2Ev
FN:4419,_ZN4Json12StyledWriter5writeERKNS_5ValueE
FN:4430,_ZN4Json12StyledWriter10writeValueERKNS_5ValueE
FN:4489,_ZN4Json12StyledWriter15writeArrayValueERKNS_5ValueE
FN:4532,_ZN4Json12StyledWriter14isMultineArrayERKNS_5ValueE
FN:4559,_ZN4Json12StyledWriter9pushValueERKSs
FN:4566,_ZN4Json12StyledWriter11writeIndentEv
FN:4577,_ZN4Json12StyledWriter15writeWithIndentERKSs
FN:4582,_ZN4Json12StyledWriter6indentEv
FN:4584,_ZN4Json12StyledWriter8unindentEv
FN:4589,_ZN4Json12StyledWriter23writeCommentBeforeValueERKNS_5ValueE
FN:4609,_ZN4Json12StyledWriter32writeCommentAfterValueOnSameLineERKNS_5ValueE
FN:4620,_ZN4Json12StyledWriter18hasCommentForValueERKNS_5ValueE
FN:4629,_ZN4Json18StyledStreamWriterC2ESs
FN:4633,_ZN4Json18StyledStreamWriter5writeERSoRKNS_5ValueE
FN:4647,_ZN4Json18StyledStreamWriter10writeValueERKNS_5ValueE
FN:4706,_ZN4Json18StyledStreamWriter15writeArrayValueERKNS_5ValueE
FN:4751,_ZN4Json18StyledStreamWriter14isMultineArrayERKNS_5ValueE
FN:4778,_ZN4Json18StyledStreamWriter9pushValueERKSs
FN:4785,_ZN4Json18StyledStreamWriter11writeIndentEv
FN:4793,_ZN4Json18StyledStreamWriter15writeWithIndentERKSs
FN:4799,_ZN4Json18StyledStreamWriter6indentEv
FN:4801,_ZN4Json18StyledStreamWriter8unindentEv
FN:4806,_ZN4Json18StyledStreamWriter23writeCommentBeforeValueERKNS_5ValueE
FN:4824,_ZN4Json18StyledStreamWriter32writeCommentAfterValueOnSameLineERKNS_5ValueE
FN:4835,_ZN4Json18StyledStreamWriter18hasCommentForValueERKNS_5ValueE
FN:4854,_ZN4Json23BuiltStyledStreamWriterD2Ev
FN:4854,_ZN4Json23BuiltStyledStreamWriterD0Ev
FN:4893,_ZN4Json23BuiltStyledStreamWriterC2ERKSsNS_12CommentStyle4EnumES2_S2_S2_bj
FN:4913,_ZN4Json23BuiltStyledStreamWriter5writeERKNS_5ValueEPSo
FN:4928,_ZN4Json23BuiltStyledStreamWriter10writeValueERKNS_5ValueE
FN:4987,_ZN4Json23BuiltStyledStreamWriter15writeArrayValueERKNS_5ValueE
FN:5034,_ZN4Json23BuiltStyledStreamWriter14isMultineArrayERKNS_5ValueE
FN:5061,_ZN4Json23BuiltStyledStreamWriter9pushValueERKSs
FN:5068,_ZN4Json23BuiltStyledStreamWriter11writeIndentEv
FN:5080,_ZN4Json23BuiltStyledStreamWriter15writeWithIndentERKSs
FN:5086,_ZN4Json23BuiltStyledStreamWriter6indentEv
FN:5088,_ZN4Json23BuiltStyledStreamWriter8unindentEv
FN:5093,_ZN4Json23BuiltStyledStreamWriter23writeCommentBeforeValueERKNS_5ValueE
FN:5112,_ZN4Json23BuiltStyledStreamWriter32writeCommentAfterValueOnSameLineERKNS_5ValueE
FN:5124,_ZN4Json23BuiltStyledStreamWriter18hasCommentForValueERKNS_5ValueE
FN:5133,_ZN4Json12StreamWriterC2Ev
FN:5137,_ZN4Json12StreamWriterD2Ev
FN:5137,_ZN4Json12StreamWriterD0Ev
FN:5140,_ZN4Json12StreamWriter7FactoryD0Ev
FN:5140,_ZN4Json12StreamWriter7FactoryD2Ev
FN:5142,_ZN4Json19StreamWriterBuilderC2Ev
FN:5146,_ZN4Json19StreamWriterBuilderD0Ev
FN:5146,_ZN4Json19StreamWriterBuilderD2Ev
FN:5148,_ZNK4Json19StreamWriterBuilder15newStreamWriterEv
FN:5180,_ZN4JsonL18getValidWriterKeysEPSt3setISsSt4lessISsESaISsEE
FN:5190,_ZNK4Json19StreamWriterBuilder8validateEPNS_5ValueE
FN:5207,_ZN4Json19StreamWriterBuilderixESs
FN:5212,_ZN4Json19StreamWriterBuilder11setDefaultsEPNS_5ValueE
FN:5224,_ZN4Json11writeStringERKNS_12StreamWriter7FactoryERKNS_5ValueE
FN:5231,_ZN4JsonlsERSoRKNS_5ValueE
FN:5238,_GLOBAL__sub_I__ZN4Json8FeaturesC2Ev
FNDA:0,_ZN4JsonL15codePointToUTF8Ej
FNDA:1230721,_ZN4JsonL18isControlCharacterEc
FNDA:176,_ZN4JsonL12uintToStringEyRPc
FNDA:0,_ZN4JsonL16fixNumericLocaleEPcS0_
FNDA:403,_ZN4Json8FeaturesC2Ev
FNDA:403,_ZN4Json8Features3allEv
FNDA:0,_ZN4Json8Features10strictModeEv
FNDA:0,_ZN4JsonL15containsNewLineEPKcS1_
FNDA:403,_ZN4Json6ReaderC2Ev
FNDA:0,_ZN4Json6ReaderC2ERKNS_8FeaturesE
FNDA:403,_ZN4Json6Reader5parseERKSsRNS_5ValueEb
FNDA:0,_ZN4Json6Reader5parseERSiRNS_5ValueEb
FNDA:403,_ZN4Json6Reader5parseEPKcS2_RNS_5ValueEb
FNDA:35299,_ZN4Json6Reader9readValueEv
FNDA:35702,_ZN4Json6Reader17skipCommentTokensERNS0_5TokenE
FNDA:117126,_ZN4Json6Reader9readTokenERNS0_5TokenE
FNDA:117498,_ZN4Json6Reader10skipSpacesEv
FNDA:0,_ZN4Json6Reader5matchEPKci
FNDA:0,_ZN4Json6Reader11readCommentEv
FNDA:0,_ZN4JsonL12normalizeEOLEPKcS1_
FNDA:0,_ZN4Json6Reader10addCommentEPKcS2_NS_16CommentPlacementE
FNDA:0,_ZN4Json6Reader17readCStyleCommentEv
FNDA:0,_ZN4Json6Reader19readCppStyleCommentEv
FNDA:0,_ZN4Json6Reader10readNumberEv
FNDA:46528,_ZN4Json6Reader10readStringEv
FNDA:11632,_ZN4Json6Reader10readObjectERNS0_5TokenE
FNDA:372,_ZN4Json6Reader9readArrayERNS0_5TokenE
FNDA:0,_ZN4Json6Reader12decodeNumberERNS0_5TokenE
FNDA:0,_ZN4Json6Reader12decodeNumberERNS0_5TokenERNS_5ValueE
FNDA:0,_ZN4Json6Reader12decodeDoubleERNS0_5TokenE
FNDA:0,_ZN4Json6Reader12decodeDoubleERNS0_5TokenERNS_5ValueE
FNDA:23264,_ZN4Json6Reader12decodeStringERNS0_5TokenE
FNDA:46528,_ZN4Json6Reader12decodeStringERNS0_5TokenERSs
FNDA:0,_ZN4Json6Reader22decodeUnicodeCodePointERNS0_5TokenERPKcS4_Rj
FNDA:0,_ZN4Json6Reader27decodeUnicodeEscapeSequenceERNS0_5TokenERPKcS4_Rj
FNDA:31,_ZN4Json6Reader8addErrorERKSsRNS0_5TokenEPKc
FNDA:0,_ZN4Json6Reader16recoverFromErrorENS0_9TokenTypeE
FNDA:0,_ZN4Json6Reader18addErrorAndRecoverERKSsRNS0_5TokenENS0_9TokenTypeE
FNDA:176030,_ZN4Json6Reader12currentValueEv
FNDA:1645686,_ZN4Json6Reader11getNextCharEv
FNDA:0,_ZNK4Json6Reader24getLocationLineAndColumnEPKcRiS3_
FNDA:0,_ZNK4Json6Reader24getLocationLineAndColumnEPKc
FNDA:0,_ZNK4Json6Reader24getFormatedErrorMessagesEv
FNDA:0,_ZNK4Json6Reader25getFormattedErrorMessagesEv
FNDA:0,_ZNK4Json6Reader19getStructuredErrorsEv
FNDA:0,_ZN4Json6Reader9pushErrorERKNS_5ValueERKSs
FNDA:0,_ZN4Json6Reader9pushErrorERKNS_5ValueERKSsS3_
FNDA:0,_ZNK4Json6Reader4goodEv
FNDA:0,_ZN4Json11OurFeatures3allEv
FNDA:0,_ZN4Json9OurReaderD2Ev
FNDA:0,_ZN4Json9OurReader15StructuredErrorC2EOS1_
FNDA:0,_ZN4Json9OurReader15StructuredErrorC2ERKS1_
FNDA:0,_ZN4Json9OurReader15StructuredErrorD2Ev
FNDA:0,_ZN4Json9OurReader15StructuredErrorC2Ev
FNDA:0,_ZN4Json9OurReader9ErrorInfoC2ERKS1_
FNDA:0,_ZN4Json9OurReader9ErrorInfoD2Ev
FNDA:0,_ZN4Json9OurReader9ErrorInfoC2Ev
FNDA:0,_ZN4Json9OurReaderC2ERKNS_11OurFeaturesE
FNDA:0,_ZN4Json9OurReader5parseEPKcS2_RNS_5ValueEb
FNDA:0,_ZN4Json9OurReader9readValueEv
FNDA:0,_ZN4Json9OurReader17skipCommentTokensERNS0_5TokenE
FNDA:0,_ZN4Json9OurReader9readTokenERNS0_5TokenE
FNDA:0,_ZN4Json9OurReader10skipSpacesEv
FNDA:0,_ZN4Json9OurReader5matchEPKci
FNDA:0,_ZN4Json9OurReader11readCommentEv
FNDA:0,_ZN4Json9OurReader10addCommentEPKcS2_NS_16CommentPlacementE
FNDA:0,_ZN4Json9OurReader17readCStyleCommentEv
FNDA:0,_ZN4Json9OurReader19readCppStyleCommentEv
FNDA:0,_ZN4Json9OurReader10readNumberEb
FNDA:0,_ZN4Json9OurReader10readStringEv
FNDA:0,_ZN4Json9OurReader21readStringSingleQuoteEv
FNDA:0,_ZN4Json9OurReader10readObjectERNS0_5TokenE
FNDA:0,_ZN4Json9OurReader9readArrayERNS0_5TokenE
FNDA:0,_ZN4Json9OurReader12decodeNumberERNS0_5TokenE
FNDA:0,_ZN4Json9OurReader12decodeNumberERNS0_5TokenERNS_5ValueE
FNDA:0,_ZN4Json9OurReader12decodeDoubleERNS0_5TokenE
FNDA:0,_ZN4Json9OurReader12decodeDoubleERNS0_5TokenERNS_5ValueE
FNDA:0,_ZN4Json9OurReader12decodeStringERNS0_5TokenE
FNDA:0,_ZN4Json9OurReader12decodeStringERNS0_5TokenERSs
FNDA:0,_ZN4Json9OurReader22decodeUnicodeCodePointERNS0_5TokenERPKcS4_Rj
FNDA:0,_ZN4Json9OurReader27decodeUnicodeEscapeSequenceERNS0_5TokenERPKcS4_Rj
FNDA:0,_ZN4Json9OurReader8addErrorERKSsRNS0_5TokenEPKc
FNDA:0,_ZN4Json9OurReader16recoverFromErrorENS0_9TokenTypeE
FNDA:0,_ZN4Json9OurReader18addErrorAndRecoverERKSsRNS0_5TokenENS0_9TokenTypeE
FNDA:0,_ZN4Json9OurReader12currentValueEv
FNDA:0,_ZN4Json9OurReader11getNextCharEv
FNDA:0,_ZNK4Json9OurReader24getLocationLineAndColumnEPKcRiS3_
FNDA:0,_ZNK4Json9OurReader24getLocationLineAndColumnEPKc
FNDA:0,_ZNK4Json9OurReader25getFormattedErrorMessagesEv
FNDA:0,_ZNK4Json9OurReader19getStructuredErrorsEv
FNDA:0,_ZN4Json9OurReader9pushErrorERKNS_5ValueERKSs
FNDA:0,_ZN4Json9OurReader9pushErrorERKNS_5ValueERKSsS3_
FNDA:0,_ZNK4Json9OurReader4goodEv
FNDA:0,_ZN4Json13OurCharReaderD0Ev
FNDA:0,_ZN4Json13OurCharReaderD2Ev
FNDA:0,_ZN4Json13OurCharReaderC2EbRKNS_11OurFeaturesE
FNDA:0,_ZN4Json13OurCharReader5parseEPKcS2_PNS_5ValueEPSs
FNDA:0,_ZN4Json17CharReaderBuilderC2Ev
FNDA:0,_ZN4Json17CharReaderBuilderD0Ev
FNDA:0,_ZN4Json17CharReaderBuilderD2Ev
FNDA:0,_ZNK4Json17CharReaderBuilder13newCharReaderEv
FNDA:0,_ZN4JsonL18getValidReaderKeysEPSt3setISsSt4lessISsESaISsEE
FNDA:0,_ZNK4Json17CharReaderBuilder8validateEPNS_5ValueE
FNDA:0,_ZN4Json17CharReaderBuilderixESs
FNDA:0,_ZN4Json17CharReaderBuilder10strictModeEPNS_5ValueE
FNDA:0,_ZN4Json17CharReaderBuilder11setDefaultsEPNS_5ValueE
FNDA:0,_ZN4Json15parseFromStreamERKNS_10CharReader7FactoryERSiPNS_5ValueEPSs
FNDA:0,_ZN4JsonrsERSiRNS_5ValueE
FNDA:0,_ZN4Json17ValueIteratorBaseC2Ev
FNDA:0,_ZN4Json17ValueIteratorBaseC2ERKSt17_Rb_tree_iteratorISt4pairIKNS_5Value8CZStringES3_EE
FNDA:0,_ZNK4Json17ValueIteratorBase5derefEv
FNDA:0,_ZN4Json17ValueIteratorBase9incrementEv
FNDA:0,_ZN4Json17ValueIteratorBase9decrementEv
FNDA:0,_ZNK4Json17ValueIteratorBase15computeDistanceERKS0_
FNDA:0,_ZNK4Json17ValueIteratorBase7isEqualERKS0_
FNDA:0,_ZN4Json17ValueIteratorBase4copyERKS0_
FNDA:0,_ZNK4Json17ValueIteratorBase3keyEv
FNDA:0,_ZNK4Json17ValueIteratorBase5indexEv
FNDA:0,_ZNK4Json17ValueIteratorBase4nameEv
FNDA:0,_ZNK4Json17ValueIteratorBase10memberNameEv
FNDA:0,_ZNK4Json17ValueIteratorBase10memberNameEPPKc
FNDA:0,_ZN4Json18ValueConstIteratorC2Ev
FNDA:0,_ZN4Json18ValueConstIteratorC2ERKSt17_Rb_tree_iteratorISt4pairIKNS_5Value8CZStringES3_EE
FNDA:0,_ZN4Json18ValueConstIteratorC2ERKNS_13ValueIteratorE
FNDA:0,_ZN4Json18ValueConstIteratoraSERKNS_17ValueIteratorBaseE
FNDA:0,_ZN4Json13ValueIteratorC2Ev
FNDA:0,_ZN4Json13ValueIteratorC2ERKSt17_Rb_tree_iteratorISt4pairIKNS_5Value8CZStringES3_EE
FNDA:0,_ZN4Json13ValueIteratorC2ERKNS_18ValueConstIteratorE
FNDA:0,_ZN4Json13ValueIteratorC2ERKS0_
FNDA:0,_ZN4Json13ValueIteratoraSERKS0_
FNDA:0,_ZN4JsonL7InRangeIiyEEbdT_T0_
FNDA:0,_ZN4JsonL7InRangeIxxEEbdT_T0_
FNDA:0,_ZN4JsonL7InRangeIijEEbdT_T0_
FNDA:0,_ZN4JsonL7InRangeIiiEEbdT_T0_
FNDA:75234,_ZN4JsonL20duplicateStringValueEPKcm
FNDA:52590,_ZN4JsonL29duplicateAndPrefixStringValueEPKcj
FNDA:47420,_ZN4JsonL20decodePrefixedStringEbPKcPjPS1_
FNDA:52590,_ZN4JsonL26releasePrefixedStringValueEPc
FNDA:75234,_ZN4JsonL18releaseStringValueEPcj
FNDA:0,_ZN4Json9ExceptionC2ERKSs
FNDA:0,_ZN4Json9ExceptionD0Ev
FNDA:0,_ZN4Json9ExceptionD2Ev
FNDA:0,_ZNK4Json9Exception4whatEv
FNDA:0,_ZN4Json12RuntimeErrorC2ERKSs
FNDA:0,_ZN4Json10LogicErrorC2ERKSs
FNDA:0,_ZN4Json17throwRuntimeErrorERKSs
FNDA:0,_ZN4Json15throwLogicErrorERKSs
FNDA:0,_ZN4Json5Value11CommentInfoC2Ev
FNDA:0,_ZN4Json5Value11CommentInfoD2Ev
FNDA:0,_ZN4Json5Value11CommentInfo10setCommentEPKcm
FNDA:23041,_ZN4Json5Value8CZStringC2Ej
FNDA:43522,_ZN4Json5Value8CZStringC2EPKcjNS1_17DuplicationPolicyE
FNDA:112204,_ZN4Json5Value8CZStringC2ERKS1_
FNDA:0,_ZN4Json5Value8CZStringC2EOS1_
FNDA:178767,_ZN4Json5Value8CZStringD2Ev
FNDA:0,_ZN4Json5Value8CZString4swapERS1_
FNDA:0,_ZN4Json5Value8CZStringaSES1_
FNDA:247155,_ZNK4Json5Value8CZStringltERKS1_
FNDA:2242,_ZNK4Json5Value8CZStringeqERKS1_
FNDA:2253,_ZNK4Json5Value8CZString5indexEv
FNDA:18096,_ZNK4Json5Value8CZString4dataEv
FNDA:18096,_ZNK4Json5Value8CZString6lengthEv
FNDA:0,_ZNK4Json5Value8CZString14isStaticStringEv
FNDA:17040,_ZN4Json5ValueC2ENS_9ValueTypeE
FNDA:96,_ZN4Json5ValueC2Ei
FNDA:0,_ZN4Json5ValueC2Ej
FNDA:0,_ZN4Json5ValueC2Ex
FNDA:0,_ZN4Json5ValueC2Ey
FNDA:0,_ZN4Json5ValueC2Ed
FNDA:0,_ZN4Json5ValueC2EPKc
FNDA:0,_ZN4Json5ValueC2EPKcS2_
FNDA:24576,_ZN4Json5ValueC2ERKSs
FNDA:0,_ZN4Json5ValueC2ERKNS_12StaticStringE
FNDA:0,_ZN4Json5ValueC2Eb
FNDA:115806,_ZN4Json5ValueC2ERKS0_
FNDA:0,_ZN4Json5ValueC2EOS0_
FNDA:157518,_ZN4Json5ValueD2Ev
FNDA:5830,_ZN4Json5ValueaSES0_
FNDA:41098,_ZN4Json5Value11swapPayloadERS0_
FNDA:5830,_ZN4Json5Value4swapERS0_
FNDA:29033,_ZNK4Json5Value4typeEv
FNDA:0,_ZNK4Json5Value7compareERKS0_
FNDA:0,_ZNK4Json5ValueltERKS0_
FNDA:0,_ZNK4Json5ValueleERKS0_
FNDA:0,_ZNK4Json5ValuegeERKS0_
FNDA:0,_ZNK4Json5ValuegtERKS0_
FNDA:0,_ZNK4Json5ValueeqERKS0_
FNDA:0,_ZNK4Json5ValueneERKS0_
FNDA:0,_ZNK4Json5Value9asCStringEv
FNDA:19406,_ZNK4Json5Value9getStringEPPKcS3_
FNDA:0,_ZNK4Json5Value8asStringEv
FNDA:0,_ZNK4Json5Value5asIntEv
FNDA:0,_ZNK4Json5Value6asUIntEv
FNDA:176,_ZNK4Json5Value7asInt64Ev
FNDA:0,_ZNK4Json5Value8asUInt64Ev
FNDA:176,_ZNK4Json5Value12asLargestIntEv
FNDA:0,_ZNK4Json5Value13asLargestUIntEv
FNDA:0,_ZNK4Json5Value8asDoubleEv
FNDA:0,_ZNK4Json5Value7asFloatEv
FNDA:0,_ZNK4Json5Value6asBoolEv
FNDA:0,_ZNK4Json5Value15isConvertibleToENS_9ValueTypeE
FNDA:2525,_ZNK4Json5Value4sizeEv
FNDA:0,_ZNK4Json5Value5emptyEv
FNDA:0,_ZNK4Json5ValuentEv
FNDA:0,_ZN4Json5Value5clearEv
FNDA:0,_ZN4Json5Value6resizeEj
FNDA:13693,_ZN4Json5ValueixEj
FNDA:12832,_ZN4Json5ValueixEi
FNDA:9348,_ZNK4Json5ValueixEj
FNDA:0,_ZNK4Json5ValueixEi
FNDA:41712,_ZN4Json5Value9initBasicENS_9ValueTypeEb
FNDA:0,_ZN4Json5Value16resolveReferenceEPKc
FNDA:25426,_ZN4Json5Value16resolveReferenceEPKcS2_
FNDA:0,_ZNK4Json5Value3getEjRKS0_
FNDA:0,_ZNK4Json5Value12isValidIndexEj
FNDA:18096,_ZNK4Json5Value4findEPKcS2_
FNDA:0,_ZNK4Json5ValueixEPKc
FNDA:18096,_ZNK4Json5ValueixERKSs
FNDA:0,_ZN4Json5ValueixEPKc
FNDA:25426,_ZN4Json5ValueixERKSs
FNDA:0,_ZN4Json5ValueixERKNS_12StaticStringE
FNDA:861,_ZN4Json5Value6appendERKS0_
FNDA:0,_ZNK4Json5Value3getEPKcS2_RKS0_
FNDA:0,_ZNK4Json5Value3getEPKcRKS0_
FNDA:0,_ZNK4Json5Value3getERKSsRKS0_
FNDA:0,_ZN4Json5Value12removeMemberEPKcS2_PS0_
FNDA:0,_ZN4Json5Value12removeMemberEPKcPS0_
FNDA:0,_ZN4Json5Value12removeMemberERKSsPS0_
FNDA:0,_ZN4Json5Value12removeMemberEPKc
FNDA:0,_ZN4Json5Value12removeMemberERKSs
FNDA:0,_ZN4Json5Value11removeIndexEjPS0_
FNDA:0,_ZNK4Json5Value8isMemberEPKcS2_
FNDA:0,_ZNK4Json5Value8isMemberEPKc
FNDA:0,_ZNK4Json5Value8isMemberERKSs
FNDA:9048,_ZNK4Json5Value14getMemberNamesEv
FNDA:0,_ZN4JsonL10IsIntegralEd
FNDA:0,_ZNK4Json5Value6isNullEv
FNDA:0,_ZNK4Json5Value6isBoolEv
FNDA:0,_ZNK4Json5Value5isIntEv
FNDA:0,_ZNK4Json5Value6isUIntEv
FNDA:0,_ZNK4Json5Value7isInt64Ev
FNDA:0,_ZNK4Json5Value8isUInt64Ev
FNDA:0,_ZNK4Json5Value10isIntegralEv
FNDA:0,_ZNK4Json5Value8isDoubleEv
FNDA:0,_ZNK4Json5Value9isNumericEv
FNDA:0,_ZNK4Json5Value8isStringEv
FNDA:0,_ZNK4Json5Value7isArrayEv
FNDA:0,_ZNK4Json5Value8isObjectEv
FNDA:0,_ZN4Json5Value10setCommentEPKcmNS_16CommentPlacementE
FNDA:0,_ZN4Json5Value10setCommentEPKcNS_16CommentPlacementE
FNDA:0,_ZN4Json5Value10setCommentERKSsNS_16CommentPlacementE
FNDA:0,_ZNK4Json5Value10hasCommentENS_16CommentPlacementE
FNDA:0,_ZNK4Json5Value10getCommentENS_16CommentPlacementE
FNDA:35299,_ZN4Json5Value14setOffsetStartEl
FNDA:35299,_ZN4Json5Value14setOffsetLimitEl
FNDA:0,_ZNK4Json5Value14getOffsetStartEv
FNDA:0,_ZNK4Json5Value14getOffsetLimitEv
FNDA:0,_ZNK4Json5Value14toStyledStringEv
FNDA:0,_ZNK4Json5Value5beginEv
FNDA:0,_ZNK4Json5Value3endEv
FNDA:0,_ZN4Json5Value5beginEv
FNDA:0,_ZN4Json5Value3endEv
FNDA:0,_ZN4Json12PathArgumentC2Ev
FNDA:0,_ZN4Json12PathArgumentC2Ej
FNDA:0,_ZN4Json12PathArgumentC2EPKc
FNDA:0,_ZN4Json12PathArgumentC2ERKSs
FNDA:0,_ZN4Json4PathC2ERKSsRKNS_12PathArgumentES5_S5_S5_S5_
FNDA:0,_ZN4Json4Path8makePathERKSsRKSt6vectorIPKNS_12PathArgumentESaIS6_EE
FNDA:0,_ZN4Json4Path12addPathInArgERKSsRKSt6vectorIPKNS_12PathArgumentESaIS6_EERN9__gnu_cxx17__normal_iteratorIPKS6_S8_EENS4_4KindE
FNDA:0,_ZN4Json4Path11invalidPathERKSsi
FNDA:0,_ZNK4Json4Path7resolveERKNS_5ValueE
FNDA:0,_ZNK4Json4Path7resolveERKNS_5ValueES3_
FNDA:0,_ZNK4Json4Path4makeERNS_5ValueE
FNDA:0,_ZN4JsonL24containsControlCharacterEPKc
FNDA:37497,_ZN4JsonL25containsControlCharacter0EPKcj
FNDA:176,_ZN4Json13valueToStringEx
FNDA:0,_ZN4Json13valueToStringEy
FNDA:0,_ZN4Json13valueToStringEi
FNDA:0,_ZN4Json13valueToStringEj
FNDA:0,_ZN4Json13valueToStringEdbj
FNDA:0,_ZN4Json13valueToStringEd
FNDA:0,_ZN4Json13valueToStringEb
FNDA:0,_ZN4Json19valueToQuotedStringEPKc
FNDA:37502,_ZN4JsonL8strnpbrkEPKcS1_m
FNDA:37502,_ZN4JsonL20valueToQuotedStringNEPKcj
FNDA:0,_ZN4Json6WriterD0Ev
FNDA:1589,_ZN4Json6WriterD2Ev
FNDA:1589,_ZN4Json10FastWriterC2Ev
FNDA:0,_ZN4Json10FastWriter23enableYAMLCompatibilityEv
FNDA:0,_ZN4Json10FastWriter20dropNullPlaceholdersEv
FNDA:0,_ZN4Json10FastWriter18omitEndingLineFeedEv
FNDA:1589,_ZN4Json10FastWriter5writeERKNS_5ValueE
FNDA:29033,_ZN4Json10FastWriter10writeValueERKNS_5ValueE
FNDA:0,_ZN4Json12StyledWriterC2Ev
FNDA:0,_ZN4Json12StyledWriter5writeERKNS_5ValueE
FNDA:0,_ZN4Json12StyledWriter10writeValueERKNS_5ValueE
FNDA:0,_ZN4Json12StyledWriter15writeArrayValueERKNS_5ValueE
FNDA:0,_ZN4Json12StyledWriter14isMultineArrayERKNS_5ValueE
FNDA:0,_ZN4Json12StyledWriter9pushValueERKSs
FNDA:0,_ZN4Json12StyledWriter11writeIndentEv
FNDA:0,_ZN4Json12StyledWriter15writeWithIndentERKSs
FNDA:0,_ZN4Json12StyledWriter6indentEv
FNDA:0,_ZN4Json12StyledWriter8unindentEv
FNDA:0,_ZN4Json12StyledWriter23writeCommentBeforeValueERKNS_5ValueE
FNDA:0,_ZN4Json12StyledWriter32writeCommentAfterValueOnSameLineERKNS_5ValueE
FNDA:0,_ZN4Json12StyledWriter18hasCommentForValueERKNS_5ValueE
FNDA:0,_ZN4Json18StyledStreamWriterC2ESs
FNDA:0,_ZN4Json18StyledStreamWriter5writeERSoRKNS_5ValueE
FNDA:0,_ZN4Json18StyledStreamWriter10writeValueERKNS_5ValueE
FNDA:0,_ZN4Json18StyledStreamWriter15writeArrayValueERKNS_5ValueE
FNDA:0,_ZN4Json18StyledStreamWriter14isMultineArrayERKNS_5ValueE
FNDA:0,_ZN4Json18StyledStreamWriter9pushValueERKSs
FNDA:0,_ZN4Json18StyledStreamWriter11writeIndentEv
FNDA:0,_ZN4Json18StyledStreamWriter15writeWithIndentERKSs
FNDA:0,_ZN4Json18StyledStreamWriter6indentEv
FNDA:0,_ZN4Json18StyledStreamWriter8unindentEv
FNDA:0,_ZN4Json18StyledStreamWriter23writeCommentBeforeValueERKNS_5ValueE
FNDA:0,_ZN4Json18StyledStreamWriter32writeCommentAfterValueOnSameLineERKNS_5ValueE
FNDA:0,_ZN4Json18StyledStreamWriter18hasCommentForValueERKNS_5ValueE
FNDA:0,_ZN4Json23BuiltStyledStreamWriterD0Ev
FNDA:0,_ZN4Json23BuiltStyledStreamWriterD2Ev
FNDA:0,_ZN4Json23BuiltStyledStreamWriterC2ERKSsNS_12CommentStyle4EnumES2_S2_S2_bj
FNDA:0,_ZN4Json23BuiltStyledStreamWriter5writeERKNS_5ValueEPSo
FNDA:0,_ZN4Json23BuiltStyledStreamWriter10writeValueERKNS_5ValueE
FNDA:0,_ZN4Json23BuiltStyledStreamWriter15writeArrayValueERKNS_5ValueE
FNDA:0,_ZN4Json23BuiltStyledStreamWriter14isMultineArrayERKNS_5ValueE
FNDA:0,_ZN4Json23BuiltStyledStreamWriter9pushValueERKSs
FNDA:0,_ZN4Json23BuiltStyledStreamWriter11writeIndentEv
FNDA:0,_ZN4Json23BuiltStyledStreamWriter15writeWithIndentERKSs
FNDA:0,_ZN4Json23BuiltStyledStreamWriter6indentEv
FNDA:0,_ZN4Json23BuiltStyledStreamWriter8unindentEv
FNDA:0,_ZN4Json23BuiltStyledStreamWriter23writeCommentBeforeValueERKNS_5ValueE
FNDA:0,_ZN4Json23BuiltStyledStreamWriter32writeCommentAfterValueOnSameLineERKNS_5ValueE
FNDA:0,_ZN4Json23BuiltStyledStreamWriter18hasCommentForValueERKNS_5ValueE
FNDA:0,_ZN4Json12StreamWriterC2Ev
FNDA:0,_ZN4Json12StreamWriterD0Ev
FNDA:0,_ZN4Json12StreamWriterD2Ev
FNDA:0,_ZN4Json12StreamWriter7FactoryD0Ev
FNDA:0,_ZN4Json12StreamWriter7FactoryD2Ev
FNDA:0,_ZN4Json19StreamWriterBuilderC2Ev
FNDA:0,_ZN4Json19StreamWriterBuilderD0Ev
FNDA:0,_ZN4Json19StreamWriterBuilderD2Ev
FNDA:0,_ZNK4Json19StreamWriterBuilder15newStreamWriterEv
FNDA:0,_ZN4JsonL18getValidWriterKeysEPSt3setISsSt4lessISsESaISsEE
FNDA:0,_ZNK4Json19StreamWriterBuilder8validateEPNS_5ValueE
FNDA:0,_ZN4Json19StreamWriterBuilderixESs
FNDA:0,_ZN4Json19StreamWriterBuilder11setDefaultsEPNS_5ValueE
FNDA:0,_ZN4Json11writeStringERKNS_12StreamWriter7FactoryERKNS_5ValueE
FNDA:0,_ZN4JsonlsERSoRKNS_5ValueE
FNDA:20,_GLOBAL__sub_I__ZN4Json8FeaturesC2Ev
FNDA:20,_Z41__static_initialization_and_destruction_0ii
FNF:351
FNH:68
DA:104,0
DA:105,0
DA:109,0
DA:110,0
DA:111,0
DA:112,0
DA:113,0
DA:114,0
DA:115,0
DA:116,0
DA:117,0
DA:118,0
DA:119,0
DA:120,0
DA:121,0
DA:122,0
DA:123,0
DA:124,0
DA:125,0
DA:126,0
DA:129,0
DA:133,1230721
DA:149,176
DA:150,176
DA:151,176
DA:152,176
DA:153,176
DA:155,176
DA:162,0
DA:163,0
DA:164,0
DA:165,0
DA:167,0
DA:169,0
DA:248,403
DA:250,403
DA:252,403
DA:254,0
DA:255,0
DA:256,0
DA:257,0
DA:258,0
DA:259,0
DA:260,0
DA:266,0
DA:267,0
DA:268,0
DA:269,0
DA:270,0
DA:276,403
DA:279,403
DA:281,0
DA:283,0
DA:284,0
DA:287,403
DA:288,403
DA:289,403
DA:290,403
DA:291,403
DA:292,403
DA:295,0
DA:303,0
DA:304,0
DA:305,0
DA:308,403
DA:312,403
DA:313,0
DA:316,403
DA:317,403
DA:318,403
DA:319,403
DA:320,403
DA:321,403
DA:322,403
DA:323,403
DA:324,806
DA:325,0
DA:326,403
DA:328,403
DA:329,403
DA:331,403
DA:332,403
DA:333,0
DA:334,403
DA:335,0
DA:338,0
DA:339,0
DA:340,0
DA:343,0
DA:344,0
DA:347,403
DA:350,35299
DA:355,35299
DA:356,35299
DA:359,35299
DA:360,35299
DA:362,35299
DA:363,0
DA:364,0
DA:367,35299
DA:369,11632
DA:370,11632
DA:371,11632
DA:373,372
DA:374,372
DA:375,372
DA:377,0
DA:378,0
DA:380,23264
DA:381,23264
DA:384,0
DA:385,0
DA:386,0
DA:387,0
DA:389,0
DA:392,0
DA:393,0
DA:394,0
DA:395,0
DA:397,0
DA:400,0
DA:401,0
DA:402,0
DA:403,0
DA:405,0
DA:409,0
DA:412,0
DA:413,0
DA:414,0
DA:415,0
DA:416,0
DA:417,0
DA:420,31
DA:421,31
DA:422,31
DA:425,35268
DA:426,35268
DA:427,35268
DA:430,35268
DA:431,35268
DA:434,35702
DA:435,35702
DA:436,35702
DA:437,35702
DA:438,35702
DA:440,0
DA:442,35702
DA:444,117126
DA:445,117126
DA:446,117126
DA:447,117126
DA:448,117126
DA:449,117126
DA:451,11632
DA:452,11632
DA:454,11632
DA:455,11632
DA:457,372
DA:458,372
DA:460,372
DA:461,372
DA:463,46528
DA:464,46528
DA:465,46528
DA:467,0
DA:468,0
DA:469,0
DA:481,0
DA:482,0
DA:483,0
DA:485,0
DA:486,0
DA:487,0
DA:489,0
DA:490,0
DA:491,0
DA:493,0
DA:494,0
DA:495,0
DA:497,22892
DA:498,22892
DA:500,23264
DA:501,23264
DA:503,434
DA:504,434
DA:506,0
DA:507,0
DA:509,117126
DA:510,0
DA:511,117126
DA:512,117126
DA:515,117498
DA:516,235368
DA:517,117592
DA:518,117592
DA:519,372
DA:523,117498
DA:525,0
DA:526,0
DA:527,0
DA:528,0
DA:529,0
DA:530,0
DA:531,0
DA:532,0
DA:533,0
DA:536,0
DA:537,0
DA:538,0
DA:539,0
DA:540,0
DA:541,0
DA:542,0
DA:543,0
DA:544,0
DA:545,0
DA:547,0
DA:548,0
DA:549,0
DA:550,0
DA:551,0
DA:554,0
DA:556,0
DA:559,0
DA:560,0
DA:561,0
DA:562,0
DA:563,0
DA:564,0
DA:565,0
DA:566,0
DA:568,0
DA:570,0
DA:572,0
DA:575,0
DA:579,0
DA:580,0
DA:581,0
DA:582,0
DA:583,0
DA:584,0
DA:586,0
DA:587,0
DA:588,0
DA:590,0
DA:591,0
DA:592,0
DA:593,0
DA:594,0
DA:596,0
DA:599,0
DA:600,0
DA:601,0
DA:602,0
DA:603,0
DA:604,0
DA:606,0
DA:607,0
DA:609,0
DA:612,0
DA:615,0
DA:616,0
DA:617,0
DA:619,0
DA:620,0
DA:622,0
DA:623,0
DA:624,0
DA:625,0
DA:628,0
DA:629,0
DA:630,0
DA:631,0
DA:632,0
DA:633,0
DA:635,0
DA:637,46528
DA:638,46528
DA:639,1575083
DA:640,1528555
DA:641,1528555
DA:642,5
DA:643,1528550
DA:644,46528
DA:646,46528
DA:649,11632
DA:651,11632
DA:652,23264
DA:653,11632
DA:654,11632
DA:655,11632
DA:656,23264
DA:657,46528
DA:658,0
DA:659,23264
DA:660,0
DA:661,23264
DA:662,11632
DA:663,23264
DA:664,23264
DA:665,23264
DA:666,0
DA:667,0
DA:668,0
DA:669,0
DA:670,0
DA:671,0
DA:677,23264
DA:679,0
DA:681,23264
DA:682,23264
DA:683,23264
DA:684,23264
DA:685,23264
DA:686,0
DA:689,46528
DA:690,34896
DA:691,0
DA:693,0
DA:695,23264
DA:696,46528
DA:697,0
DA:698,23264
DA:699,11632
DA:702,11632
DA:705,372
DA:706,372
DA:707,372
DA:708,372
DA:709,372
DA:710,372
DA:713,0
DA:714,0
DA:716,372
DA:718,11632
DA:719,11632
DA:720,11632
DA:721,11632
DA:722,11632
DA:723,0
DA:727,11632
DA:728,23264
DA:729,0
DA:732,11632
DA:733,11632
DA:735,0
DA:737,11632
DA:738,372
DA:739,11260
DA:740,744
DA:743,0
DA:744,0
DA:745,0
DA:746,0
DA:747,0
DA:748,0
DA:749,0
DA:750,0
DA:753,0
DA:757,0
DA:758,0
DA:759,0
DA:760,0
DA:763,0
DA:764,0
DA:765,0
DA:766,0
DA:767,0
DA:768,0
DA:769,0
DA:770,0
DA:771,0
DA:772,0
DA:777,0
DA:778,0
DA:779,0
DA:782,0
DA:784,0
DA:785,0
DA:786,0
DA:787,0
DA:788,0
DA:789,0
DA:791,0
DA:792,0
DA:795,0
DA:796,0
DA:797,0
DA:798,0
DA:799,0
DA:800,0
DA:801,0
DA:802,0
DA:805,0
DA:806,0
DA:807,0
DA:808,0
DA:809,0
DA:810,0
DA:812,0
DA:813,0
DA:814,0
DA:817,23264
DA:818,23264
DA:819,23264
DA:820,0
DA:821,46528
DA:822,23264
DA:823,23264
DA:824,23264
DA:825,46528
DA:828,46528
DA:829,46528
DA:830,46528
DA:831,46528
DA:832,1575083
DA:833,1482027
DA:834,1482027
DA:835,0
DA:836,1482027
DA:837,5
DA:838,0
DA:839,5
DA:840,5
DA:842,0
DA:843,0
DA:845,0
DA:846,0
DA:848,0
DA:849,0
DA:851,0
DA:852,0
DA:854,0
DA:855,0
DA:857,5
DA:858,5
DA:860,0
DA:861,0
DA:863,0
DA:864,0
DA:867,0
DA:868,0
DA:869,0
DA:870,0
DA:872,0
DA:875,1482022
DA:878,46528
DA:881,0
DA:886,0
DA:887,0
DA:888,0
DA:890,0
DA:894,0
DA:896,0
DA:897,0
DA:898,0
DA:900,0
DA:905,0
DA:907,0
DA:910,0
DA:914,0
DA:918,0
DA:919,0
DA:920,0
DA:921,0
DA:922,0
DA:923,0
DA:924,0
DA:925,0
DA:926,0
DA:927,0
DA:928,0
DA:933,0
DA:935,0
DA:936,0
DA:940,31
DA:941,31
DA:942,31
DA:943,31
DA:944,31
DA:945,31
DA:946,31
DA:949,0
DA:950,0
DA:953,0
DA:954,0
DA:955,0
DA:958,0
DA:959,0
DA:962,0
DA:965,0
DA:966,0
DA:969,176030
DA:971,1645686
DA:972,1645686
DA:973,278
DA:974,1645408
DA:977,0
DA:980,0
DA:981,0
DA:982,0
DA:983,0
DA:984,0
DA:985,0
DA:986,0
DA:987,0
DA:988,0
DA:989,0
DA:990,0
DA:991,0
DA:992,0
DA:996,0
DA:997,0
DA:998,0
DA:1000,0
DA:1002,0
DA:1004,0
DA:1005,0
DA:1009,0
DA:1010,0
DA:1013,0
DA:1014,0
DA:1015,0
DA:1016,0
DA:1018,0
DA:1020,0
DA:1021,0
DA:1022,0
DA:1024,0
DA:1026,0
DA:1029,0
DA:1030,0
DA:1031,0
DA:1032,0
DA:1034,0
DA:1035,0
DA:1036,0
DA:1037,0
DA:1038,0
DA:1039,0
DA:1040,0
DA:1041,0
DA:1044,0
DA:1045,0
DA:1046,0
DA:1047,0
DA:1048,0
DA:1050,0
DA:1051,0
DA:1052,0
DA:1053,0
DA:1054,0
DA:1055,0
DA:1056,0
DA:1057,0
DA:1058,0
DA:1061,0
DA:1062,0
DA:1063,0
DA:1064,0
DA:1065,0
DA:1066,0
DA:1068,0
DA:1069,0
DA:1070,0
DA:1071,0
DA:1072,0
DA:1073,0
DA:1074,0
DA:1075,0
DA:1076,0
DA:1079,0
DA:1080,0
DA:1101,0
DA:1107,0
DA:1111,0
DA:1159,0
DA:1226,0
DA:1230,0
DA:1231,0
DA:1233,0
DA:1237,0
DA:1238,0
DA:1241,0
DA:1242,0
DA:1243,0
DA:1244,0
DA:1245,0
DA:1246,0
DA:1247,0
DA:1248,0
DA:1249,0
DA:1250,0
DA:1251,0
DA:1253,0
DA:1254,0
DA:1256,0
DA:1257,0
DA:1258,0
DA:1259,0
DA:1260,0
DA:1263,0
DA:1264,0
DA:1265,0
DA:1266,0
DA:1269,0
DA:1270,0
DA:1271,0
DA:1274,0
DA:1275,0
DA:1278,0
DA:1281,0
DA:1282,0
DA:1283,0
DA:1285,0
DA:1286,0
DA:1288,0
DA:1289,0
DA:1290,0
DA:1293,0
DA:1295,0
DA:1296,0
DA:1297,0
DA:1299,0
DA:1300,0
DA:1301,0
DA:1303,0
DA:1304,0
DA:1306,0
DA:1307,0
DA:1310,0
DA:1311,0
DA:1312,0
DA:1313,0
DA:1315,0
DA:1318,0
DA:1319,0
DA:1320,0
DA:1321,0
DA:1323,0
DA:1326,0
DA:1327,0
DA:1328,0
DA:1329,0
DA:1331,0
DA:1334,0
DA:1335,0
DA:1336,0
DA:1337,0
DA:1339,0
DA:1342,0
DA:1343,0
DA:1344,0
DA:1345,0
DA:1347,0
DA:1350,0
DA:1351,0
DA:1352,0
DA:1353,0
DA:1355,0
DA:1359,0
DA:1362,0
DA:1363,0
DA:1364,0
DA:1365,0
DA:1366,0
DA:1367,0
DA:1370,0
DA:1371,0
DA:1372,0
DA:1375,0
DA:1376,0
DA:1377,0
DA:1380,0
DA:1381,0
DA:1384,0
DA:1385,0
DA:1386,0
DA:1387,0
DA:1388,0
DA:1390,0
DA:1392,0
DA:1394,0
DA:1395,0
DA:1396,0
DA:1397,0
DA:1398,0
DA:1399,0
DA:1401,0
DA:1402,0
DA:1404,0
DA:1405,0
DA:1407,0
DA:1408,0
DA:1410,0
DA:1411,0
DA:1413,0
DA:1414,0
DA:1415,0
DA:1417,0
DA:1418,0
DA:1419,0
DA:1420,0
DA:1423,0
DA:1424,0
DA:1425,0
DA:1436,0
DA:1437,0
DA:1438,0
DA:1440,0
DA:1441,0
DA:1443,0
DA:1444,0
DA:1446,0
DA:1448,0
DA:1449,0
DA:1450,0
DA:1452,0
DA:1453,0
DA:1454,0
DA:1456,0
DA:1457,0
DA:1458,0
DA:1460,0
DA:1461,0
DA:1462,0
DA:1464,0
DA:1466,0
DA:1468,0
DA:1469,0
DA:1470,0
DA:1472,0
DA:1474,0
DA:1476,0
DA:1477,0
DA:1479,0
DA:1480,0
DA:1482,0
DA:1483,0
DA:1485,0
DA:1486,0
DA:1488,0
DA:1489,0
DA:1490,0
DA:1491,0
DA:1494,0
DA:1495,0
DA:1496,0
DA:1497,0
DA:1498,0
DA:1502,0
DA:1504,0
DA:1505,0
DA:1506,0
DA:1507,0
DA:1508,0
DA:1509,0
DA:1510,0
DA:1511,0
DA:1512,0
DA:1515,0
DA:1516,0
DA:1517,0
DA:1518,0
DA:1519,0
DA:1520,0
DA:1521,0
DA:1522,0
DA:1523,0
DA:1524,0
DA:1526,0
DA:1527,0
DA:1528,0
DA:1529,0
DA:1530,0
DA:1533,0
DA:1535,0
DA:1539,0
DA:1540,0
DA:1541,0
DA:1542,0
DA:1543,0
DA:1544,0
DA:1546,0
DA:1547,0
DA:1548,0
DA:1550,0
DA:1551,0
DA:1552,0
DA:1553,0
DA:1554,0
DA:1556,0
DA:1559,0
DA:1560,0
DA:1561,0
DA:1562,0
DA:1563,0
DA:1564,0
DA:1566,0
DA:1567,0
DA:1569,0
DA:1572,0
DA:1575,0
DA:1576,0
DA:1577,0
DA:1578,0
DA:1579,0
DA:1581,0
DA:1583,0
DA:1584,0
DA:1586,0
DA:1587,0
DA:1588,0
DA:1589,0
DA:1592,0
DA:1593,0
DA:1594,0
DA:1595,0
DA:1596,0
DA:1597,0
DA:1599,0
DA:1601,0
DA:1602,0
DA:1603,0
DA:1604,0
DA:1605,0
DA:1606,0
DA:1607,0
DA:1608,0
DA:1610,0
DA:1614,0
DA:1615,0
DA:1616,0
DA:1617,0
DA:1618,0
DA:1619,0
DA:1620,0
DA:1621,0
DA:1623,0
DA:1626,0
DA:1628,0
DA:1629,0
DA:1630,0
DA:1631,0
DA:1632,0
DA:1633,0
DA:1634,0
DA:1635,0
DA:1636,0
DA:1637,0
DA:1638,0
DA:1639,0
DA:1640,0
DA:1641,0
DA:1642,0
DA:1643,0
DA:1644,0
DA:1645,0
DA:1646,0
DA:1647,0
DA:1648,0
DA:1654,0
DA:1656,0
DA:1658,0
DA:1659,0
DA:1660,0
DA:1662,0
DA:1664,0
DA:1665,0
DA:1666,0
DA:1667,0
DA:1668,0
DA:1669,0
DA:1672,0
DA:1673,0
DA:1674,0
DA:1676,0
DA:1678,0
DA:1679,0
DA:1680,0
DA:1681,0
DA:1682,0
DA:1685,0
DA:1688,0
DA:1689,0
DA:1690,0
DA:1691,0
DA:1692,0
DA:1693,0
DA:1696,0
DA:1697,0
DA:1699,0
DA:1701,0
DA:1702,0
DA:1703,0
DA:1704,0
DA:1705,0
DA:1706,0
DA:1710,0
DA:1711,0
DA:1712,0
DA:1715,0
DA:1716,0
DA:1718,0
DA:1720,0
DA:1721,0
DA:1722,0
DA:1723,0
DA:1726,0
DA:1727,0
DA:1728,0
DA:1729,0
DA:1730,0
DA:1731,0
DA:1732,0
DA:1733,0
DA:1736,0
DA:1740,0
DA:1741,0
DA:1742,0
DA:1743,0
DA:1747,0
DA:1748,0
DA:1749,0
DA:1750,0
DA:1751,0
DA:1752,0
DA:1753,0
DA:1754,0
DA:1755,0
DA:1760,0
DA:1761,0
DA:1762,0
DA:1765,0
DA:1767,0
DA:1768,0
DA:1769,0
DA:1770,0
DA:1772,0
DA:1773,0
DA:1776,0
DA:1777,0
DA:1778,0
DA:1779,0
DA:1780,0
DA:1781,0
DA:1782,0
DA:1783,0
DA:1786,0
DA:1787,0
DA:1788,0
DA:1790,0
DA:1793,0
DA:1794,0
DA:1796,0
DA:1803,0
DA:1805,0
DA:1807,0
DA:1808,0
DA:1809,0
DA:1811,0
DA:1812,0
DA:1815,0
DA:1816,0
DA:1818,0
DA:1819,0
DA:1820,0
DA:1823,0
DA:1824,0
DA:1825,0
DA:1826,0
DA:1827,0
DA:1828,0
DA:1829,0
DA:1830,0
DA:1831,0
DA:1834,0
DA:1835,0
DA:1836,0
DA:1837,0
DA:1838,0
DA:1839,0
DA:1840,0
DA:1841,0
DA:1842,0
DA:1843,0
DA:1844,0
DA:1845,0
DA:1846,0
DA:1848,0
DA:1849,0
DA:1851,0
DA:1852,0
DA:1854,0
DA:1855,0
DA:1857,0
DA:1858,0
DA:1860,0
DA:1861,0
DA:1863,0
DA:1864,0
DA:1866,0
DA:1867,0
DA:1869,0
DA:1870,0
DA:1873,0
DA:1874,0
DA:1875,0
DA:1876,0
DA:1878,0
DA:1881,0
DA:1884,0
DA:1887,0
DA:1892,0
DA:1893,0
DA:1894,0
DA:1896,0
DA:1900,0
DA:1902,0
DA:1903,0
DA:1904,0
DA:1906,0
DA:1911,0
DA:1913,0
DA:1916,0
DA:1920,0
DA:1924,0
DA:1925,0
DA:1926,0
DA:1927,0
DA:1928,0
DA:1929,0
DA:1930,0
DA:1931,0
DA:1932,0
DA:1933,0
DA:1934,0
DA:1939,0
DA:1941,0
DA:1942,0
DA:1946,0
DA:1947,0
DA:1948,0
DA:1949,0
DA:1950,0
DA:1951,0
DA:1952,0
DA:1955,0
DA:1956,0
DA:1959,0
DA:1960,0
DA:1961,0
DA:1964,0
DA:1965,0
DA:1968,0
DA:1971,0
DA:1972,0
DA:1975,0
DA:1977,0
DA:1978,0
DA:1979,0
DA:1980,0
DA:1983,0
DA:1986,0
DA:1987,0
DA:1988,0
DA:1989,0
DA:1990,0
DA:1991,0
DA:1992,0
DA:1993,0
DA:1994,0
DA:1995,0
DA:1996,0
DA:1997,0
DA:1998,0
DA:2002,0
DA:2003,0
DA:2004,0
DA:2006,0
DA:2008,0
DA:2010,0
DA:2011,0
DA:2014,0
DA:2015,0
DA:2016,0
DA:2017,0
DA:2019,0
DA:2021,0
DA:2022,0
DA:2023,0
DA:2025,0
DA:2027,0
DA:2030,0
DA:2031,0
DA:2032,0
DA:2033,0
DA:2035,0
DA:2036,0
DA:2037,0
DA:2038,0
DA:2039,0
DA:2040,0
DA:2041,0
DA:2042,0
DA:2045,0
DA:2046,0
DA:2047,0
DA:2048,0
DA:2049,0
DA:2051,0
DA:2052,0
DA:2053,0
DA:2054,0
DA:2055,0
DA:2056,0
DA:2057,0
DA:2058,0
DA:2059,0
DA:2062,0
DA:2063,0
DA:2064,0
DA:2065,0
DA:2066,0
DA:2067,0
DA:2069,0
DA:2070,0
DA:2071,0
DA:2072,0
DA:2073,0
DA:2074,0
DA:2075,0
DA:2076,0
DA:2077,0
DA:2080,0
DA:2081,0
DA:2085,0
DA:2089,0
DA:2093,0
DA:2094,0
DA:2095,0
DA:2098,0
DA:2099,0
DA:2100,0
DA:2102,0
DA:2106,0
DA:2108,0
DA:2109,0
DA:2110,0
DA:2111,0
DA:2112,0
DA:2114,0
DA:2115,0
DA:2116,0
DA:2117,0
DA:2118,0
DA:2119,0
DA:2120,0
DA:2121,0
DA:2122,0
DA:2123,0
DA:2124,0
DA:2125,0
DA:2127,0
DA:2129,0
DA:2130,0
DA:2131,0
DA:2132,0
DA:2133,0
DA:2134,0
DA:2135,0
DA:2136,0
DA:2137,0
DA:2138,0
DA:2139,0
DA:2140,0
DA:2141,0
DA:2143,0
DA:2144,0
DA:2145,0
DA:2146,0
DA:2147,0
DA:2148,0
DA:2149,0
DA:2150,0
DA:2151,0
DA:2152,0
DA:2153,0
DA:2156,0
DA:2158,0
DA:2160,0
DA:2163,0
DA:2166,0
DA:2167,0
DA:2168,0
DA:2169,0
DA:2170,0
DA:2171,0
DA:2172,0
DA:2173,0
DA:2174,0
DA:2176,0
DA:2178,0
DA:2181,0
DA:2182,0
DA:2183,0
DA:2184,0
DA:2185,0
DA:2186,0
DA:2187,0
DA:2188,0
DA:2189,0
DA:2190,0
DA:2192,0
DA:2197,0
DA:2201,0
DA:2202,0
DA:2203,0
DA:2204,0
DA:2205,0
DA:2207,0
DA:2208,0
DA:2211,0
DA:2212,0
DA:2213,0
DA:2214,0
DA:2215,0
DA:2218,0
DA:2220,0
DA:2222,0
DA:2257,0
DA:2258,0
DA:2259,0
DA:2261,0
DA:2263,0
DA:2265,0
DA:2266,0
DA:2269,0
DA:2270,0
DA:2271,0
DA:2273,0
DA:2274,0
DA:2275,0
DA:2278,0
DA:2287,0
DA:2288,0
DA:2296,0
DA:2297,0
DA:2299,0
DA:2301,0
DA:2305,0
DA:2306,0
DA:2307,0
DA:2309,0
DA:2312,0
DA:2313,0
DA:2314,0
DA:2315,0
DA:2317,0
DA:2318,0
DA:2319,0
DA:2320,0
DA:2321,0
DA:2322,0
DA:2324,0
DA:2327,0
DA:2328,0
DA:2329,0
DA:2330,0
DA:2331,0
DA:2334,0
DA:2337,0
DA:2338,0
DA:2339,0
DA:2342,0
DA:2343,0
DA:2344,0
DA:2347,0
DA:2348,0
DA:2349,0
DA:2350,0
DA:2351,0
DA:2353,0
DA:2354,0
DA:2365,0
DA:2367,0
DA:2369,0
DA:2371,0
DA:2372,0
DA:2374,0
DA:2376,0
DA:2377,0
DA:2388,0
DA:2390,0
DA:2391,0
DA:2393,0
DA:2394,0
DA:2395,0
DA:2398,0
DA:2399,0
DA:2401,0
DA:2402,0
DA:2403,0
DA:2456,20
DA:2457,20
DA:2477,0
DA:2481,0
DA:2505,75234
DA:2510,75234
DA:2511,0
DA:2513,75234
DA:2514,75234
DA:2517,0
DA:2519,75234
DA:2520,75234
DA:2521,75234
DA:2526,52590
DA:2532,52590
DA:2535,52590
DA:2536,52590
DA:2537,52590
DA:2540,0
DA:2542,52590
DA:2543,52590
DA:2544,52590
DA:2545,52590
DA:2547,47420
DA:2551,47420
DA:2552,0
DA:2553,0
DA:2555,47420
DA:2556,47420
DA:2558,47420
DA:2577,52590
DA:2578,52590
DA:2579,52590
DA:2580,75234
DA:2581,75234
DA:2582,75234
DA:2601,0
DA:2602,0
DA:2603,0
DA:2604,0
DA:2605,0
DA:2606,0
DA:2608,0
DA:2610,0
DA:2611,0
DA:2612,0
DA:2613,0
DA:2614,0
DA:2615,0
DA:2616,0
DA:2618,0
DA:2620,0
DA:2622,0
DA:2633,0
DA:2634,0
DA:2636,0
DA:2637,0
DA:2638,0
DA:2639,0
DA:2641,0
DA:2642,0
DA:2643,0
DA:2644,0
DA:2646,0
DA:2647,0
DA:2651,0
DA:2652,0
DA:2665,23041
DA:2667,43522
DA:2668,43522
DA:2670,43522
DA:2671,43522
DA:2672,43522
DA:2674,112204
DA:2675,214520
DA:2676,75234
DA:2677,187438
DA:2681,112204
DA:2682,112204
DA:2683,112204
DA:2686,0
DA:2687,0
DA:2688,0
DA:2689,0
DA:2692,178767
DA:2693,178767
DA:2694,75234
DA:2696,178767
DA:2698,0
DA:2699,0
DA:2700,0
DA:2701,0
DA:2703,0
DA:2704,0
DA:2705,0
DA:2708,247155
DA:2709,247155
DA:2712,83366
DA:2713,83366
DA:2714,83366
DA:2715,83366
DA:2716,83366
DA:2717,83366
DA:2718,49427
DA:2719,37232
DA:2722,2242
DA:2723,2242
DA:2726,1042
DA:2727,1042
DA:2728,1042
DA:2729,1040
DA:2730,1040
DA:2731,1040
DA:2734,2253
DA:2737,18096
DA:2738,18096
DA:2739,0
DA:2753,17040
DA:2754,17040
DA:2755,17040
DA:2757,3832
DA:2760,0
DA:2761,0
DA:2763,0
DA:2764,0
DA:2766,0
DA:2767,0
DA:2770,13208
DA:2771,13208
DA:2773,0
DA:2774,0
DA:2776,0
DA:2778,17040
DA:2780,96
DA:2781,96
DA:2782,96
DA:2783,96
DA:2785,0
DA:2786,0
DA:2787,0
DA:2788,0
DA:2790,0
DA:2791,0
DA:2792,0
DA:2793,0
DA:2794,0
DA:2795,0
DA:2796,0
DA:2797,0
DA:2800,0
DA:2801,0
DA:2802,0
DA:2803,0
DA:2805,0
DA:2806,0
DA:2807,0
DA:2808,0
DA:2810,0
DA:2811,0
DA:2813,0
DA:2814,0
DA:2816,24576
DA:2817,24576
DA:2819,24576
DA:2820,24576
DA:2822,0
DA:2823,0
DA:2824,0
DA:2825,0
DA:2834,0
DA:2835,0
DA:2836,0
DA:2837,0
DA:2839,115806
DA:2842,115806
DA:2844,115806
DA:2850,74061
DA:2851,74061
DA:2853,28014
DA:2857,28014
DA:2858,28014
DA:2859,28014
DA:2861,0
DA:2862,0
DA:2864,28014
DA:2867,13731
DA:2868,13731
DA:2870,0
DA:2872,115806
DA:2873,0
DA:2874,0
DA:2875,0
DA:2876,0
DA:2878,0
DA:2881,115806
DA:2885,0
DA:2886,0
DA:2887,0
DA:2888,0
DA:2891,157518
DA:2892,157518
DA:2898,77989
DA:2900,52590
DA:2901,52590
DA:2902,52590
DA:2905,26939
DA:2906,26939
DA:2908,0
DA:2911,157518
DA:2912,0
DA:2914,157518
DA:2915,157518
DA:2917,5830
DA:2918,5830
DA:2919,5830
DA:2922,41098
DA:2923,41098
DA:2924,41098
DA:2925,41098
DA:2926,41098
DA:2927,41098
DA:2928,41098
DA:2929,41098
DA:2930,41098
DA:2932,5830
DA:2933,5830
DA:2934,5830
DA:2935,5830
DA:2936,5830
DA:2937,5830
DA:2939,29033
DA:2941,0
DA:2942,0
DA:2943,0
DA:2944,0
DA:2945,0
DA:2946,0
DA:2949,0
DA:2950,0
DA:2951,0
DA:2952,0
DA:2953,0
DA:2955,0
DA:2957,0
DA:2959,0
DA:2961,0
DA:2963,0
DA:2966,0
DA:2967,0
DA:2968,0
DA:2974,0
DA:2975,0
DA:2976,0
DA:2977,0
DA:2978,0
DA:2979,0
DA:2980,0
DA:2981,0
DA:2985,0
DA:2986,0
DA:2987,0
DA:2988,0
DA:2991,0
DA:2996,0
DA:2998,0
DA:3000,0
DA:3002,0
DA:3007,0
DA:3008,0
DA:3009,0
DA:3010,0
DA:3012,0
DA:3014,0
DA:3016,0
DA:3018,0
DA:3020,0
DA:3023,0
DA:3024,0
DA:3030,0
DA:3031,0
DA:3032,0
DA:3033,0
DA:3034,0
DA:3035,0
DA:3039,0
DA:3040,0
DA:3042,0
DA:3047,0
DA:3049,0
DA:3050,0
DA:3052,0
DA:3055,0
DA:3056,0
DA:3071,19406
DA:3072,19406
DA:3073,19406
DA:3075,19406
DA:3076,19406
DA:3077,19406
DA:3080,0
DA:3081,0
DA:3083,0
DA:3086,0
DA:3089,0
DA:3090,0
DA:3093,0
DA:3095,0
DA:3097,0
DA:3099,0
DA:3101,0
DA:3115,0
DA:3116,0
DA:3118,0
DA:3119,0
DA:3121,0
DA:3122,0
DA:3124,0
DA:3126,0
DA:3128,0
DA:3130,0
DA:3132,0
DA:3134,0
DA:3137,0
DA:3138,0
DA:3140,0
DA:3141,0
DA:3143,0
DA:3144,0
DA:3146,0
DA:3148,0
DA:3150,0
DA:3152,0
DA:3154,0
DA:3156,0
DA:3161,176
DA:3162,176
DA:3164,176
DA:3166,0
DA:3167,0
DA:3169,0
DA:3171,0
DA:3173,0
DA:3175,0
DA:3177,0
DA:3179,0
DA:3182,0
DA:3183,0
DA:3185,0
DA:3186,0
DA:3188,0
DA:3190,0
DA:3192,0
DA:3194,0
DA:3196,0
DA:3198,0
DA:3200,0
DA:3204,176
DA:3208,176
DA:3212,0
DA:3216,0
DA:3220,0
DA:3221,0
DA:3223,0
DA:3226,0
DA:3231,0
DA:3233,0
DA:3235,0
DA:3237,0
DA:3239,0
DA:3242,0
DA:3243,0
DA:3245,0
DA:3248,0
DA:3254,0
DA:3256,0
DA:3258,0
DA:3260,0
DA:3262,0
DA:3265,0
DA:3266,0
DA:3268,0
DA:3270,0
DA:3272,0
DA:3274,0
DA:3277,0
DA:3279,0
DA:3281,0
DA:3284,0
DA:3285,0
DA:3287,0
DA:3288,0
DA:3289,0
DA:3290,0
DA:3291,0
DA:3292,0
DA:3294,0
DA:3295,0
DA:3296,0
DA:3298,0
DA:3299,0
DA:3300,0
DA:3302,0
DA:3304,0
DA:3306,0
DA:3307,0
DA:3309,0
DA:3311,0
DA:3313,0
DA:3318,2525
DA:3319,2525
DA:3326,31
DA:3328,2494
DA:3329,2253
DA:3330,2253
DA:3331,2253
DA:3333,241
DA:3335,0
DA:3337,0
DA:3341,0
DA:3342,0
DA:3343,0
DA:3345,0
DA:3348,0
DA:3350,0
DA:3351,0
DA:3354,0
DA:3355,0
DA:3356,0
DA:3359,0
DA:3360,0
DA:3362,0
DA:3364,0
DA:3366,0
DA:3367,0
DA:3369,0
DA:3370,0
DA:3371,0
DA:3372,0
DA:3373,0
DA:3374,0
DA:3375,0
DA:3377,0
DA:3378,0
DA:3380,0
DA:3382,0
DA:3384,13693
DA:3385,13693
DA:3388,13693
DA:3389,15
DA:3390,13693
DA:3391,13693
DA:3392,13693
DA:3393,1200
DA:3395,24986
DA:3396,12493
DA:3397,26186
DA:3400,12832
DA:3401,12832
DA:3404,12832
DA:3407,9348
DA:3408,9348
DA:3411,9348
DA:3412,0
DA:3413,9348
DA:3414,9348
DA:3415,9348
DA:3416,0
DA:3417,9348
DA:3420,0
DA:3421,0
DA:3424,0
DA:3427,41712
DA:3428,41712
DA:3429,41712
DA:3430,41712
DA:3431,41712
DA:3432,41712
DA:3433,41712
DA:3438,0
DA:3439,0
DA:3442,0
DA:3443,0
DA:3445,0
DA:3446,0
DA:3447,0
DA:3448,0
DA:3450,0
DA:3451,0
DA:3452,0
DA:3453,0
DA:3457,25426
DA:3459,25426
DA:3462,25426
DA:3463,0
DA:3465,25426
DA:3466,25426
DA:3467,25426
DA:3468,1040
DA:3470,48772
DA:3471,24386
DA:3472,24386
DA:3473,49812
DA:3476,0
DA:3477,0
DA:3478,0
DA:3481,0
DA:3483,18096
DA:3485,18096
DA:3488,18096
DA:3489,18096
DA:3490,18096
DA:3491,18096
DA:3492,18096
DA:3494,0
DA:3496,0
DA:3497,0
DA:3498,0
DA:3500,18096
DA:3502,18096
DA:3503,18096
DA:3504,18096
DA:3507,0
DA:3508,0
DA:3511,25426
DA:3512,25426
DA:3515,0
DA:3516,0
DA:3531,861
DA:3533,0
DA:3535,0
DA:3536,0
DA:3538,0
DA:3540,0
DA:3542,0
DA:3544,0
DA:3548,0
DA:3550,0
DA:3551,0
DA:3553,0
DA:3554,0
DA:3555,0
DA:3556,0
DA:3557,0
DA:3558,0
DA:3559,0
DA:3561,0
DA:3563,0
DA:3565,0
DA:3567,0
DA:3569,0
DA:3571,0
DA:3573,0
DA:3574,0
DA:3576,0
DA:3577,0
DA:3578,0
DA:3580,0
DA:3582,0
DA:3585,0
DA:3586,0
DA:3587,0
DA:3589,0
DA:3590,0
DA:3591,0
DA:3592,0
DA:3594,0
DA:3595,0
DA:3597,0
DA:3598,0
DA:3599,0
DA:3600,0
DA:3602,0
DA:3603,0
DA:3604,0
DA:3605,0
DA:3615,0
DA:3617,0
DA:3618,0
DA:3620,0
DA:3622,0
DA:3624,0
DA:3626,0
DA:3635,9048
DA:3636,9048
DA:3639,9048
DA:3640,0
DA:3641,9048
DA:3642,9048
DA:3643,9048
DA:3644,9048
DA:3645,27144
DA:3646,18096
DA:3647,36192
DA:3649,9048
DA:3677,0
DA:3679,0
DA:3682,0
DA:3684,0
DA:3686,0
DA:3687,0
DA:3689,0
DA:3691,0
DA:3693,0
DA:3694,0
DA:3696,0
DA:3698,0
DA:3701,0
DA:3702,0
DA:3704,0
DA:3706,0
DA:3708,0
DA:3709,0
DA:3711,0
DA:3713,0
DA:3716,0
DA:3718,0
DA:3720,0
DA:3722,0
DA:3727,0
DA:3728,0
DA:3730,0
DA:3733,0
DA:3736,0
DA:3738,0
DA:3740,0
DA:3742,0
DA:3747,0
DA:3748,0
DA:3750,0
DA:3753,0
DA:3756,0
DA:3758,0
DA:3764,0
DA:3766,0
DA:3768,0
DA:3770,0
DA:3772,0
DA:3774,0
DA:3775,0
DA:3776,0
DA:3777,0
DA:3779,0
DA:3781,0
DA:3782,0
DA:3784,0
DA:3785,0
DA:3786,0
DA:3788,0
DA:3789,0
DA:3790,0
DA:3792,0
DA:3793,0
DA:3796,0
DA:3797,0
DA:3798,0
DA:3799,0
DA:3802,35299
DA:3804,35299
DA:3806,0
DA:3808,0
DA:3810,0
DA:3811,0
DA:3812,0
DA:3815,0
DA:3816,0
DA:3819,0
DA:3820,0
DA:3821,0
DA:3823,0
DA:3825,0
DA:3828,0
DA:3829,0
DA:3832,0
DA:3833,0
DA:3834,0
DA:3836,0
DA:3838,0
DA:3841,0
DA:3842,0
DA:3845,0
DA:3846,0
DA:3847,0
DA:3849,0
DA:3851,0
DA:3854,0
DA:3855,0
DA:3858,0
DA:3859,0
DA:3860,0
DA:3862,0
DA:3864,0
DA:3870,0
DA:3872,0
DA:3873,0
DA:3875,0
DA:3876,0
DA:3878,0
DA:3879,0
DA:3884,0
DA:3889,0
DA:3890,0
DA:3891,0
DA:3892,0
DA:3893,0
DA:3894,0
DA:3895,0
DA:3896,0
DA:3897,0
DA:3899,0
DA:3900,0
DA:3901,0
DA:3902,0
DA:3903,0
DA:3904,0
DA:3905,0
DA:3906,0
DA:3907,0
DA:3909,0
DA:3910,0
DA:3911,0
DA:3912,0
DA:3914,0
DA:3915,0
DA:3916,0
DA:3917,0
DA:3918,0
DA:3919,0
DA:3920,0
DA:3922,0
DA:3923,0
DA:3924,0
DA:3925,0
DA:3928,0
DA:3930,0
DA:3934,0
DA:3936,0
DA:3939,0
DA:3941,0
DA:3943,0
DA:3945,0
DA:3947,0
DA:3948,0
DA:3949,0
DA:3950,0
DA:3951,0
DA:3952,0
DA:3955,0
DA:3956,0
DA:3957,0
DA:3960,0
DA:3961,0
DA:3967,0
DA:3970,0
DA:3971,0
DA:3972,0
DA:3973,0
DA:3974,0
DA:3975,0
DA:3976,0
DA:3977,0
DA:3978,0
DA:3979,0
DA:3980,0
DA:3981,0
DA:3982,0
DA:3983,0
DA:3986,0
DA:3989,0
DA:3990,0
DA:3991,0
DA:3992,0
DA:3993,0
DA:3994,0
DA:3997,0
DA:3998,0
DA:3999,0
DA:4002,0
DA:4005,0
DA:4106,0
DA:4107,0
DA:4108,0
DA:4109,0
DA:4111,0
DA:4114,37497
DA:4115,37497
DA:4116,1305695
DA:4117,1230701
DA:4118,0
DA:4119,1230701
DA:4121,37497
DA:4124,176
DA:4126,176
DA:4127,176
DA:4128,0
DA:4129,0
DA:4130,176
DA:4131,0
DA:4132,0
DA:4134,176
DA:4136,176
DA:4137,176
DA:4140,0
DA:4142,0
DA:4143,0
DA:4144,0
DA:4145,0
DA:4150,0
DA:4151,0
DA:4154,0
DA:4155,0
DA:4160,0
DA:4164,0
DA:4167,0
DA:4172,0
DA:4173,0
DA:4176,0
DA:4177,0
DA:4178,0
DA:4179,0
DA:4181,0
DA:4185,0
DA:4186,0
DA:4187,0
DA:4190,0
DA:4192,0
DA:4194,0
DA:4195,0
DA:4196,0
DA:4198,0
DA:4199,0
DA:4200,0
DA:4205,0
DA:4206,0
DA:4207,0
DA:4208,0
DA:4209,0
DA:4210,0
DA:4212,0
DA:4213,0
DA:4215,0
DA:4216,0
DA:4218,0
DA:4219,0
DA:4221,0
DA:4222,0
DA:4224,0
DA:4225,0
DA:4227,0
DA:4228,0
DA:4230,0
DA:4231,0
DA:4241,0
DA:4242,0
DA:4243,0
DA:4244,0
DA:4245,0
DA:4247,0
DA:4249,0
DA:4252,0
DA:4253,0
DA:4257,37502
DA:4258,37502
DA:4260,37502
DA:4261,1268223
DA:4262,1230726
DA:4263,9845793
DA:4264,8615072
DA:4265,5
DA:4269,37497
DA:4271,37502
DA:4272,37502
DA:4273,0
DA:4275,74999
DA:4276,37497
DA:4277,37497
DA:4282,5
DA:4283,5
DA:4284,5
DA:4285,5
DA:4286,5
DA:4287,30
DA:4288,25
DA:4290,0
DA:4291,0
DA:4293,0
DA:4294,0
DA:4296,0
DA:4297,0
DA:4299,0
DA:4300,0
DA:4302,5
DA:4303,5
DA:4305,0
DA:4306,0
DA:4308,0
DA:4309,0
DA:4319,20
DA:4320,0
DA:4321,0
DA:4322,0
DA:4323,0
DA:4325,20
DA:4327,20
DA:4330,5
DA:4331,5
DA:4336,1589
DA:4341,1589
DA:4343,1589
DA:4345,0
DA:4347,0
DA:4349,0
DA:4351,1589
DA:4352,1589
DA:4353,1589
DA:4354,1589
DA:4355,1589
DA:4356,1589
DA:4359,29033
DA:4360,29033
DA:4362,0
DA:4363,0
DA:4364,0
DA:4366,176
DA:4367,176
DA:4369,0
DA:4370,0
DA:4372,0
DA:4373,0
DA:4379,19406
DA:4380,19406
DA:4381,19406
DA:4384,0
DA:4385,0
DA:4387,403
DA:4388,403
DA:4389,9751
DA:4390,9348
DA:4391,8961
DA:4392,9348
DA:4394,403
DA:4395,403
DA:4397,9048
DA:4398,9048
DA:4399,27144
DA:4401,18096
DA:4402,18096
DA:4403,9048
DA:4404,18096
DA:4405,18096
DA:4406,18096
DA:4408,9048
DA:4409,9048
DA:4411,29033
DA:4416,0
DA:4417,0
DA:4419,0
DA:4420,0
DA:4421,0
DA:4422,0
DA:4423,0
DA:4424,0
DA:4425,0
DA:4426,0
DA:4427,0
DA:4430,0
DA:4431,0
DA:4433,0
DA:4434,0
DA:4436,0
DA:4437,0
DA:4439,0
DA:4440,0
DA:4442,0
DA:4443,0
DA:4449,0
DA:4450,0
DA:4451,0
DA:4452,0
DA:4455,0
DA:4456,0
DA:4458,0
DA:4459,0
DA:4461,0
DA:4462,0
DA:4463,0
DA:4465,0
DA:4466,0
DA:4467,0
DA:4469,0
DA:4470,0
DA:4471,0
DA:4472,0
DA:4473,0
DA:4474,0
DA:4475,0
DA:4476,0
DA:4477,0
DA:4479,0
DA:4480,0
DA:4481,0
DA:4482,0
DA:4483,0
DA:4484,0
DA:4485,0
DA:4487,0
DA:4489,0
DA:4490,0
DA:4491,0
DA:4492,0
DA:4494,0
DA:4495,0
DA:4496,0
DA:4497,0
DA:4498,0
DA:4499,0
DA:4501,0
DA:4502,0
DA:4503,0
DA:4504,0
DA:4506,0
DA:4507,0
DA:4509,0
DA:4510,0
DA:4511,0
DA:4513,0
DA:4514,0
DA:4515,0
DA:4516,0
DA:4517,0
DA:4520,0
DA:4521,0
DA:4522,0
DA:4523,0
DA:4524,0
DA:4525,0
DA:4527,0
DA:4530,0
DA:4532,0
DA:4533,0
DA:4534,0
DA:4535,0
DA:4536,0
DA:4537,0
DA:4538,0
DA:4539,0
DA:4541,0
DA:4543,0
DA:4544,0
DA:4545,0
DA:4546,0
DA:4547,0
DA:4548,0
DA:4550,0
DA:4551,0
DA:4553,0
DA:4554,0
DA:4556,0
DA:4559,0
DA:4560,0
DA:4561,0
DA:4563,0
DA:4564,0
DA:4566,0
DA:4567,0
DA:4568,0
DA:4569,0
DA:4570,0
DA:4571,0
DA:4572,0
DA:4574,0
DA:4577,0
DA:4578,0
DA:4579,0
DA:4580,0
DA:4582,0
DA:4584,0
DA:4585,0
DA:4586,0
DA:4587,0
DA:4589,0
DA:4590,0
DA:4591,0
DA:4593,0
DA:4594,0
DA:4595,0
DA:4596,0
DA:4597,0
DA:4598,0
DA:4599,0
DA:4600,0
DA:4601,0
DA:4602,0
DA:4606,0
DA:4609,0
DA:4610,0
DA:4611,0
DA:4613,0
DA:4614,0
DA:4615,0
DA:4616,0
DA:4618,0
DA:4620,0
DA:4621,0
DA:4622,0
DA:4623,0
DA:4629,0
DA:4631,0
DA:4633,0
DA:4634,0
DA:4635,0
DA:4636,0
DA:4637,0
DA:4638,0
DA:4639,0
DA:4640,0
DA:4641,0
DA:4642,0
DA:4643,0
DA:4644,0
DA:4645,0
DA:4647,0
DA:4648,0
DA:4650,0
DA:4651,0
DA:4653,0
DA:4654,0
DA:4656,0
DA:4657,0
DA:4659,0
DA:4660,0
DA:4666,0
DA:4667,0
DA:4668,0
DA:4669,0
DA:4672,0
DA:4673,0
DA:4675,0
DA:4676,0
DA:4678,0
DA:4679,0
DA:4680,0
DA:4682,0
DA:4683,0
DA:4684,0
DA:4686,0
DA:4687,0
DA:4688,0
DA:4689,0
DA:4690,0
DA:4691,0
DA:4692,0
DA:4693,0
DA:4694,0
DA:4696,0
DA:4697,0
DA:4698,0
DA:4699,0
DA:4700,0
DA:4701,0
DA:4702,0
DA:4704,0
DA:4706,0
DA:4707,0
DA:4708,0
DA:4709,0
DA:4711,0
DA:4712,0
DA:4713,0
DA:4714,0
DA:4715,0
DA:4716,0
DA:4718,0
DA:4719,0
DA:4720,0
DA:4721,0
DA:4723,0
DA:4724,0
DA:4725,0
DA:4726,0
DA:4728,0
DA:4729,0
DA:4730,0
DA:4732,0
DA:4733,0
DA:4734,0
DA:4735,0
DA:4736,0
DA:4739,0
DA:4740,0
DA:4741,0
DA:4742,0
DA:4743,0
DA:4744,0
DA:4746,0
DA:4749,0
DA:4751,0
DA:4752,0
DA:4753,0
DA:4754,0
DA:4755,0
DA:4756,0
DA:4757,0
DA:4758,0
DA:4760,0
DA:4762,0
DA:4763,0
DA:4764,0
DA:4765,0
DA:4766,0
DA:4767,0
DA:4769,0
DA:4770,0
DA:4772,0
DA:4773,0
DA:4775,0
DA:4778,0
DA:4779,0
DA:4780,0
DA:4782,0
DA:4783,0
DA:4785,0
DA:4790,0
DA:4791,0
DA:4793,0
DA:4794,0
DA:4795,0
DA:4796,0
DA:4797,0
DA:4799,0
DA:4801,0
DA:4802,0
DA:4803,0
DA:4804,0
DA:4806,0
DA:4807,0
DA:4808,0
DA:4810,0
DA:4811,0
DA:4812,0
DA:4813,0
DA:4814,0
DA:4815,0
DA:4816,0
DA:4818,0
DA:4819,0
DA:4821,0
DA:4824,0
DA:4825,0
DA:4826,0
DA:4828,0
DA:4829,0
DA:4830,0
DA:4832,0
DA:4833,0
DA:4835,0
DA:4836,0
DA:4837,0
DA:4838,0
DA:4854,0
DA:4893,0
DA:4910,0
DA:4912,0
DA:4913,0
DA:4915,0
DA:4916,0
DA:4917,0
DA:4918,0
DA:4919,0
DA:4920,0
DA:4921,0
DA:4922,0
DA:4923,0
DA:4924,0
DA:4925,0
DA:4926,0
DA:4928,0
DA:4929,0
DA:4931,0
DA:4932,0
DA:4934,0
DA:4935,0
DA:4937,0
DA:4938,0
DA:4940,0
DA:4941,0
DA:4947,0
DA:4948,0
DA:4949,0
DA:4950,0
DA:4953,0
DA:4954,0
DA:4956,0
DA:4957,0
DA:4959,0
DA:4960,0
DA:4961,0
DA:4963,0
DA:4964,0
DA:4965,0
DA:4967,0
DA:4968,0
DA:4969,0
DA:4970,0
DA:4971,0
DA:4972,0
DA:4973,0
DA:4974,0
DA:4975,0
DA:4977,0
DA:4978,0
DA:4979,0
DA:4980,0
DA:4981,0
DA:4982,0
DA:4983,0
DA:4985,0
DA:4987,0
DA:4988,0
DA:4989,0
DA:4990,0
DA:4992,0
DA:4993,0
DA:4994,0
DA:4995,0
DA:4996,0
DA:4997,0
DA:4999,0
DA:5000,0
DA:5001,0
DA:5002,0
DA:5004,0
DA:5005,0
DA:5006,0
DA:5007,0
DA:5009,0
DA:5010,0
DA:5011,0
DA:5013,0
DA:5014,0
DA:5015,0
DA:5016,0
DA:5017,0
DA:5020,0
DA:5021,0
DA:5022,0
DA:5023,0
DA:5024,0
DA:5025,0
DA:5026,0
DA:5028,0
DA:5029,0
DA:5032,0
DA:5034,0
DA:5035,0
DA:5036,0
DA:5037,0
DA:5038,0
DA:5039,0
DA:5040,0
DA:5041,0
DA:5043,0
DA:5045,0
DA:5046,0
DA:5047,0
DA:5048,0
DA:5049,0
DA:5050,0
DA:5052,0
DA:5053,0
DA:5055,0
DA:5056,0
DA:5058,0
DA:5061,0
DA:5062,0
DA:5063,0
DA:5065,0
DA:5066,0
DA:5068,0
DA:5074,0
DA:5076,0
DA:5078,0
DA:5080,0
DA:5081,0
DA:5082,0
DA:5083,0
DA:5084,0
DA:5086,0
DA:5088,0
DA:5089,0
DA:5090,0
DA:5091,0
DA:5093,0
DA:5094,0
DA:5095,0
DA:5096,0
DA:5098,0
DA:5099,0
DA:5100,0
DA:5101,0
DA:5102,0
DA:5103,0
DA:5104,0
DA:5106,0
DA:5107,0
DA:5109,0
DA:5112,0
DA:5113,0
DA:5114,0
DA:5115,0
DA:5117,0
DA:5118,0
DA:5119,0
DA:5124,0
DA:5125,0
DA:5126,0
DA:5127,0
DA:5133,0
DA:5134,0
DA:5136,0
DA:5137,0
DA:5139,0
DA:5140,0
DA:5141,0
DA:5142,0
DA:5144,0
DA:5145,0
DA:5146,0
DA:5147,0
DA:5148,0
DA:5150,0
DA:5151,0
DA:5152,0
DA:5153,0
DA:5154,0
DA:5155,0
DA:5156,0
DA:5157,0
DA:5158,0
DA:5159,0
DA:5160,0
DA:5162,0
DA:5164,0
DA:5165,0
DA:5166,0
DA:5167,0
DA:5168,0
DA:5170,0
DA:5171,0
DA:5172,0
DA:5174,0
DA:5175,0
DA:5178,0
DA:5180,0
DA:5182,0
DA:5183,0
DA:5184,0
DA:5185,0
DA:5186,0
DA:5187,0
DA:5188,0
DA:5189,0
DA:5190,0
DA:5192,0
DA:5193,0
DA:5194,0
DA:5195,0
DA:5196,0
DA:5197,0
DA:5198,0
DA:5199,0
DA:5200,0
DA:5201,0
DA:5202,0
DA:5205,0
DA:5207,0
DA:5209,0
DA:5212,0
DA:5215,0
DA:5216,0
DA:5217,0
DA:5218,0
DA:5219,0
DA:5220,0
DA:5222,0
DA:5224,0
DA:5225,0
DA:5226,0
DA:5227,0
DA:5228,0
DA:5231,0
DA:5232,0
DA:5233,0
DA:5234,0
DA:5235,0
DA:5238,60
LF:2798
LH:477
end_of_record
SF:/usr/include/c++/4.8/bits/alloc_traits.h
FN:253,_ZNSt16allocator_traitsISaISsEE12_S_constructISsISsEEENSt9enable_ifIXsrNS1_18__construct_helperIT_IDpT0_EEE5valueEvE4typeERS0_PS5_DpOS6_
FN:253,_ZNSt16allocator_traitsISaIPKN4Json12PathArgumentEEE12_S_constructIS3_IS3_EEENSt9enable_ifIXsrNS5_18__construct_helperIT_IDpT0_EEE5valueEvE4typeERS4_PS9_DpOSA_
FN:253,_ZNSt16allocator_traitsISaISt13_Rb_tree_nodeISt4pairIKN4Json5Value8CZStringES3_EEEE12_S_constructIS7_IRS6_EEENSt9enable_ifIXsrNS9_18__construct_helperIT_IDpT0_EEE5valueEvE4typeERS8_PSE_DpOSF_
FN:253,_ZNSt16allocator_traitsISaISt13_Rb_tree_nodeISt4pairIKN4Json5Value8CZStringES3_EEEE12_S_constructIS7_IRKS6_EEENSt9enable_ifIXsrNS9_18__construct_helperIT_IDpT0_EEE5valueEvE4typeERS8_PSF_DpOSG_
FN:253,_ZNSt16allocator_traitsISaISt13_Rb_tree_nodeISsEEE12_S_constructIS1_ISsEEENSt9enable_ifIXsrNS3_18__construct_helperIT_IDpT0_EEE5valueEvE4typeERS2_PS7_DpOS8_
FN:253,_ZNSt16allocator_traitsISaIN4Json12PathArgumentEEE12_S_constructIS1_IS1_EEENSt9enable_ifIXsrNS3_18__construct_helperIT_IDpT0_EEE5valueEvE4typeERS2_PS7_DpOS8_
FN:253,_ZNSt16allocator_traitsISaISsEE12_S_constructISsIRKSsEEENSt9enable_ifIXsrNS1_18__construct_helperIT_IDpT0_EEE5valueEvE4typeERS0_PS7_DpOS8_
FN:253,_ZNSt16allocator_traitsISaIN4Json12PathArgumentEEE12_S_constructIS1_IRKS1_EEENSt9enable_ifIXsrNS3_18__construct_helperIT_IDpT0_EEE5valueEvE4typeERS2_PS9_DpOSA_
FN:253,_ZNSt16allocator_traitsISaISt13_Rb_tree_nodeISt4pairIKN4Json5Value8CZStringES3_EEEE12_S_constructIS7_IRKSt21piecewise_construct_tSt5tupleIIRS5_EESE_IIEEEEENSt9enable_ifIXsrNS9_18__construct_helperIT_IDpT0_EEE5valueEvE4typeERS8_PSK_DpOSL_
FN:253,_ZNSt16allocator_traitsISaIN4Json9OurReader15StructuredErrorEEE12_S_constructIS2_IRKS2_EEENSt9enable_ifIXsrNS4_18__construct_helperIT_IDpT0_EEE5valueEvE4typeERS3_PSA_DpOSB_
FN:253,_ZNSt16allocator_traitsISaIN4Json6Reader15StructuredErrorEEE12_S_constructIS2_IRKS2_EEENSt9enable_ifIXsrNS4_18__construct_helperIT_IDpT0_EEE5valueEvE4typeERS3_PSA_DpOSB_
FN:280,_ZNSt16allocator_traitsISaIPKN4Json12PathArgumentEEE10_S_destroyIS3_EENSt9enable_ifIXsrNS5_16__destroy_helperIT_EE5valueEvE4typeERS4_PS9_
FN:280,_ZNSt16allocator_traitsISaIN4Json6Reader15StructuredErrorEEE10_S_destroyIS2_EENSt9enable_ifIXsrNS4_16__destroy_helperIT_EE5valueEvE4typeERS3_PS8_
FN:280,_ZNSt16allocator_traitsISaISsEE10_S_destroyISsEENSt9enable_ifIXsrNS1_16__destroy_helperIT_EE5valueEvE4typeERS0_PS5_
FN:280,_ZNSt16allocator_traitsISaIN4Json9OurReader15StructuredErrorEEE10_S_destroyIS2_EENSt9enable_ifIXsrNS4_16__destroy_helperIT_EE5valueEvE4typeERS3_PS8_
FN:280,_ZNSt16allocator_traitsISaIN4Json12PathArgumentEEE10_S_destroyIS1_EENSt9enable_ifIXsrNS3_16__destroy_helperIT_EE5valueEvE4typeERS2_PS7_
FN:305,_ZNSt16allocator_traitsISaIN4Json6Reader15StructuredErrorEEE11_S_max_sizeIKS3_EENSt9enable_ifIXsrNS4_16__maxsize_helperIT_EE5valueEmE4typeERS9_
FN:305,_ZNSt16allocator_traitsISaIPKN4Json12PathArgumentEEE11_S_max_sizeIKS4_EENSt9enable_ifIXsrNS5_16__maxsize_helperIT_EE5valueEmE4typeERSA_
FN:305,_ZNSt16allocator_traitsISaIN4Json9OurReader15StructuredErrorEEE11_S_max_sizeIKS3_EENSt9enable_ifIXsrNS4_16__maxsize_helperIT_EE5valueEmE4typeERS9_
FN:305,_ZNSt16allocator_traitsISaISsEE11_S_max_sizeIKS0_EENSt9enable_ifIXsrNS1_16__maxsize_helperIT_EE5valueEmE4typeERS6_
FN:305,_ZNSt16allocator_traitsISaIN4Json12PathArgumentEEE11_S_max_sizeIKS2_EENSt9enable_ifIXsrNS3_16__maxsize_helperIT_EE5valueEmE4typeERS8_
FN:391,_ZNSt16allocator_traitsISaISsEE9constructISsISsEEEDTcl12_S_constructfp_fp0_spcl7forwardIT0_Efp1_EEERS0_PT_DpOS3_
FN:391,_ZNSt16allocator_traitsISaIN4Json9OurReader15StructuredErrorEEE9constructIS2_IRKS2_EEEDTcl12_S_constructfp_fp0_spcl7forwardIT0_Efp1_EEERS3_PT_DpOS8_
FN:391,_ZNSt16allocator_traitsISaIPKN4Json12PathArgumentEEE9constructIS3_IS3_EEEDTcl12_S_constructfp_fp0_spcl7forwardIT0_Efp1_EEERS4_PT_DpOS7_
FN:391,_ZNSt16allocator_traitsISaISt13_Rb_tree_nodeISt4pairIKN4Json5Value8CZStringES3_EEEE9constructIS7_IRKS6_EEEDTcl12_S_constructfp_fp0_spcl7forwardIT0_Efp1_EEERS8_PT_DpOSD_
FN:391,_ZNSt16allocator_traitsISaIN4Json12PathArgumentEEE9constructIS1_IRKS1_EEEDTcl12_S_constructfp_fp0_spcl7forwardIT0_Efp1_EEERS2_PT_DpOS7_
FN:391,_ZNSt16allocator_traitsISaISt13_Rb_tree_nodeISt4pairIKN4Json5Value8CZStringES3_EEEE9constructIS7_IRS6_EEEDTcl12_S_constructfp_fp0_spcl7forwardIT0_Efp1_EEERS8_PT_DpOSC_
FN:391,_ZNSt16allocator_traitsISaIN4Json12PathArgumentEEE9constructIS1_IS1_EEEDTcl12_S_constructfp_fp0_spcl7forwardIT0_Efp1_EEERS2_PT_DpOS5_
FN:391,_ZNSt16allocator_traitsISaISsEE9constructISsIRKSsEEEDTcl12_S_constructfp_fp0_spcl7forwardIT0_Efp1_EEERS0_PT_DpOS5_
FN:391,_ZNSt16allocator_traitsISaISt13_Rb_tree_nodeISt4pairIKN4Json5Value8CZStringES3_EEEE9constructIS7_IRKSt21piecewise_construct_tSt5tupleIIRS5_EESE_IIEEEEEDTcl12_S_constructfp_fp0_spcl7forwardIT0_Efp1_EEERS8_PT_DpOSI_
FN:391,_ZNSt16allocator_traitsISaIN4Json6Reader15StructuredErrorEEE9constructIS2_IRKS2_EEEDTcl12_S_constructfp_fp0_spcl7forwardIT0_Efp1_EEERS3_PT_DpOS8_
FN:391,_ZNSt16allocator_traitsISaISt13_Rb_tree_nodeISsEEE9constructIS1_ISsEEEDTcl12_S_constructfp_fp0_spcl7forwardIT0_Efp1_EEERS2_PT_DpOS5_
FN:404,_ZNSt16allocator_traitsISaIPKN4Json12PathArgumentEEE7destroyIS3_EEvRS4_PT_
FN:404,_ZNSt16allocator_traitsISaIN4Json6Reader15StructuredErrorEEE7destroyIS2_EEvRS3_PT_
FN:404,_ZNSt16allocator_traitsISaIN4Json9OurReader15StructuredErrorEEE7destroyIS2_EEvRS3_PT_
FN:404,_ZNSt16allocator_traitsISaISsEE7destroyISsEEvRS0_PT_
FN:404,_ZNSt16allocator_traitsISaIN4Json12PathArgumentEEE7destroyIS1_EEvRS2_PT_
FN:415,_ZNSt16allocator_traitsISaIN4Json6Reader15StructuredErrorEEE8max_sizeERKS3_
FN:415,_ZNSt16allocator_traitsISaIN4Json9OurReader15StructuredErrorEEE8max_sizeERKS3_
FN:415,_ZNSt16allocator_traitsISaIPKN4Json12PathArgumentEEE8max_sizeERKS4_
FN:415,_ZNSt16allocator_traitsISaISsEE8max_sizeERKS0_
FN:415,_ZNSt16allocator_traitsISaIN4Json12PathArgumentEEE8max_sizeERKS2_
FNDA:38446,_ZNSt16allocator_traitsISaISt13_Rb_tree_nodeISt4pairIKN4Json5Value8CZStringES3_EEEE12_S_constructIS7_IRKS6_EEENSt9enable_ifIXsrNS9_18__construct_helperIT_IDpT0_EEE5valueEvE4typeERS8_PSF_DpOSG_
FNDA:36879,_ZNSt16allocator_traitsISaISt13_Rb_tree_nodeISt4pairIKN4Json5Value8CZStringES3_EEEE12_S_constructIS7_IRS6_EEENSt9enable_ifIXsrNS9_18__construct_helperIT_IDpT0_EEE5valueEvE4typeERS8_PSE_DpOSF_
FNDA:0,_ZNSt16allocator_traitsISaISt13_Rb_tree_nodeISsEEE12_S_constructIS1_ISsEEENSt9enable_ifIXsrNS3_18__construct_helperIT_IDpT0_EEE5valueEvE4typeERS2_PS7_DpOS8_
FNDA:0,_ZNSt16allocator_traitsISaISt13_Rb_tree_nodeISt4pairIKN4Json5Value8CZStringES3_EEEE12_S_constructIS7_IRKSt21piecewise_construct_tSt5tupleIIRS5_EESE_IIEEEEENSt9enable_ifIXsrNS9_18__construct_helperIT_IDpT0_EEE5valueEvE4typeERS8_PSK_DpOSL_
FNDA:0,_ZNSt16allocator_traitsISaIN4Json12PathArgumentEEE12_S_constructIS1_IS1_EEENSt9enable_ifIXsrNS3_18__construct_helperIT_IDpT0_EEE5valueEvE4typeERS2_PS7_DpOS8_
FNDA:0,_ZNSt16allocator_traitsISaIPKN4Json12PathArgumentEEE12_S_constructIS3_IS3_EEENSt9enable_ifIXsrNS5_18__construct_helperIT_IDpT0_EEE5valueEvE4typeERS4_PS9_DpOSA_
FNDA:25060,_ZNSt16allocator_traitsISaISsEE12_S_constructISsISsEEENSt9enable_ifIXsrNS1_18__construct_helperIT_IDpT0_EEE5valueEvE4typeERS0_PS5_DpOS6_
FNDA:2692,_ZNSt16allocator_traitsISaISsEE12_S_constructISsIRKSsEEENSt9enable_ifIXsrNS1_18__construct_helperIT_IDpT0_EEE5valueEvE4typeERS0_PS7_DpOS8_
FNDA:0,_ZNSt16allocator_traitsISaIN4Json12PathArgumentEEE12_S_constructIS1_IRKS1_EEENSt9enable_ifIXsrNS3_18__construct_helperIT_IDpT0_EEE5valueEvE4typeERS2_PS9_DpOSA_
FNDA:0,_ZNSt16allocator_traitsISaIN4Json9OurReader15StructuredErrorEEE12_S_constructIS2_IRKS2_EEENSt9enable_ifIXsrNS4_18__construct_helperIT_IDpT0_EEE5valueEvE4typeERS3_PSA_DpOSB_
FNDA:0,_ZNSt16allocator_traitsISaIN4Json6Reader15StructuredErrorEEE12_S_constructIS2_IRKS2_EEENSt9enable_ifIXsrNS4_18__construct_helperIT_IDpT0_EEE5valueEvE4typeERS3_PSA_DpOSB_
FNDA:0,_ZNSt16allocator_traitsISaIPKN4Json12PathArgumentEEE10_S_destroyIS3_EENSt9enable_ifIXsrNS5_16__destroy_helperIT_EE5valueEvE4typeERS4_PS9_
FNDA:0,_ZNSt16allocator_traitsISaISsEE10_S_destroyISsEENSt9enable_ifIXsrNS1_16__destroy_helperIT_EE5valueEvE4typeERS0_PS5_
FNDA:0,_ZNSt16allocator_traitsISaIN4Json12PathArgumentEEE10_S_destroyIS1_EENSt9enable_ifIXsrNS3_16__destroy_helperIT_EE5valueEvE4typeERS2_PS7_
FNDA:0,_ZNSt16allocator_traitsISaIN4Json9OurReader15StructuredErrorEEE10_S_destroyIS2_EENSt9enable_ifIXsrNS4_16__destroy_helperIT_EE5valueEvE4typeERS3_PS8_
FNDA:0,_ZNSt16allocator_traitsISaIN4Json6Reader15StructuredErrorEEE10_S_destroyIS2_EENSt9enable_ifIXsrNS4_16__destroy_helperIT_EE5valueEvE4typeERS3_PS8_
FNDA:0,_ZNSt16allocator_traitsISaIPKN4Json12PathArgumentEEE11_S_max_sizeIKS4_EENSt9enable_ifIXsrNS5_16__maxsize_helperIT_EE5valueEmE4typeERSA_
FNDA:0,_ZNSt16allocator_traitsISaIN4Json12PathArgumentEEE11_S_max_sizeIKS2_EENSt9enable_ifIXsrNS3_16__maxsize_helperIT_EE5valueEmE4typeERS8_
FNDA:0,_ZNSt16allocator_traitsISaIN4Json9OurReader15StructuredErrorEEE11_S_max_sizeIKS3_EENSt9enable_ifIXsrNS4_16__maxsize_helperIT_EE5valueEmE4typeERS9_
FNDA:0,_ZNSt16allocator_traitsISaIN4Json6Reader15StructuredErrorEEE11_S_max_sizeIKS3_EENSt9enable_ifIXsrNS4_16__maxsize_helperIT_EE5valueEmE4typeERS9_
FNDA:28360,_ZNSt16allocator_traitsISaISsEE11_S_max_sizeIKS0_EENSt9enable_ifIXsrNS1_16__maxsize_helperIT_EE5valueEmE4typeERS6_
FNDA:38446,_ZNSt16allocator_traitsISaISt13_Rb_tree_nodeISt4pairIKN4Json5Value8CZStringES3_EEEE9constructIS7_IRKS6_EEEDTcl12_S_constructfp_fp0_spcl7forwardIT0_Efp1_EEERS8_PT_DpOSD_
FNDA:36879,_ZNSt16allocator_traitsISaISt13_Rb_tree_nodeISt4pairIKN4Json5Value8CZStringES3_EEEE9constructIS7_IRS6_EEEDTcl12_S_constructfp_fp0_spcl7forwardIT0_Efp1_EEERS8_PT_DpOSC_
FNDA:0,_ZNSt16allocator_traitsISaISt13_Rb_tree_nodeISsEEE9constructIS1_ISsEEEDTcl12_S_constructfp_fp0_spcl7forwardIT0_Efp1_EEERS2_PT_DpOS5_
FNDA:0,_ZNSt16allocator_traitsISaISt13_Rb_tree_nodeISt4pairIKN4Json5Value8CZStringES3_EEEE9constructIS7_IRKSt21piecewise_construct_tSt5tupleIIRS5_EESE_IIEEEEEDTcl12_S_constructfp_fp0_spcl7forwardIT0_Efp1_EEERS8_PT_DpOSI_
FNDA:0,_ZNSt16allocator_traitsISaIN4Json12PathArgumentEEE9constructIS1_IS1_EEEDTcl12_S_constructfp_fp0_spcl7forwardIT0_Efp1_EEERS2_PT_DpOS5_
FNDA:0,_ZNSt16allocator_traitsISaIPKN4Json12PathArgumentEEE9constructIS3_IS3_EEEDTcl12_S_constructfp_fp0_spcl7forwardIT0_Efp1_EEERS4_PT_DpOS7_
FNDA:25060,_ZNSt16allocator_traitsISaISsEE9constructISsISsEEEDTcl12_S_constructfp_fp0_spcl7forwardIT0_Efp1_EEERS0_PT_DpOS3_
FNDA:2692,_ZNSt16allocator_traitsISaISsEE9constructISsIRKSsEEEDTcl12_S_constructfp_fp0_spcl7forwardIT0_Efp1_EEERS0_PT_DpOS5_
FNDA:0,_ZNSt16allocator_traitsISaIN4Json12PathArgumentEEE9constructIS1_IRKS1_EEEDTcl12_S_constructfp_fp0_spcl7forwardIT0_Efp1_EEERS2_PT_DpOS7_
FNDA:0,_ZNSt16allocator_traitsISaIN4Json9OurReader15StructuredErrorEEE9constructIS2_IRKS2_EEEDTcl12_S_constructfp_fp0_spcl7forwardIT0_Efp1_EEERS3_PT_DpOS8_
FNDA:0,_ZNSt16allocator_traitsISaIN4Json6Reader15StructuredErrorEEE9constructIS2_IRKS2_EEEDTcl12_S_constructfp_fp0_spcl7forwardIT0_Efp1_EEERS3_PT_DpOS8_
FNDA:0,_ZNSt16allocator_traitsISaIPKN4Json12PathArgumentEEE7destroyIS3_EEvRS4_PT_
FNDA:0,_ZNSt16allocator_traitsISaISsEE7destroyISsEEvRS0_PT_
FNDA:0,_ZNSt16allocator_traitsISaIN4Json12PathArgumentEEE7destroyIS1_EEvRS2_PT_
FNDA:0,_ZNSt16allocator_traitsISaIN4Json9OurReader15StructuredErrorEEE7destroyIS2_EEvRS3_PT_
FNDA:0,_ZNSt16allocator_traitsISaIN4Json6Reader15StructuredErrorEEE7destroyIS2_EEvRS3_PT_
FNDA:0,_ZNSt16allocator_traitsISaIPKN4Json12PathArgumentEEE8max_sizeERKS4_
FNDA:0,_ZNSt16allocator_traitsISaIN4Json12PathArgumentEEE8max_sizeERKS2_
FNDA:0,_ZNSt16allocator_traitsISaIN4Json9OurReader15StructuredErrorEEE8max_sizeERKS3_
FNDA:0,_ZNSt16allocator_traitsISaIN4Json6Reader15StructuredErrorEEE8max_sizeERKS3_
FNDA:28360,_ZNSt16allocator_traitsISaISsEE8max_sizeERKS0_
FNF:42
FNH:10
DA:253,103077
DA:254,103077
DA:280,0
DA:281,0
DA:305,28360
DA:306,28360
DA:391,103077
DA:393,103077
DA:404,0
DA:405,0
DA:415,28360
DA:416,28360
LF:12
LH:8
end_of_record
SF:/usr/include/c++/4.8/bits/allocator.h
FN:113,_ZNSaISsEC2Ev
FN:113,_ZNSaISt13_Rb_tree_nodeISt4pairIKN4Json5Value8CZStringES2_EEEC2Ev
FN:113,_ZNSaISt13_Rb_tree_nodeISsEEC2Ev
FN:113,_ZNSaIPN4Json5ValueEEC2Ev
FN:113,_ZNSaIN4Json9OurReader15StructuredErrorEEC2Ev
FN:113,_ZNSaIPKN4Json12PathArgumentEEC2Ev
FN:113,_ZNSaIN4Json6Reader15StructuredErrorEEC2Ev
FN:113,_ZNSaIN4Json12PathArgumentEEC2Ev
FN:113,_ZNSaIN4Json9OurReader9ErrorInfoEEC2Ev
FN:113,_ZNSaIN4Json6Reader9ErrorInfoEEC2Ev
FN:115,_ZNSaISsEC2ERKS_
FN:115,_ZNSaISt13_Rb_tree_nodeISt4pairIKN4Json5Value8CZStringES2_EEEC2ERKS7_
FN:115,_ZNSaIPN4Json5ValueEEC2ERKS2_
FN:119,_ZNSaIPN4Json9OurReader9ErrorInfoEEC2IS1_EERKSaIT_E
FN:119,_ZNSaIPPN4Json5ValueEEC2IS1_EERKSaIT_E
FN:119,_ZNSaIPN4Json6Reader9ErrorInfoEEC2IS1_EERKSaIT_E
FN:121,_ZNSaISt13_Rb_tree_nodeISsEED2Ev
FN:121,_ZNSaIN4Json9OurReader15StructuredErrorEED2Ev
FN:121,_ZNSaIN4Json6Reader9ErrorInfoEED2Ev
FN:121,_ZNSaIPPN4Json5ValueEED2Ev
FN:121,_ZNSaISsED2Ev
FN:121,_ZNSaIN4Json9OurReader9ErrorInfoEED2Ev
FN:121,_ZNSaIPN4Json9OurReader9ErrorInfoEED2Ev
FN:121,_ZNSaIN4Json12PathArgumentEED2Ev
FN:121,_ZNSaIN4Json6Reader15StructuredErrorEED2Ev
FN:121,_ZNSaIPN4Json5ValueEED2Ev
FN:121,_ZNSaIPKN4Json12PathArgumentEED2Ev
FN:121,_ZNSaIPN4Json6Reader9ErrorInfoEED2Ev
FN:121,_ZNSaISt13_Rb_tree_nodeISt4pairIKN4Json5Value8CZStringES2_EEED2Ev
FN:133,_ZSteqIcEbRKSaIT_ES3_
FNDA:0,_ZNSaIPKN4Json12PathArgumentEEC2Ev
FNDA:0,_ZNSaIN4Json12PathArgumentEEC2Ev
FNDA:9064,_ZNSaISsEC2Ev
FNDA:13208,_ZNSaISt13_Rb_tree_nodeISt4pairIKN4Json5Value8CZStringES2_EEEC2Ev
FNDA:0,_ZNSaISt13_Rb_tree_nodeISsEEC2Ev
FNDA:0,_ZNSaIN4Json9OurReader15StructuredErrorEEC2Ev
FNDA:0,_ZNSaIN4Json9OurReader9ErrorInfoEEC2Ev
FNDA:0,_ZNSaIN4Json6Reader15StructuredErrorEEC2Ev
FNDA:403,_ZNSaIN4Json6Reader9ErrorInfoEEC2Ev
FNDA:403,_ZNSaIPN4Json5ValueEEC2Ev
FNDA:403,_ZNSaIPN4Json5ValueEEC2ERKS2_
FNDA:13731,_ZNSaISt13_Rb_tree_nodeISt4pairIKN4Json5Value8CZStringES2_EEEC2ERKS7_
FNDA:9048,_ZNSaISsEC2ERKS_
FNDA:0,_ZNSaIPN4Json9OurReader9ErrorInfoEEC2IS1_EERKSaIT_E
FNDA:806,_ZNSaIPN4Json6Reader9ErrorInfoEEC2IS1_EERKSaIT_E
FNDA:1612,_ZNSaIPPN4Json5ValueEEC2IS1_EERKSaIT_E
FNDA:0,_ZNSaIPN4Json9OurReader9ErrorInfoEED2Ev
FNDA:806,_ZNSaIPN4Json6Reader9ErrorInfoEED2Ev
FNDA:1612,_ZNSaIPPN4Json5ValueEED2Ev
FNDA:0,_ZNSaIPKN4Json12PathArgumentEED2Ev
FNDA:0,_ZNSaIN4Json12PathArgumentEED2Ev
FNDA:0,_ZNSaIN4Json9OurReader15StructuredErrorEED2Ev
FNDA:0,_ZNSaIN4Json9OurReader9ErrorInfoEED2Ev
FNDA:0,_ZNSaIN4Json6Reader15StructuredErrorEED2Ev
FNDA:403,_ZNSaIN4Json6Reader9ErrorInfoEED2Ev
FNDA:806,_ZNSaIPN4Json5ValueEED2Ev
FNDA:19148,_ZNSaISsED2Ev
FNDA:26939,_ZNSaISt13_Rb_tree_nodeISt4pairIKN4Json5Value8CZStringES2_EEED2Ev
FNDA:20,_ZNSaISt13_Rb_tree_nodeISsEED2Ev
FNDA:835,_ZSteqIcEbRKSaIT_ES3_
FNF:30
FNH:17
DA:113,23078
DA:115,23182
DA:116,23182
DA:119,2418
DA:121,49734
DA:133,835
DA:134,835
LF:7
LH:7
end_of_record
SF:/usr/include/c++/4.8/bits/basic_ios.h
FN:46,_ZSt13__check_facetISt5ctypeIcEERKT_PS3_
FNDA:0,_ZSt13__check_facetISt5ctypeIcEERKT_PS3_
FNF:1
FNH:0
DA:46,0
DA:48,0
DA:49,0
DA:50,0
LF:4
LH:0
end_of_record
SF:/usr/include/c++/4.8/bits/basic_string.h
FN:272,_ZNSs12_Alloc_hiderC2ERKS_
FN:272,_ZNSs12_Alloc_hiderD2Ev
FN:1721,_ZNSs16_S_construct_auxIPKcEEPcT_S3_RKSaIcESt12__false_type
FN:1721,_ZNSs16_S_construct_auxIPcEES0_T_S1_RKSaIcESt12__false_type
FN:1743,_ZNSs12_S_constructIPcEES0_T_S1_RKSaIcE
FN:1743,_ZNSs12_S_constructIPKcEEPcT_S3_RKSaIcE
FN:2454,_ZStplIcSt11char_traitsIcESaIcEESbIT_T0_T1_EPKS3_OS6_
FN:2466,_ZStplIcSt11char_traitsIcESaIcEESbIT_T0_T1_EOS6_PKS3_
FN:2519,_ZSteqIcSt11char_traitsIcESaIcEEbRKSbIT_T0_T1_EPKS3_
FN:2569,_ZStltIcSt11char_traitsIcESaIcEEbRKSbIT_T0_T1_ES8_
FN:2717,_ZSt4swapIcSt11char_traitsIcESaIcEEvRSbIT_T0_T1_ES7_
FNDA:0,_ZNSs12_Alloc_hiderC2ERKS_
FNDA:0,_ZNSs12_Alloc_hiderD2Ev
FNDA:0,_ZNSs16_S_construct_auxIPcEES0_T_S1_RKSaIcESt12__false_type
FNDA:403,_ZNSs16_S_construct_auxIPKcEEPcT_S3_RKSaIcESt12__false_type
FNDA:0,_ZNSs12_S_constructIPcEES0_T_S1_RKSaIcE
FNDA:403,_ZNSs12_S_constructIPKcEEPcT_S3_RKSaIcE
FNDA:16,_ZStplIcSt11char_traitsIcESaIcEESbIT_T0_T1_EPKS3_OS6_
FNDA:0,_ZStplIcSt11char_traitsIcESaIcEESbIT_T0_T1_EOS6_PKS3_
FNDA:48,_ZSteqIcSt11char_traitsIcESaIcEEbRKSbIT_T0_T1_EPKS3_
FNDA:1440,_ZStltIcSt11char_traitsIcESaIcEEbRKSbIT_T0_T1_ES8_
FNDA:403,_ZSt4swapIcSt11char_traitsIcESaIcEEvRSbIT_T0_T1_ES7_
FNF:11
FNH:6
DA:272,0
DA:1721,403
DA:1725,403
DA:1743,403
DA:1746,403
DA:2454,16
DA:2456,16
DA:2466,0
DA:2468,0
DA:2519,48
DA:2521,48
DA:2569,1440
DA:2571,1440
DA:2717,403
DA:2719,403
LF:15
LH:12
end_of_record
SF:/usr/include/c++/4.8/bits/basic_string.tcc
FN:123,_ZNSs12_S_constructIPKcEEPcT_S3_RKSaIcESt20forward_iterator_tag
FN:123,_ZNSs12_S_constructIPcEES0_T_S1_RKSaIcESt20forward_iterator_tag
FN:227,_ZNSsC2IPKcEET_S2_RKSaIcE
FN:227,_ZNSsC2IPcEET_S1_RKSaIcE
FN:692,_ZStplIcSt11char_traitsIcESaIcEESbIT_T0_T1_EPKS3_RKS6_
FNDA:0,_ZNSs12_S_constructIPcEES0_T_S1_RKSaIcESt20forward_iterator_tag
FNDA:293354,_ZNSs12_S_constructIPKcEEPcT_S3_RKSaIcESt20forward_iterator_tag
FNDA:0,_ZNSsC2IPcEET_S1_RKSaIcE
FNDA:403,_ZNSsC2IPKcEET_S2_RKSaIcE
FNDA:24426,_ZStplIcSt11char_traitsIcESaIcEESbIT_T0_T1_EPKS3_RKS6_
FNF:5
FNH:3
DA:123,293354
DA:128,293354
DA:129,18456
DA:132,274898
DA:133,0
DA:136,274898
DA:138,274898
DA:140,274897
DA:141,=====
DA:143,=====
DA:144,=====
DA:146,274897
DA:147,274897
DA:227,403
DA:229,403
DA:230,403
DA:692,24426
DA:698,24426
DA:699,24426
DA:700,24426
DA:701,24426
DA:702,24426
DA:703,24426
LF:23
LH:19
end_of_record
SF:/usr/include/c++/4.8/bits/char_traits.h
FN:242,_ZNSt11char_traitsIcE6assignERcRKc
FN:254,_ZNSt11char_traitsIcE7compareEPKcS2_m
FN:258,_ZNSt11char_traitsIcE6lengthEPKc
FN:270,_ZNSt11char_traitsIcE4copyEPcPKcm
FNDA:0,_ZNSt11char_traitsIcE6assignERcRKc
FNDA:0,_ZNSt11char_traitsIcE7compareEPKcS2_m
FNDA:24426,_ZNSt11char_traitsIcE6lengthEPKc
FNDA:0,_ZNSt11char_traitsIcE4copyEPcPKcm
FNF:4
FNH:1
DA:242,0
DA:243,0
DA:254,0
DA:255,0
DA:258,24426
DA:259,24426
DA:270,0
DA:271,0
LF:8
LH:2
end_of_record
SF:/usr/include/c++/4.8/bits/deque.tcc
FN:131,_ZNSt5dequeIPN4Json5ValueESaIS2_EE12emplace_backIIS2_EEEvDpOT_
FN:307,_ZNSt5dequeIN4Json6Reader9ErrorInfoESaIS2_EE17_M_default_appendEm
FN:307,_ZNSt5dequeIN4Json9OurReader9ErrorInfoESaIS2_EE17_M_default_appendEm
FN:438,_ZNSt5dequeIPN4Json5ValueESaIS2_EE16_M_push_back_auxIIS2_EEEvDpOT_
FN:438,_ZNSt5dequeIN4Json9OurReader9ErrorInfoESaIS2_EE16_M_push_back_auxIIRKS2_EEEvDpOT_
FN:438,_ZNSt5dequeIN4Json6Reader9ErrorInfoESaIS2_EE16_M_push_back_auxIIRKS2_EEEvDpOT_
FN:504,_ZNSt5dequeIPN4Json5ValueESaIS2_EE15_M_pop_back_auxEv
FN:801,_ZNSt5dequeIN4Json9OurReader9ErrorInfoESaIS2_EE19_M_destroy_data_auxESt15_Deque_iteratorIS2_RS2_PS2_ES8_
FN:801,_ZNSt5dequeIN4Json6Reader9ErrorInfoESaIS2_EE19_M_destroy_data_auxESt15_Deque_iteratorIS2_RS2_PS2_ES8_
FN:848,_ZNSt5dequeIN4Json6Reader9ErrorInfoESaIS2_EE23_M_new_elements_at_backEm
FN:848,_ZNSt5dequeIN4Json9OurReader9ErrorInfoESaIS2_EE23_M_new_elements_at_backEm
FN:873,_ZNSt5dequeIN4Json6Reader9ErrorInfoESaIS2_EE17_M_reallocate_mapEmb
FN:873,_ZNSt5dequeIN4Json9OurReader9ErrorInfoESaIS2_EE17_M_reallocate_mapEmb
FN:873,_ZNSt5dequeIPN4Json5ValueESaIS2_EE17_M_reallocate_mapEmb
FNDA:35299,_ZNSt5dequeIPN4Json5ValueESaIS2_EE12emplace_backIIS2_EEEvDpOT_
FNDA:0,_ZNSt5dequeIN4Json9OurReader9ErrorInfoESaIS2_EE17_M_default_appendEm
FNDA:0,_ZNSt5dequeIN4Json6Reader9ErrorInfoESaIS2_EE17_M_default_appendEm
FNDA:0,_ZNSt5dequeIPN4Json5ValueESaIS2_EE16_M_push_back_auxIIS2_EEEvDpOT_
FNDA:0,_ZNSt5dequeIN4Json9OurReader9ErrorInfoESaIS2_EE16_M_push_back_auxIIRKS2_EEEvDpOT_
FNDA:0,_ZNSt5dequeIN4Json6Reader9ErrorInfoESaIS2_EE16_M_push_back_auxIIRKS2_EEEvDpOT_
FNDA:0,_ZNSt5dequeIPN4Json5ValueESaIS2_EE15_M_pop_back_auxEv
FNDA:0,_ZNSt5dequeIN4Json9OurReader9ErrorInfoESaIS2_EE19_M_destroy_data_auxESt15_Deque_iteratorIS2_RS2_PS2_ES8_
FNDA:806,_ZNSt5dequeIN4Json6Reader9ErrorInfoESaIS2_EE19_M_destroy_data_auxESt15_Deque_iteratorIS2_RS2_PS2_ES8_
FNDA:0,_ZNSt5dequeIN4Json9OurReader9ErrorInfoESaIS2_EE23_M_new_elements_at_backEm
FNDA:0,_ZNSt5dequeIN4Json6Reader9ErrorInfoESaIS2_EE23_M_new_elements_at_backEm
FNDA:0,_ZNSt5dequeIPN4Json5ValueESaIS2_EE17_M_reallocate_mapEmb
FNDA:0,_ZNSt5dequeIN4Json9OurReader9ErrorInfoESaIS2_EE17_M_reallocate_mapEmb
FNDA:0,_ZNSt5dequeIN4Json6Reader9ErrorInfoESaIS2_EE17_M_reallocate_mapEmb
FNF:14
FNH:2
DA:131,35299
DA:134,70598
DA:135,35299
DA:137,35299
DA:138,35299
DA:139,35299
DA:142,0
DA:143,35299
DA:307,0
DA:310,0
DA:312,0
DA:315,0
DA:317,0
DA:318,0
DA:320,=====
DA:322,=====
DA:323,=====
DA:324,=====
DA:327,0
DA:438,0
DA:446,0
DA:447,0
DA:451,0
DA:452,0
DA:456,0
DA:458,0
DA:460,=====
DA:462,=====
DA:463,=====
DA:465,0
DA:504,0
DA:507,0
DA:508,0
DA:509,0
DA:510,0
DA:511,0
DA:801,806
DA:804,806
DA:806,0
DA:807,0
DA:809,806
DA:811,0
DA:812,0
DA:813,0
DA:814,0
DA:817,806
DA:818,806
DA:819,806
DA:848,0
DA:851,0
DA:852,0
DA:854,0
DA:855,0
DA:856,0
DA:860,0
DA:861,0
DA:863,=====
DA:865,=====
DA:866,=====
DA:867,=====
DA:869,0
DA:873,0
DA:877,0
DA:878,0
DA:881,0
DA:883,0
DA:885,0
DA:886,0
DA:887,0
DA:889,0
DA:891,0
DA:893,0
DA:899,0
DA:901,0
DA:902,0
DA:903,0
DA:904,0
DA:906,0
DA:907,0
DA:909,0
DA:910,0
DA:913,0
DA:914,0
DA:915,0
LF:84
LH:13
end_of_record
SF:/usr/include/c++/4.8/bits/ios_base.h
FN:77,_ZStanSt13_Ios_FmtflagsS_
FN:81,_ZStorSt13_Ios_FmtflagsS_
FN:89,_ZStcoSt13_Ios_Fmtflags
FN:93,_ZStoRRSt13_Ios_FmtflagsS_
FN:97,_ZStaNRSt13_Ios_FmtflagsS_
FN:119,_ZStanSt13_Ios_OpenmodeS_
FN:123,_ZStorSt13_Ios_OpenmodeS_
FN:159,_ZStanSt12_Ios_IostateS_
FN:163,_ZStorSt12_Ios_IostateS_
FN:584,_ZNSt8ios_base4setfESt13_Ios_Fmtflags
FN:601,_ZNSt8ios_base4setfESt13_Ios_FmtflagsS0_
FN:659,_ZNSt8ios_base5widthEl
FN:881,_ZSt9uppercaseRSt8ios_base
FN:947,_ZSt3hexRSt8ios_base
FNDA:0,_ZStanSt13_Ios_FmtflagsS_
FNDA:0,_ZStorSt13_Ios_FmtflagsS_
FNDA:0,_ZStcoSt13_Ios_Fmtflags
FNDA:0,_ZStoRRSt13_Ios_FmtflagsS_
FNDA:0,_ZStaNRSt13_Ios_FmtflagsS_
FNDA:0,_ZStanSt13_Ios_OpenmodeS_
FNDA:0,_ZStorSt13_Ios_OpenmodeS_
FNDA:0,_ZStanSt12_Ios_IostateS_
FNDA:0,_ZStorSt12_Ios_IostateS_
FNDA:0,_ZNSt8ios_base4setfESt13_Ios_Fmtflags
FNDA:0,_ZNSt8ios_base4setfESt13_Ios_FmtflagsS0_
FNDA:0,_ZNSt8ios_base5widthEl
FNDA:0,_ZSt9uppercaseRSt8ios_base
FNDA:0,_ZSt3hexRSt8ios_base
FNF:14
FNH:0
DA:77,0
DA:78,0
DA:81,0
DA:82,0
DA:89,0
DA:90,0
DA:93,0
DA:94,0
DA:97,0
DA:98,0
DA:119,0
DA:120,0
DA:123,0
DA:124,0
DA:159,0
DA:160,0
DA:163,0
DA:164,0
DA:584,0
DA:586,0
DA:587,0
DA:588,0
DA:601,0
DA:603,0
DA:604,0
DA:605,0
DA:606,0
DA:659,0
DA:661,0
DA:662,0
DA:663,0
DA:881,0
DA:883,0
DA:884,0
DA:947,0
DA:949,0
DA:950,0
LF:37
LH:0
end_of_record
SF:/usr/include/c++/4.8/bits/locale_facets.h
FN:865,_ZNKSt5ctypeIcE5widenEc
FNDA:0,_ZNKSt5ctypeIcE5widenEc
FNF:1
FNH:0
DA:865,0
DA:867,0
DA:868,0
DA:869,0
DA:870,0
LF:5
LH:0
end_of_record
SF:/usr/include/c++/4.8/bits/move.h
FN:47,_ZSt11__addressofISsEPT_RS0_
FN:47,_ZSt11__addressofIN4Json6Reader15StructuredErrorEEPT_RS3_
FN:47,_ZSt11__addressofIN4Json6Reader9ErrorInfoEEPT_RS3_
FN:47,_ZSt11__addressofISt4pairIKN4Json5Value8CZStringES2_EEPT_RS6_
FN:47,_ZSt11__addressofIN4Json9OurReader15StructuredErrorEEPT_RS3_
FN:47,_ZSt11__addressofIN4Json12PathArgumentEEPT_RS2_
FN:47,_ZSt11__addressofIN4Json9OurReader9ErrorInfoEEPT_RS3_
FN:76,_ZSt7forwardIbEOT_RNSt16remove_referenceIS0_E4typeE
FN:76,_ZSt7forwardIRKN4Json9OurReader15StructuredErrorEEOT_RNSt16remove_referenceIS5_E4typeE
FN:76,_ZSt7forwardIRKSt21piecewise_construct_tEOT_RNSt16remove_referenceIS3_E4typeE
FN:76,_ZSt7forwardIRPSt13_Rb_tree_nodeISsEEOT_RNSt16remove_referenceIS4_E4typeE
FN:76,_ZSt7forwardIRKSt4pairIKN4Json5Value8CZStringES2_EEOT_RNSt16remove_referenceIS8_E4typeE
FN:76,_ZSt7forwardIRPSt18_Rb_tree_node_baseEOT_RNSt16remove_referenceIS3_E4typeE
FN:76,_ZSt7forwardIRKSsEOT_RNSt16remove_referenceIS2_E4typeE
FN:76,_ZSt7forwardIRPN4Json12StreamWriterEEOT_RNSt16remove_referenceIS4_E4typeE
FN:76,_ZSt7forwardIRSt4pairIKN4Json5Value8CZStringES2_EEOT_RNSt16remove_referenceIS7_E4typeE
FN:76,_ZSt7forwardISt5tupleIIEEEOT_RNSt16remove_referenceIS2_E4typeE
FN:76,_ZSt7forwardIN4Json12PathArgumentEEOT_RNSt16remove_referenceIS2_E4typeE
FN:76,_ZSt7forwardIN4Json9OurReader15StructuredErrorEEOT_RNSt16remove_referenceIS3_E4typeE
FN:76,_ZSt7forwardIRKN4Json6Reader9ErrorInfoEEOT_RNSt16remove_referenceIS5_E4typeE
FN:76,_ZSt7forwardIRN4Json5Value8CZStringEEOT_RNSt16remove_referenceIS4_E4typeE
FN:76,_ZSt7forwardIRKN4Json5Value8CZStringEEOT_RNSt16remove_referenceIS5_E4typeE
FN:76,_ZSt7forwardIRKN4Json6Reader15StructuredErrorEEOT_RNSt16remove_referenceIS5_E4typeE
FN:76,_ZSt7forwardISt17_Rb_tree_iteratorISt4pairIKN4Json5Value8CZStringES3_EEEOT_RNSt16remove_referenceIS8_E4typeE
FN:76,_ZSt7forwardISt14default_deleteIN4Json10CharReaderEEEOT_RNSt16remove_referenceIS4_E4typeE
FN:76,_ZSt7forwardISt5tupleIIRKN4Json5Value8CZStringEEEEOT_RNSt16remove_referenceIS7_E4typeE
FN:76,_ZSt7forwardIN4Json6Reader15StructuredErrorEEOT_RNSt16remove_referenceIS3_E4typeE
FN:76,_ZSt7forwardIPN4Json5ValueEEOT_RNSt16remove_referenceIS3_E4typeE
FN:76,_ZSt7forwardIRKN4Json12PathArgumentEEOT_RNSt16remove_referenceIS4_E4typeE
FN:76,_ZSt7forwardIRSt17_Rb_tree_iteratorISsEEOT_RNSt16remove_referenceIS3_E4typeE
FN:76,_ZSt7forwardIRPSt13_Rb_tree_nodeISt4pairIKN4Json5Value8CZStringES3_EEEOT_RNSt16remove_referenceISA_E4typeE
FN:76,_ZSt7forwardIPKN4Json12PathArgumentEEOT_RNSt16remove_referenceIS4_E4typeE
FN:76,_ZSt7forwardIRPN4Json10CharReaderEEOT_RNSt16remove_referenceIS4_E4typeE
FN:76,_ZSt7forwardISt17_Rb_tree_iteratorISsEEOT_RNSt16remove_referenceIS2_E4typeE
FN:76,_ZSt7forwardIRbEOT_RNSt16remove_referenceIS1_E4typeE
FN:76,_ZSt7forwardIRKN4Json9OurReader9ErrorInfoEEOT_RNSt16remove_referenceIS5_E4typeE
FN:76,_ZSt7forwardISsEOT_RNSt16remove_referenceIS0_E4typeE
FN:76,_ZSt7forwardISt14default_deleteIN4Json12StreamWriterEEEOT_RNSt16remove_referenceIS4_E4typeE
FN:101,_ZSt4moveIRSaIPN4Json5ValueEEEONSt16remove_referenceIT_E4typeEOS6_
FN:101,_ZSt4moveIRjEONSt16remove_referenceIT_E4typeEOS2_
FN:101,_ZSt4moveIRPKcEONSt16remove_referenceIT_E4typeEOS4_
FN:101,_ZSt4moveIRPSsEONSt16remove_referenceIT_E4typeEOS3_
FN:101,_ZSt4moveIRN4Json9OurReader15StructuredErrorEEONSt16remove_referenceIT_E4typeEOS5_
FN:101,_ZSt4moveIRSaISsEEONSt16remove_referenceIT_E4typeEOS3_
FN:101,_ZSt4moveIRSt15_Deque_iteratorIPN4Json5ValueERS3_PS3_EEONSt16remove_referenceIT_E4typeEOS9_
FN:101,_ZSt4moveIRPN4Json5Value11CommentInfoEEONSt16remove_referenceIT_E4typeEOS6_
FN:101,_ZSt4moveIRPKN4Json12PathArgumentEEONSt16remove_referenceIT_E4typeEOS6_
FN:101,_ZSt4moveIRPPPN4Json5ValueEEONSt16remove_referenceIT_E4typeEOS7_
FN:101,_ZSt4moveIRSsEONSt16remove_referenceIT_E4typeEOS2_
FN:101,_ZSt4moveIRSt6vectorISsSaISsEEEONSt16remove_referenceIT_E4typeEOS5_
FN:101,_ZSt4moveIRN4Json5Value11ValueHolderEEONSt16remove_referenceIT_E4typeEOS5_
FN:101,_ZSt4moveIRPN4Json5ValueEEONSt16remove_referenceIT_E4typeEOS5_
FN:101,_ZSt4moveIRN4Json6Reader15StructuredErrorEEONSt16remove_referenceIT_E4typeEOS5_
FN:101,_ZSt4moveIRN4Json12PathArgumentEEONSt16remove_referenceIT_E4typeEOS4_
FN:101,_ZSt4moveIRlEONSt16remove_referenceIT_E4typeEOS2_
FN:101,_ZSt4moveIRmEONSt16remove_referenceIT_E4typeEOS2_
FN:101,_ZSt4moveIRSt11_Tuple_implILm1EIEEEONSt16remove_referenceIT_E4typeEOS4_
FN:101,_ZSt4moveIRSt5dequeIPN4Json5ValueESaIS3_EEEONSt16remove_referenceIT_E4typeEOS8_
FN:166,_ZSt4swapIPN4Json5Value11CommentInfoEEvRT_S5_
FN:166,_ZSt4swapISt15_Deque_iteratorIPN4Json5ValueERS3_PS3_EEvRT_S8_
FN:166,_ZSt4swapIPKcEvRT_S3_
FN:166,_ZSt4swapIPSsEvRT_S2_
FN:166,_ZSt4swapIlEvRT_S1_
FN:166,_ZSt4swapIPPPN4Json5ValueEEvRT_S6_
FN:166,_ZSt4swapIN4Json5Value11ValueHolderEEvRT_S4_
FN:166,_ZSt4swapImEvRT_S1_
FN:166,_ZSt4swapIjEvRT_S1_
FNDA:0,_ZSt11__addressofIN4Json9OurReader9ErrorInfoEEPT_RS3_
FNDA:31,_ZSt11__addressofIN4Json6Reader9ErrorInfoEEPT_RS3_
FNDA:0,_ZSt11__addressofIN4Json12PathArgumentEEPT_RS2_
FNDA:0,_ZSt11__addressofIN4Json9OurReader15StructuredErrorEEPT_RS3_
FNDA:0,_ZSt11__addressofIN4Json6Reader15StructuredErrorEEPT_RS3_
FNDA:255732,_ZSt11__addressofISsEPT_RS0_
FNDA:0,_ZSt11__addressofISt4pairIKN4Json5Value8CZStringES2_EEPT_RS6_
FNDA:0,_ZSt7forwardIRKN4Json5Value8CZStringEEOT_RNSt16remove_referenceIS5_E4typeE
FNDA:0,_ZSt7forwardIN4Json9OurReader15StructuredErrorEEOT_RNSt16remove_referenceIS3_E4typeE
FNDA:0,_ZSt7forwardIN4Json6Reader15StructuredErrorEEOT_RNSt16remove_referenceIS3_E4typeE
FNDA:192230,_ZSt7forwardIRKSt4pairIKN4Json5Value8CZStringES2_EEOT_RNSt16remove_referenceIS8_E4typeE
FNDA:25546,_ZSt7forwardIRPSt13_Rb_tree_nodeISt4pairIKN4Json5Value8CZStringES3_EEEOT_RNSt16remove_referenceISA_E4typeE
FNDA:0,_ZSt7forwardISt17_Rb_tree_iteratorISt4pairIKN4Json5Value8CZStringES3_EEEOT_RNSt16remove_referenceIS8_E4typeE
FNDA:24242,_ZSt7forwardIRPSt18_Rb_tree_node_baseEOT_RNSt16remove_referenceIS3_E4typeE
FNDA:0,_ZSt7forwardIRPSt13_Rb_tree_nodeISsEEOT_RNSt16remove_referenceIS4_E4typeE
FNDA:70598,_ZSt7forwardIPN4Json5ValueEEOT_RNSt16remove_referenceIS3_E4typeE
FNDA:0,_ZSt7forwardIN4Json12PathArgumentEEOT_RNSt16remove_referenceIS2_E4typeE
FNDA:0,_ZSt7forwardIPKN4Json12PathArgumentEEOT_RNSt16remove_referenceIS4_E4typeE
FNDA:1632,_ZSt7forwardISt5tupleIIEEEOT_RNSt16remove_referenceIS2_E4typeE
FNDA:0,_ZSt7forwardISt5tupleIIRKN4Json5Value8CZStringEEEEOT_RNSt16remove_referenceIS7_E4typeE
FNDA:1632,_ZSt7forwardIRKSt21piecewise_construct_tEOT_RNSt16remove_referenceIS3_E4typeE
FNDA:0,_ZSt7forwardIbEOT_RNSt16remove_referenceIS0_E4typeE
FNDA:0,_ZSt7forwardISt17_Rb_tree_iteratorISsEEOT_RNSt16remove_referenceIS2_E4typeE
FNDA:199352,_ZSt7forwardISsEOT_RNSt16remove_referenceIS0_E4typeE
FNDA:0,_ZSt7forwardIRKN4Json9OurReader9ErrorInfoEEOT_RNSt16remove_referenceIS5_E4typeE
FNDA:31,_ZSt7forwardIRKN4Json6Reader9ErrorInfoEEOT_RNSt16remove_referenceIS5_E4typeE
FNDA:0,_ZSt7forwardISt14default_deleteIN4Json12StreamWriterEEEOT_RNSt16remove_referenceIS4_E4typeE
FNDA:0,_ZSt7forwardIRPN4Json12StreamWriterEEOT_RNSt16remove_referenceIS4_E4typeE
FNDA:11072,_ZSt7forwardIRKSsEOT_RNSt16remove_referenceIS2_E4typeE
FNDA:0,_ZSt7forwardIRKN4Json12PathArgumentEEOT_RNSt16remove_referenceIS4_E4typeE
FNDA:295032,_ZSt7forwardIRSt4pairIKN4Json5Value8CZStringES2_EEOT_RNSt16remove_referenceIS7_E4typeE
FNDA:0,_ZSt7forwardISt14default_deleteIN4Json10CharReaderEEEOT_RNSt16remove_referenceIS4_E4typeE
FNDA:0,_ZSt7forwardIRPN4Json10CharReaderEEOT_RNSt16remove_referenceIS4_E4typeE
FNDA:0,_ZSt7forwardIRbEOT_RNSt16remove_referenceIS1_E4typeE
FNDA:0,_ZSt7forwardIRSt17_Rb_tree_iteratorISsEEOT_RNSt16remove_referenceIS3_E4typeE
FNDA:0,_ZSt7forwardIRKN4Json9OurReader15StructuredErrorEEOT_RNSt16remove_referenceIS5_E4typeE
FNDA:0,_ZSt7forwardIRKN4Json6Reader15StructuredErrorEEOT_RNSt16remove_referenceIS5_E4typeE
FNDA:36879,_ZSt7forwardIRN4Json5Value8CZStringEEOT_RNSt16remove_referenceIS4_E4typeE
FNDA:272,_ZSt4moveIRSt11_Tuple_implILm1EIEEEONSt16remove_referenceIT_E4typeEOS4_
FNDA:0,_ZSt4moveIRN4Json9OurReader15StructuredErrorEEONSt16remove_referenceIT_E4typeEOS5_
FNDA:0,_ZSt4moveIRN4Json6Reader15StructuredErrorEEONSt16remove_referenceIT_E4typeEOS5_
FNDA:81432,_ZSt4moveIRPSsEONSt16remove_referenceIT_E4typeEOS3_
FNDA:1209,_ZSt4moveIRmEONSt16remove_referenceIT_E4typeEOS2_
FNDA:1209,_ZSt4moveIRPPPN4Json5ValueEEONSt16remove_referenceIT_E4typeEOS7_
FNDA:2418,_ZSt4moveIRSt15_Deque_iteratorIPN4Json5ValueERS3_PS3_EEONSt16remove_referenceIT_E4typeEOS9_
FNDA:806,_ZSt4moveIRSaIPN4Json5ValueEEEONSt16remove_referenceIT_E4typeEOS6_
FNDA:18096,_ZSt4moveIRSaISsEEONSt16remove_referenceIT_E4typeEOS3_
FNDA:0,_ZSt4moveIRN4Json12PathArgumentEEONSt16remove_referenceIT_E4typeEOS4_
FNDA:0,_ZSt4moveIRPKN4Json12PathArgumentEEONSt16remove_referenceIT_E4typeEOS6_
FNDA:34980,_ZSt4moveIRlEONSt16remove_referenceIT_E4typeEOS2_
FNDA:17490,_ZSt4moveIRPN4Json5Value11CommentInfoEEONSt16remove_referenceIT_E4typeEOS6_
FNDA:123294,_ZSt4moveIRN4Json5Value11ValueHolderEEONSt16remove_referenceIT_E4typeEOS5_
FNDA:0,_ZSt4moveIRjEONSt16remove_referenceIT_E4typeEOS2_
FNDA:0,_ZSt4moveIRPKcEONSt16remove_referenceIT_E4typeEOS4_
FNDA:9048,_ZSt4moveIRSt6vectorISsSaISsEEEONSt16remove_referenceIT_E4typeEOS5_
FNDA:0,_ZSt4moveIRSsEONSt16remove_referenceIT_E4typeEOS2_
FNDA:70598,_ZSt4moveIRPN4Json5ValueEEONSt16remove_referenceIT_E4typeEOS5_
FNDA:806,_ZSt4moveIRSt5dequeIPN4Json5ValueESaIS3_EEEONSt16remove_referenceIT_E4typeEOS8_
FNDA:27144,_ZSt4swapIPSsEvRT_S2_
FNDA:403,_ZSt4swapImEvRT_S1_
FNDA:403,_ZSt4swapIPPPN4Json5ValueEEvRT_S6_
FNDA:806,_ZSt4swapISt15_Deque_iteratorIPN4Json5ValueERS3_PS3_EEvRT_S8_
FNDA:11660,_ZSt4swapIlEvRT_S1_
FNDA:5830,_ZSt4swapIPN4Json5Value11CommentInfoEEvRT_S5_
FNDA:41098,_ZSt4swapIN4Json5Value11ValueHolderEEvRT_S4_
FNDA:0,_ZSt4swapIjEvRT_S1_
FNDA:0,_ZSt4swapIPKcEvRT_S3_
FNF:67
FNH:33
DA:47,255763
DA:50,255763
DA:76,858246
DA:77,858246
DA:101,361658
DA:102,361658
DA:166,87344
DA:175,87344
DA:176,87344
DA:177,87344
DA:178,87344
LF:11
LH:11
end_of_record
SF:/usr/include/c++/4.8/bits/stl_algobase.h
FN:193,_ZSt3minIjERKT_S2_S2_
FN:193,_ZSt3minImERKT_S2_S2_
FN:216,_ZSt3maxImERKT_S2_S2_
FN:277,_ZSt12__niter_baseIPPPN4Json5ValueEENSt11_Niter_baseIT_E13iterator_typeES6_
FN:277,_ZSt12__niter_baseIPPN4Json9OurReader9ErrorInfoEENSt11_Niter_baseIT_E13iterator_typeES6_
FN:277,_ZSt12__niter_baseISt23_Rb_tree_const_iteratorISt4pairIKN4Json5Value8CZStringES3_EEENSt11_Niter_baseIT_E13iterator_typeES9_
FN:277,_ZSt12__niter_baseIPPN4Json6Reader9ErrorInfoEENSt11_Niter_baseIT_E13iterator_typeES6_
FN:277,_ZSt12__niter_baseIPPKN4Json12PathArgumentEENSt11_Niter_baseIT_E13iterator_typeES6_
FN:288,_ZSt12__miter_baseIPPN4Json6Reader9ErrorInfoEENSt11_Miter_baseIT_E13iterator_typeES6_
FN:288,_ZSt12__miter_baseISt13move_iteratorIPPKN4Json12PathArgumentEEENSt11_Miter_baseIT_E13iterator_typeES8_
FN:288,_ZSt12__miter_baseIPPPN4Json5ValueEENSt11_Miter_baseIT_E13iterator_typeES6_
FN:288,_ZSt12__miter_baseIPPN4Json9OurReader9ErrorInfoEENSt11_Miter_baseIT_E13iterator_typeES6_
FN:368,_ZNSt11__copy_moveILb0ELb1ESt26random_access_iterator_tagE8__copy_mIPPN4Json5ValueEEEPT_PKS7_SA_S8_
FN:368,_ZNSt11__copy_moveILb0ELb1ESt26random_access_iterator_tagE8__copy_mIPN4Json9OurReader9ErrorInfoEEEPT_PKS7_SA_S8_
FN:368,_ZNSt11__copy_moveILb1ELb1ESt26random_access_iterator_tagE8__copy_mIPKN4Json12PathArgumentEEEPT_PKS7_SA_S8_
FN:368,_ZNSt11__copy_moveILb0ELb1ESt26random_access_iterator_tagE8__copy_mIPN4Json6Reader9ErrorInfoEEEPT_PKS7_SA_S8_
FN:379,_ZSt13__copy_move_aILb0EPPPN4Json5ValueES4_ET1_T0_S6_S5_
FN:379,_ZSt13__copy_move_aILb0EPPN4Json6Reader9ErrorInfoES4_ET1_T0_S6_S5_
FN:379,_ZSt13__copy_move_aILb1EPPKN4Json12PathArgumentES4_ET1_T0_S6_S5_
FN:379,_ZSt13__copy_move_aILb0EPPN4Json9OurReader9ErrorInfoES4_ET1_T0_S6_S5_
FN:424,_ZSt14__copy_move_a2ILb0EPPPN4Json5ValueES4_ET1_T0_S6_S5_
FN:424,_ZSt14__copy_move_a2ILb0EPPN4Json6Reader9ErrorInfoES4_ET1_T0_S6_S5_
FN:424,_ZSt14__copy_move_a2ILb0EPPN4Json9OurReader9ErrorInfoES4_ET1_T0_S6_S5_
FN:424,_ZSt14__copy_move_a2ILb1EPPKN4Json12PathArgumentES4_ET1_T0_S6_S5_
FN:450,_ZSt4copyIPPN4Json6Reader9ErrorInfoES4_ET0_T_S6_S5_
FN:450,_ZSt4copyISt13move_iteratorIPPKN4Json12PathArgumentEES5_ET0_T_S8_S7_
FN:450,_ZSt4copyIPPN4Json9OurReader9ErrorInfoES4_ET0_T_S6_S5_
FN:450,_ZSt4copyIPPPN4Json5ValueES4_ET0_T_S6_S5_
FN:563,_ZNSt20__copy_move_backwardILb0ELb1ESt26random_access_iterator_tagE13__copy_move_bIPN4Json6Reader9ErrorInfoEEEPT_PKS7_SA_S8_
FN:563,_ZNSt20__copy_move_backwardILb0ELb1ESt26random_access_iterator_tagE13__copy_move_bIPN4Json9OurReader9ErrorInfoEEEPT_PKS7_SA_S8_
FN:563,_ZNSt20__copy_move_backwardILb0ELb1ESt26random_access_iterator_tagE13__copy_move_bIPPN4Json5ValueEEEPT_PKS7_SA_S8_
FN:574,_ZSt22__copy_move_backward_aILb0EPPN4Json6Reader9ErrorInfoES4_ET1_T0_S6_S5_
FN:574,_ZSt22__copy_move_backward_aILb0EPPPN4Json5ValueES4_ET1_T0_S6_S5_
FN:574,_ZSt22__copy_move_backward_aILb0EPPN4Json9OurReader9ErrorInfoES4_ET1_T0_S6_S5_
FN:592,_ZSt23__copy_move_backward_a2ILb0EPPPN4Json5ValueES4_ET1_T0_S6_S5_
FN:592,_ZSt23__copy_move_backward_a2ILb0EPPN4Json6Reader9ErrorInfoES4_ET1_T0_S6_S5_
FN:592,_ZSt23__copy_move_backward_a2ILb0EPPN4Json9OurReader9ErrorInfoES4_ET1_T0_S6_S5_
FN:619,_ZSt13copy_backwardIPPN4Json9OurReader9ErrorInfoES4_ET0_T_S6_S5_
FN:619,_ZSt13copy_backwardIPPN4Json6Reader9ErrorInfoES4_ET0_T_S6_S5_
FN:619,_ZSt13copy_backwardIPPPN4Json5ValueES4_ET0_T_S6_S5_
FN:794,_ZNSt7__equalILb0EE5equalISt23_Rb_tree_const_iteratorISt4pairIKN4Json5Value8CZStringES5_EES9_EEbT_SA_T0_
FN:817,_ZSt11__equal_auxISt23_Rb_tree_const_iteratorISt4pairIKN4Json5Value8CZStringES3_EES7_EbT_S8_T0_
FN:836,_ZNSt8__lc_raiISt26bidirectional_iterator_tagS0_E10__newlast1ISt23_Rb_tree_const_iteratorISt4pairIKN4Json5Value8CZStringES6_EESA_EET_SB_SB_T0_SC_
FN:841,_ZNSt8__lc_raiISt26bidirectional_iterator_tagS0_E6__cnd2ISt23_Rb_tree_const_iteratorISt4pairIKN4Json5Value8CZStringES6_EEEEbT_SB_
FN:876,_ZNSt25__lexicographical_compareILb0EE4__lcISt23_Rb_tree_const_iteratorISt4pairIKN4Json5Value8CZStringES5_EES9_EEbT_SA_T0_SB_
FN:914,_ZSt29__lexicographical_compare_auxISt23_Rb_tree_const_iteratorISt4pairIKN4Json5Value8CZStringES3_EES7_EbT_S8_T0_S9_
FN:1021,_ZSt5equalISt23_Rb_tree_const_iteratorISt4pairIKN4Json5Value8CZStringES3_EES7_EbT_S8_T0_
FN:1084,_ZSt23lexicographical_compareISt23_Rb_tree_const_iteratorISt4pairIKN4Json5Value8CZStringES3_EES7_EbT_S8_T0_S9_
FNDA:0,_ZSt3minImERKT_S2_S2_
FNDA:83366,_ZSt3minIjERKT_S2_S2_
FNDA:288,_ZSt3maxImERKT_S2_S2_
FNDA:0,_ZSt12__niter_baseIPPKN4Json12PathArgumentEENSt11_Niter_baseIT_E13iterator_typeES6_
FNDA:0,_ZSt12__niter_baseIPPPN4Json5ValueEENSt11_Niter_baseIT_E13iterator_typeES6_
FNDA:0,_ZSt12__niter_baseIPPN4Json9OurReader9ErrorInfoEENSt11_Niter_baseIT_E13iterator_typeES6_
FNDA:0,_ZSt12__niter_baseIPPN4Json6Reader9ErrorInfoEENSt11_Niter_baseIT_E13iterator_typeES6_
FNDA:0,_ZSt12__niter_baseISt23_Rb_tree_const_iteratorISt4pairIKN4Json5Value8CZStringES3_EEENSt11_Niter_baseIT_E13iterator_typeES9_
FNDA:0,_ZSt12__miter_baseISt13move_iteratorIPPKN4Json12PathArgumentEEENSt11_Miter_baseIT_E13iterator_typeES8_
FNDA:0,_ZSt12__miter_baseIPPPN4Json5ValueEENSt11_Miter_baseIT_E13iterator_typeES6_
FNDA:0,_ZSt12__miter_baseIPPN4Json9OurReader9ErrorInfoEENSt11_Miter_baseIT_E13iterator_typeES6_
FNDA:0,_ZSt12__miter_baseIPPN4Json6Reader9ErrorInfoEENSt11_Miter_baseIT_E13iterator_typeES6_
FNDA:0,_ZNSt11__copy_moveILb1ELb1ESt26random_access_iterator_tagE8__copy_mIPKN4Json12PathArgumentEEEPT_PKS7_SA_S8_
FNDA:0,_ZNSt11__copy_moveILb0ELb1ESt26random_access_iterator_tagE8__copy_mIPPN4Json5ValueEEEPT_PKS7_SA_S8_
FNDA:0,_ZNSt11__copy_moveILb0ELb1ESt26random_access_iterator_tagE8__copy_mIPN4Json9OurReader9ErrorInfoEEEPT_PKS7_SA_S8_
FNDA:0,_ZNSt11__copy_moveILb0ELb1ESt26random_access_iterator_tagE8__copy_mIPN4Json6Reader9ErrorInfoEEEPT_PKS7_SA_S8_
FNDA:0,_ZSt13__copy_move_aILb1EPPKN4Json12PathArgumentES4_ET1_T0_S6_S5_
FNDA:0,_ZSt13__copy_move_aILb0EPPPN4Json5ValueES4_ET1_T0_S6_S5_
FNDA:0,_ZSt13__copy_move_aILb0EPPN4Json9OurReader9ErrorInfoES4_ET1_T0_S6_S5_
FNDA:0,_ZSt13__copy_move_aILb0EPPN4Json6Reader9ErrorInfoES4_ET1_T0_S6_S5_
FNDA:0,_ZSt14__copy_move_a2ILb1EPPKN4Json12PathArgumentES4_ET1_T0_S6_S5_
FNDA:0,_ZSt14__copy_move_a2ILb0EPPPN4Json5ValueES4_ET1_T0_S6_S5_
FNDA:0,_ZSt14__copy_move_a2ILb0EPPN4Json9OurReader9ErrorInfoES4_ET1_T0_S6_S5_
FNDA:0,_ZSt14__copy_move_a2ILb0EPPN4Json6Reader9ErrorInfoES4_ET1_T0_S6_S5_
FNDA:0,_ZSt4copyISt13move_iteratorIPPKN4Json12PathArgumentEES5_ET0_T_S8_S7_
FNDA:0,_ZSt4copyIPPPN4Json5ValueES4_ET0_T_S6_S5_
FNDA:0,_ZSt4copyIPPN4Json9OurReader9ErrorInfoES4_ET0_T_S6_S5_
FNDA:0,_ZSt4copyIPPN4Json6Reader9ErrorInfoES4_ET0_T_S6_S5_
FNDA:0,_ZNSt20__copy_move_backwardILb0ELb1ESt26random_access_iterator_tagE13__copy_move_bIPPN4Json5ValueEEEPT_PKS7_SA_S8_
FNDA:0,_ZNSt20__copy_move_backwardILb0ELb1ESt26random_access_iterator_tagE13__copy_move_bIPN4Json9OurReader9ErrorInfoEEEPT_PKS7_SA_S8_
FNDA:0,_ZNSt20__copy_move_backwardILb0ELb1ESt26random_access_iterator_tagE13__copy_move_bIPN4Json6Reader9ErrorInfoEEEPT_PKS7_SA_S8_
FNDA:0,_ZSt22__copy_move_backward_aILb0EPPPN4Json5ValueES4_ET1_T0_S6_S5_
FNDA:0,_ZSt22__copy_move_backward_aILb0EPPN4Json9OurReader9ErrorInfoES4_ET1_T0_S6_S5_
FNDA:0,_ZSt22__copy_move_backward_aILb0EPPN4Json6Reader9ErrorInfoES4_ET1_T0_S6_S5_
FNDA:0,_ZSt23__copy_move_backward_a2ILb0EPPPN4Json5ValueES4_ET1_T0_S6_S5_
FNDA:0,_ZSt23__copy_move_backward_a2ILb0EPPN4Json9OurReader9ErrorInfoES4_ET1_T0_S6_S5_
FNDA:0,_ZSt23__copy_move_backward_a2ILb0EPPN4Json6Reader9ErrorInfoES4_ET1_T0_S6_S5_
FNDA:0,_ZSt13copy_backwardIPPPN4Json5ValueES4_ET0_T_S6_S5_
FNDA:0,_ZSt13copy_backwardIPPN4Json9OurReader9ErrorInfoES4_ET0_T_S6_S5_
FNDA:0,_ZSt13copy_backwardIPPN4Json6Reader9ErrorInfoES4_ET0_T_S6_S5_
FNDA:0,_ZNSt7__equalILb0EE5equalISt23_Rb_tree_const_iteratorISt4pairIKN4Json5Value8CZStringES5_EES9_EEbT_SA_T0_
FNDA:0,_ZSt11__equal_auxISt23_Rb_tree_const_iteratorISt4pairIKN4Json5Value8CZStringES3_EES7_EbT_S8_T0_
FNDA:0,_ZNSt8__lc_raiISt26bidirectional_iterator_tagS0_E10__newlast1ISt23_Rb_tree_const_iteratorISt4pairIKN4Json5Value8CZStringES6_EESA_EET_SB_SB_T0_SC_
FNDA:0,_ZNSt8__lc_raiISt26bidirectional_iterator_tagS0_E6__cnd2ISt23_Rb_tree_const_iteratorISt4pairIKN4Json5Value8CZStringES6_EEEEbT_SB_
FNDA:0,_ZNSt25__lexicographical_compareILb0EE4__lcISt23_Rb_tree_const_iteratorISt4pairIKN4Json5Value8CZStringES5_EES9_EEbT_SA_T0_SB_
FNDA:0,_ZSt29__lexicographical_compare_auxISt23_Rb_tree_const_iteratorISt4pairIKN4Json5Value8CZStringES3_EES7_EbT_S8_T0_S9_
FNDA:0,_ZSt5equalISt23_Rb_tree_const_iteratorISt4pairIKN4Json5Value8CZStringES3_EES7_EbT_S8_T0_
FNDA:0,_ZSt23lexicographical_compareISt23_Rb_tree_const_iteratorISt4pairIKN4Json5Value8CZStringES3_EES7_EbT_S8_T0_S9_
FNF:48
FNH:2
DA:193,83366
DA:198,83366
DA:199,12195
DA:200,71171
DA:216,288
DA:221,288
DA:222,77
DA:223,211
DA:277,0
DA:278,0
DA:288,0
DA:289,0
DA:368,0
DA:370,0
DA:371,0
DA:372,0
DA:373,0
DA:379,0
DA:387,0
DA:390,0
DA:424,0
DA:428,0
DA:450,0
DA:460,0
DA:563,0
DA:565,0
DA:566,0
DA:567,0
DA:568,0
DA:574,0
DA:582,0
DA:587,0
DA:592,0
DA:596,0
DA:619,0
DA:631,0
DA:794,0
DA:796,0
DA:797,0
DA:798,0
DA:799,0
DA:817,0
DA:825,0
DA:827,0
DA:836,0
DA:837,0
DA:841,0
DA:842,0
DA:876,0
DA:883,0
DA:885,0
DA:888,0
DA:889,0
DA:890,0
DA:891,0
DA:893,0
DA:914,0
DA:924,0
DA:927,0
DA:1021,0
DA:1033,0
DA:1084,0
DA:1102,0
LF:63
LH:8
end_of_record
SF:/usr/include/c++/4.8/bits/stl_construct.h
FN:74,_ZSt10_ConstructIN4Json9OurReader15StructuredErrorEIS2_EEvPT_DpOT0_
FN:74,_ZSt10_ConstructIN4Json12PathArgumentEIS1_EEvPT_DpOT0_
FN:74,_ZSt10_ConstructIN4Json9OurReader9ErrorInfoEIEEvPT_DpOT0_
FN:74,_ZSt10_ConstructIN4Json6Reader15StructuredErrorEIS2_EEvPT_DpOT0_
FN:74,_ZSt10_ConstructISsISsEEvPT_DpOT0_
FN:74,_ZSt10_ConstructIN4Json6Reader9ErrorInfoEIEEvPT_DpOT0_
FN:92,_ZSt8_DestroyIN4Json6Reader15StructuredErrorEEvPT_
FN:92,_ZSt8_DestroyIN4Json6Reader9ErrorInfoEEvPT_
FN:92,_ZSt8_DestroyIN4Json9OurReader9ErrorInfoEEvPT_
FN:92,_ZSt8_DestroyISsEvPT_
FN:92,_ZSt8_DestroyIN4Json12PathArgumentEEvPT_
FN:92,_ZSt8_DestroyIN4Json9OurReader15StructuredErrorEEvPT_
FN:100,_ZNSt12_Destroy_auxILb0EE9__destroyIPN4Json12PathArgumentEEEvT_S5_
FN:100,_ZNSt12_Destroy_auxILb0EE9__destroyIPN4Json9OurReader15StructuredErrorEEEvT_S6_
FN:100,_ZNSt12_Destroy_auxILb0EE9__destroyIPSsEEvT_S3_
FN:100,_ZNSt12_Destroy_auxILb0EE9__destroyIPN4Json6Reader15StructuredErrorEEEvT_S6_
FN:100,_ZNSt12_Destroy_auxILb0EE9__destroyIPN4Json9OurReader9ErrorInfoEEEvT_S6_
FN:100,_ZNSt12_Destroy_auxILb0EE9__destroyISt15_Deque_iteratorIN4Json9OurReader9ErrorInfoERS5_PS5_EEEvT_S9_
FN:100,_ZNSt12_Destroy_auxILb0EE9__destroyIPN4Json6Reader9ErrorInfoEEEvT_S6_
FN:100,_ZNSt12_Destroy_auxILb0EE9__destroyISt15_Deque_iteratorIN4Json6Reader9ErrorInfoERS5_PS5_EEEvT_S9_
FN:112,_ZNSt12_Destroy_auxILb1EE9__destroyIPPKN4Json12PathArgumentEEEvT_S7_
FN:122,_ZSt8_DestroyIPPKN4Json12PathArgumentEEvT_S5_
FN:122,_ZSt8_DestroyIPN4Json6Reader15StructuredErrorEEvT_S4_
FN:122,_ZSt8_DestroyIPN4Json6Reader9ErrorInfoEEvT_S4_
FN:122,_ZSt8_DestroyIPN4Json12PathArgumentEEvT_S3_
FN:122,_ZSt8_DestroyIPSsEvT_S1_
FN:122,_ZSt8_DestroyISt15_Deque_iteratorIN4Json9OurReader9ErrorInfoERS3_PS3_EEvT_S7_
FN:122,_ZSt8_DestroyISt15_Deque_iteratorIN4Json6Reader9ErrorInfoERS3_PS3_EEvT_S7_
FN:122,_ZSt8_DestroyIPN4Json9OurReader15StructuredErrorEEvT_S4_
FN:122,_ZSt8_DestroyIPN4Json9OurReader9ErrorInfoEEvT_S4_
FN:148,_ZSt8_DestroyIPN4Json9OurReader9ErrorInfoES2_EvT_S4_RSaIT0_E
FN:148,_ZSt8_DestroyIPN4Json6Reader9ErrorInfoES2_EvT_S4_RSaIT0_E
FN:148,_ZSt8_DestroyIPSsSsEvT_S1_RSaIT0_E
FN:148,_ZSt8_DestroyIPN4Json9OurReader15StructuredErrorES2_EvT_S4_RSaIT0_E
FN:148,_ZSt8_DestroyIPN4Json6Reader15StructuredErrorES2_EvT_S4_RSaIT0_E
FN:148,_ZSt8_DestroyIPN4Json12PathArgumentES1_EvT_S3_RSaIT0_E
FN:148,_ZSt8_DestroyIPPKN4Json12PathArgumentES3_EvT_S5_RSaIT0_E
FNDA:0,_ZSt10_ConstructIN4Json12PathArgumentEIS1_EEvPT_DpOT0_
FNDA:0,_ZSt10_ConstructIN4Json9OurReader15StructuredErrorEIS2_EEvPT_DpOT0_
FNDA:0,_ZSt10_ConstructIN4Json6Reader15StructuredErrorEIS2_EEvPT_DpOT0_
FNDA:99112,_ZSt10_ConstructISsISsEEvPT_DpOT0_
FNDA:0,_ZSt10_ConstructIN4Json9OurReader9ErrorInfoEIEEvPT_DpOT0_
FNDA:0,_ZSt10_ConstructIN4Json6Reader9ErrorInfoEIEEvPT_DpOT0_
FNDA:0,_ZSt8_DestroyIN4Json9OurReader9ErrorInfoEEvPT_
FNDA:31,_ZSt8_DestroyIN4Json6Reader9ErrorInfoEEvPT_
FNDA:0,_ZSt8_DestroyIN4Json12PathArgumentEEvPT_
FNDA:0,_ZSt8_DestroyIN4Json9OurReader15StructuredErrorEEvPT_
FNDA:0,_ZSt8_DestroyIN4Json6Reader15StructuredErrorEEvPT_
FNDA:156620,_ZSt8_DestroyISsEvPT_
FNDA:0,_ZNSt12_Destroy_auxILb0EE9__destroyISt15_Deque_iteratorIN4Json9OurReader9ErrorInfoERS5_PS5_EEEvT_S9_
FNDA:0,_ZNSt12_Destroy_auxILb0EE9__destroyISt15_Deque_iteratorIN4Json6Reader9ErrorInfoERS5_PS5_EEEvT_S9_
FNDA:0,_ZNSt12_Destroy_auxILb0EE9__destroyIPN4Json9OurReader9ErrorInfoEEEvT_S6_
FNDA:806,_ZNSt12_Destroy_auxILb0EE9__destroyIPN4Json6Reader9ErrorInfoEEEvT_S6_
FNDA:0,_ZNSt12_Destroy_auxILb0EE9__destroyIPN4Json12PathArgumentEEEvT_S5_
FNDA:0,_ZNSt12_Destroy_auxILb0EE9__destroyIPN4Json9OurReader15StructuredErrorEEEvT_S6_
FNDA:0,_ZNSt12_Destroy_auxILb0EE9__destroyIPN4Json6Reader15StructuredErrorEEEvT_S6_
FNDA:37868,_ZNSt12_Destroy_auxILb0EE9__destroyIPSsEEvT_S3_
FNDA:0,_ZNSt12_Destroy_auxILb1EE9__destroyIPPKN4Json12PathArgumentEEEvT_S7_
FNDA:0,_ZSt8_DestroyISt15_Deque_iteratorIN4Json9OurReader9ErrorInfoERS3_PS3_EEvT_S7_
FNDA:0,_ZSt8_DestroyISt15_Deque_iteratorIN4Json6Reader9ErrorInfoERS3_PS3_EEvT_S7_
FNDA:0,_ZSt8_DestroyIPN4Json9OurReader9ErrorInfoEEvT_S4_
FNDA:806,_ZSt8_DestroyIPN4Json6Reader9ErrorInfoEEvT_S4_
FNDA:0,_ZSt8_DestroyIPPKN4Json12PathArgumentEEvT_S5_
FNDA:0,_ZSt8_DestroyIPN4Json12PathArgumentEEvT_S3_
FNDA:0,_ZSt8_DestroyIPN4Json9OurReader15StructuredErrorEEvT_S4_
FNDA:0,_ZSt8_DestroyIPN4Json6Reader15StructuredErrorEEvT_S4_
FNDA:37868,_ZSt8_DestroyIPSsEvT_S1_
FNDA:0,_ZSt8_DestroyIPN4Json9OurReader9ErrorInfoES2_EvT_S4_RSaIT0_E
FNDA:806,_ZSt8_DestroyIPN4Json6Reader9ErrorInfoES2_EvT_S4_RSaIT0_E
FNDA:0,_ZSt8_DestroyIPPKN4Json12PathArgumentES3_EvT_S5_RSaIT0_E
FNDA:0,_ZSt8_DestroyIPN4Json12PathArgumentES1_EvT_S3_RSaIT0_E
FNDA:0,_ZSt8_DestroyIPN4Json9OurReader15StructuredErrorES2_EvT_S4_RSaIT0_E
FNDA:0,_ZSt8_DestroyIPN4Json6Reader15StructuredErrorES2_EvT_S4_RSaIT0_E
FNDA:37868,_ZSt8_DestroyIPSsSsEvT_S1_RSaIT0_E
FNF:37
FNH:9
DA:74,99112
DA:75,99112
DA:92,156651
DA:93,156651
DA:100,38674
DA:102,195325
DA:103,156651
DA:104,38674
DA:112,0
DA:122,38674
DA:126,38674
DA:127,0
DA:128,38674
DA:148,38674
DA:151,38674
DA:152,38674
LF:16
LH:14
end_of_record
SF:/usr/include/c++/4.8/bits/stl_deque.h
FN:89,_ZSt16__deque_buf_sizem
FN:111,_ZNSt15_Deque_iteratorIPN4Json5ValueERS2_PS2_E14_S_buffer_sizeEv
FN:111,_ZNSt15_Deque_iteratorIN4Json6Reader9ErrorInfoERS2_PS2_E14_S_buffer_sizeEv
FN:111,_ZNSt15_Deque_iteratorIN4Json9OurReader9ErrorInfoERS2_PS2_E14_S_buffer_sizeEv
FN:111,_ZNSt15_Deque_iteratorIN4Json9OurReader9ErrorInfoERKS2_PS3_E14_S_buffer_sizeEv
FN:111,_ZNSt15_Deque_iteratorIN4Json6Reader9ErrorInfoERKS2_PS3_E14_S_buffer_sizeEv
FN:132,_ZNSt15_Deque_iteratorIPN4Json5ValueERS2_PS2_EC2Ev
FN:132,_ZNSt15_Deque_iteratorIN4Json9OurReader9ErrorInfoERS2_PS2_EC2Ev
FN:132,_ZNSt15_Deque_iteratorIN4Json6Reader9ErrorInfoERS2_PS2_EC2Ev
FN:135,_ZNSt15_Deque_iteratorIN4Json9OurReader9ErrorInfoERKS2_PS3_EC2ERKS_IS2_RS2_PS2_E
FN:135,_ZNSt15_Deque_iteratorIN4Json9OurReader9ErrorInfoERS2_PS2_EC2ERKS5_
FN:135,_ZNSt15_Deque_iteratorIN4Json6Reader9ErrorInfoERS2_PS2_EC2ERKS5_
FN:135,_ZNSt15_Deque_iteratorIPN4Json5ValueERS2_PS2_EC2ERKS5_
FN:135,_ZNSt15_Deque_iteratorIN4Json6Reader9ErrorInfoERKS2_PS3_EC2ERKS_IS2_RS2_PS2_E
FN:140,_ZNKSt15_Deque_iteratorIN4Json9OurReader9ErrorInfoERS2_PS2_EdeEv
FN:140,_ZNKSt15_Deque_iteratorIN4Json6Reader9ErrorInfoERKS2_PS3_EdeEv
FN:140,_ZNKSt15_Deque_iteratorIN4Json9OurReader9ErrorInfoERKS2_PS3_EdeEv
FN:140,_ZNKSt15_Deque_iteratorIPN4Json5ValueERS2_PS2_EdeEv
FN:140,_ZNKSt15_Deque_iteratorIN4Json6Reader9ErrorInfoERS2_PS2_EdeEv
FN:148,_ZNSt15_Deque_iteratorIN4Json6Reader9ErrorInfoERKS2_PS3_EppEv
FN:148,_ZNSt15_Deque_iteratorIN4Json9OurReader9ErrorInfoERKS2_PS3_EppEv
FN:148,_ZNSt15_Deque_iteratorIN4Json9OurReader9ErrorInfoERS2_PS2_EppEv
FN:148,_ZNSt15_Deque_iteratorIN4Json6Reader9ErrorInfoERS2_PS2_EppEv
FN:168,_ZNSt15_Deque_iteratorIPN4Json5ValueERS2_PS2_EmmEv
FN:188,_ZNSt15_Deque_iteratorIN4Json6Reader9ErrorInfoERS2_PS2_EpLEl
FN:188,_ZNSt15_Deque_iteratorIN4Json9OurReader9ErrorInfoERS2_PS2_EpLEl
FN:207,_ZNKSt15_Deque_iteratorIN4Json9OurReader9ErrorInfoERS2_PS2_EplEl
FN:207,_ZNKSt15_Deque_iteratorIN4Json6Reader9ErrorInfoERS2_PS2_EplEl
FN:234,_ZNSt15_Deque_iteratorIN4Json6Reader9ErrorInfoERS2_PS2_E11_M_set_nodeEPS4_
FN:234,_ZNSt15_Deque_iteratorIN4Json9OurReader9ErrorInfoERKS2_PS3_E11_M_set_nodeEPPS2_
FN:234,_ZNSt15_Deque_iteratorIPN4Json5ValueERS2_PS2_E11_M_set_nodeEPS4_
FN:234,_ZNSt15_Deque_iteratorIN4Json6Reader9ErrorInfoERKS2_PS3_E11_M_set_nodeEPPS2_
FN:234,_ZNSt15_Deque_iteratorIN4Json9OurReader9ErrorInfoERS2_PS2_E11_M_set_nodeEPS4_
FN:247,_ZSteqIN4Json6Reader9ErrorInfoERS2_PS2_EbRKSt15_Deque_iteratorIT_T0_T1_ESB_
FN:247,_ZSteqIPN4Json5ValueERS2_PS2_EbRKSt15_Deque_iteratorIT_T0_T1_ESB_
FN:247,_ZSteqIN4Json6Reader9ErrorInfoERKS2_PS3_EbRKSt15_Deque_iteratorIT_T0_T1_ESC_
FN:247,_ZSteqIN4Json9OurReader9ErrorInfoERS2_PS2_EbRKSt15_Deque_iteratorIT_T0_T1_ESB_
FN:247,_ZSteqIN4Json9OurReader9ErrorInfoERKS2_PS3_EbRKSt15_Deque_iteratorIT_T0_T1_ESC_
FN:260,_ZStneIN4Json9OurReader9ErrorInfoERS2_PS2_EbRKSt15_Deque_iteratorIT_T0_T1_ESB_
FN:260,_ZStneIN4Json6Reader9ErrorInfoERKS2_PS3_EbRKSt15_Deque_iteratorIT_T0_T1_ESC_
FN:260,_ZStneIN4Json6Reader9ErrorInfoERS2_PS2_EbRKSt15_Deque_iteratorIT_T0_T1_ESB_
FN:260,_ZStneIN4Json9OurReader9ErrorInfoERKS2_PS3_EbRKSt15_Deque_iteratorIT_T0_T1_ESC_
FN:331,_ZStmiIN4Json9OurReader9ErrorInfoERS2_PS2_ENSt15_Deque_iteratorIT_T0_T1_E15difference_typeERKS9_SC_
FN:331,_ZStmiIN4Json6Reader9ErrorInfoERS2_PS2_ENSt15_Deque_iteratorIT_T0_T1_E15difference_typeERKS9_SC_
FN:451,_ZNSt11_Deque_baseIN4Json9OurReader9ErrorInfoESaIS2_EEC2Ev
FN:451,_ZNSt11_Deque_baseIN4Json6Reader9ErrorInfoESaIS2_EEC2Ev
FN:451,_ZNSt11_Deque_baseIPN4Json5ValueESaIS2_EEC2Ev
FN:468,_ZNSt11_Deque_baseIPN4Json5ValueESaIS2_EEC2EOS4_
FN:492,_ZNSt11_Deque_baseIPN4Json5ValueESaIS2_EE11_Deque_implD2Ev
FN:492,_ZNSt11_Deque_baseIN4Json9OurReader9ErrorInfoESaIS2_EE11_Deque_implD2Ev
FN:492,_ZNSt11_Deque_baseIN4Json6Reader9ErrorInfoESaIS2_EE11_Deque_implD2Ev
FN:500,_ZNSt11_Deque_baseIN4Json9OurReader9ErrorInfoESaIS2_EE11_Deque_implC2Ev
FN:500,_ZNSt11_Deque_baseIPN4Json5ValueESaIS2_EE11_Deque_implC2Ev
FN:500,_ZNSt11_Deque_baseIN4Json6Reader9ErrorInfoESaIS2_EE11_Deque_implC2Ev
FN:511,_ZNSt11_Deque_baseIPN4Json5ValueESaIS2_EE11_Deque_implC2EOS3_
FN:519,_ZNSt11_Deque_baseIN4Json9OurReader9ErrorInfoESaIS2_EE19_M_get_Tp_allocatorEv
FN:519,_ZNSt11_Deque_baseIN4Json6Reader9ErrorInfoESaIS2_EE19_M_get_Tp_allocatorEv
FN:519,_ZNSt11_Deque_baseIPN4Json5ValueESaIS2_EE19_M_get_Tp_allocatorEv
FN:523,_ZNKSt11_Deque_baseIPN4Json5ValueESaIS2_EE19_M_get_Tp_allocatorEv
FN:523,_ZNKSt11_Deque_baseIN4Json6Reader9ErrorInfoESaIS2_EE19_M_get_Tp_allocatorEv
FN:523,_ZNKSt11_Deque_baseIN4Json9OurReader9ErrorInfoESaIS2_EE19_M_get_Tp_allocatorEv
FN:527,_ZNKSt11_Deque_baseIN4Json6Reader9ErrorInfoESaIS2_EE20_M_get_map_allocatorEv
FN:527,_ZNKSt11_Deque_baseIPN4Json5ValueESaIS2_EE20_M_get_map_allocatorEv
FN:527,_ZNKSt11_Deque_baseIN4Json9OurReader9ErrorInfoESaIS2_EE20_M_get_map_allocatorEv
FN:531,_ZNSt11_Deque_baseIN4Json6Reader9ErrorInfoESaIS2_EE16_M_allocate_nodeEv
FN:531,_ZNSt11_Deque_baseIN4Json9OurReader9ErrorInfoESaIS2_EE16_M_allocate_nodeEv
FN:531,_ZNSt11_Deque_baseIPN4Json5ValueESaIS2_EE16_M_allocate_nodeEv
FN:537,_ZNSt11_Deque_baseIN4Json6Reader9ErrorInfoESaIS2_EE18_M_deallocate_nodeEPS2_
FN:537,_ZNSt11_Deque_baseIN4Json9OurReader9ErrorInfoESaIS2_EE18_M_deallocate_nodeEPS2_
FN:537,_ZNSt11_Deque_baseIPN4Json5ValueESaIS2_EE18_M_deallocate_nodeEPS2_
FN:543,_ZNSt11_Deque_baseIPN4Json5ValueESaIS2_EE15_M_allocate_mapEm
FN:543,_ZNSt11_Deque_baseIN4Json6Reader9ErrorInfoESaIS2_EE15_M_allocate_mapEm
FN:543,_ZNSt11_Deque_baseIN4Json9OurReader9ErrorInfoESaIS2_EE15_M_allocate_mapEm
FN:547,_ZNSt11_Deque_baseIPN4Json5ValueESaIS2_EE17_M_deallocate_mapEPPS2_m
FN:547,_ZNSt11_Deque_baseIN4Json9OurReader9ErrorInfoESaIS2_EE17_M_deallocate_mapEPPS2_m
FN:547,_ZNSt11_Deque_baseIN4Json6Reader9ErrorInfoESaIS2_EE17_M_deallocate_mapEPPS2_m
FN:560,_ZNSt11_Deque_baseIN4Json9OurReader9ErrorInfoESaIS2_EED2Ev
FN:560,_ZNSt11_Deque_baseIPN4Json5ValueESaIS2_EED2Ev
FN:560,_ZNSt11_Deque_baseIN4Json6Reader9ErrorInfoESaIS2_EED2Ev
FN:581,_ZNSt11_Deque_baseIN4Json9OurReader9ErrorInfoESaIS2_EE17_M_initialize_mapEm
FN:581,_ZNSt11_Deque_baseIN4Json6Reader9ErrorInfoESaIS2_EE17_M_initialize_mapEm
FN:581,_ZNSt11_Deque_baseIPN4Json5ValueESaIS2_EE17_M_initialize_mapEm
FN:620,_ZNSt11_Deque_baseIN4Json9OurReader9ErrorInfoESaIS2_EE15_M_create_nodesEPPS2_S6_
FN:620,_ZNSt11_Deque_baseIN4Json6Reader9ErrorInfoESaIS2_EE15_M_create_nodesEPPS2_S6_
FN:620,_ZNSt11_Deque_baseIPN4Json5ValueESaIS2_EE15_M_create_nodesEPPS2_S6_
FN:638,_ZNSt11_Deque_baseIN4Json9OurReader9ErrorInfoESaIS2_EE16_M_destroy_nodesEPPS2_S6_
FN:638,_ZNSt11_Deque_baseIN4Json6Reader9ErrorInfoESaIS2_EE16_M_destroy_nodesEPPS2_S6_
FN:638,_ZNSt11_Deque_baseIPN4Json5ValueESaIS2_EE16_M_destroy_nodesEPPS2_S6_
FN:757,_ZNSt5dequeIN4Json6Reader9ErrorInfoESaIS2_EE14_S_buffer_sizeEv
FN:757,_ZNSt5dequeIN4Json9OurReader9ErrorInfoESaIS2_EE14_S_buffer_sizeEv
FN:782,_ZNSt5dequeIPN4Json5ValueESaIS2_EEC2Ev
FN:782,_ZNSt5dequeIN4Json9OurReader9ErrorInfoESaIS2_EEC2Ev
FN:782,_ZNSt5dequeIN4Json6Reader9ErrorInfoESaIS2_EEC2Ev
FN:855,_ZNSt5dequeIPN4Json5ValueESaIS2_EEC2EOS4_
FN:917,_ZNSt5dequeIN4Json9OurReader9ErrorInfoESaIS2_EED2Ev
FN:917,_ZNSt5dequeIPN4Json5ValueESaIS2_EED2Ev
FN:917,_ZNSt5dequeIN4Json6Reader9ErrorInfoESaIS2_EED2Ev
FN:1037,_ZNSt5dequeIN4Json9OurReader9ErrorInfoESaIS2_EE5beginEv
FN:1037,_ZNSt5dequeIPN4Json5ValueESaIS2_EE5beginEv
FN:1037,_ZNSt5dequeIN4Json6Reader9ErrorInfoESaIS2_EE5beginEv
FN:1045,_ZNKSt5dequeIN4Json6Reader9ErrorInfoESaIS2_EE5beginEv
FN:1045,_ZNKSt5dequeIN4Json9OurReader9ErrorInfoESaIS2_EE5beginEv
FN:1054,_ZNSt5dequeIN4Json6Reader9ErrorInfoESaIS2_EE3endEv
FN:1054,_ZNSt5dequeIN4Json9OurReader9ErrorInfoESaIS2_EE3endEv
FN:1054,_ZNSt5dequeIPN4Json5ValueESaIS2_EE3endEv
FN:1063,_ZNKSt5dequeIN4Json6Reader9ErrorInfoESaIS2_EE3endEv
FN:1063,_ZNKSt5dequeIN4Json9OurReader9ErrorInfoESaIS2_EE3endEv
FN:1142,_ZNKSt5dequeIN4Json6Reader9ErrorInfoESaIS2_EE4sizeEv
FN:1142,_ZNKSt5dequeIN4Json9OurReader9ErrorInfoESaIS2_EE4sizeEv
FN:1147,_ZNKSt5dequeIN4Json6Reader9ErrorInfoESaIS2_EE8max_sizeEv
FN:1147,_ZNKSt5dequeIN4Json9OurReader9ErrorInfoESaIS2_EE8max_sizeEv
FN:1161,_ZNSt5dequeIN4Json9OurReader9ErrorInfoESaIS2_EE6resizeEm
FN:1161,_ZNSt5dequeIN4Json6Reader9ErrorInfoESaIS2_EE6resizeEm
FN:1228,_ZNKSt5dequeIPN4Json5ValueESaIS2_EE5emptyEv
FN:1329,_ZNSt5dequeIPN4Json5ValueESaIS2_EE4backEv
FN:1390,_ZNSt5dequeIN4Json9OurReader9ErrorInfoESaIS2_EE9push_backERKS2_
FN:1390,_ZNSt5dequeIN4Json6Reader9ErrorInfoESaIS2_EE9push_backERKS2_
FN:1404,_ZNSt5dequeIPN4Json5ValueESaIS2_EE9push_backEOS2_
FN:1442,_ZNSt5dequeIPN4Json5ValueESaIS2_EE8pop_backEv
FN:1616,_ZNSt5dequeIN4Json9OurReader9ErrorInfoESaIS2_EE5clearEv
FN:1616,_ZNSt5dequeIN4Json6Reader9ErrorInfoESaIS2_EE5clearEv
FN:1849,_ZNSt5dequeIN4Json9OurReader9ErrorInfoESaIS2_EE15_M_destroy_dataESt15_Deque_iteratorIS2_RS2_PS2_ES8_RKS3_
FN:1849,_ZNSt5dequeIPN4Json5ValueESaIS2_EE15_M_destroy_dataESt15_Deque_iteratorIS2_RS2_PS2_ES8_RKS3_
FN:1849,_ZNSt5dequeIN4Json6Reader9ErrorInfoESaIS2_EE15_M_destroy_dataESt15_Deque_iteratorIS2_RS2_PS2_ES8_RKS3_
FN:1868,_ZNSt5dequeIN4Json9OurReader9ErrorInfoESaIS2_EE15_M_erase_at_endESt15_Deque_iteratorIS2_RS2_PS2_E
FN:1868,_ZNSt5dequeIN4Json6Reader9ErrorInfoESaIS2_EE15_M_erase_at_endESt15_Deque_iteratorIS2_RS2_PS2_E
FN:1898,_ZNSt5dequeIN4Json6Reader9ErrorInfoESaIS2_EE27_M_reserve_elements_at_backEm
FN:1898,_ZNSt5dequeIN4Json9OurReader9ErrorInfoESaIS2_EE27_M_reserve_elements_at_backEm
FN:1924,_ZNSt5dequeIN4Json9OurReader9ErrorInfoESaIS2_EE22_M_reserve_map_at_backEm
FN:1924,_ZNSt5dequeIN4Json6Reader9ErrorInfoESaIS2_EE22_M_reserve_map_at_backEm
FN:1924,_ZNSt5dequeIPN4Json5ValueESaIS2_EE22_M_reserve_map_at_backEm
FNDA:7254,_ZSt16__deque_buf_sizem
FNDA:1612,_ZNSt15_Deque_iteratorIPN4Json5ValueERS2_PS2_E14_S_buffer_sizeEv
FNDA:0,_ZNSt15_Deque_iteratorIN4Json9OurReader9ErrorInfoERKS2_PS3_E14_S_buffer_sizeEv
FNDA:0,_ZNSt15_Deque_iteratorIN4Json9OurReader9ErrorInfoERS2_PS2_E14_S_buffer_sizeEv
FNDA:0,_ZNSt15_Deque_iteratorIN4Json6Reader9ErrorInfoERKS2_PS3_E14_S_buffer_sizeEv
FNDA:806,_ZNSt15_Deque_iteratorIN4Json6Reader9ErrorInfoERS2_PS2_E14_S_buffer_sizeEv
FNDA:0,_ZNSt15_Deque_iteratorIN4Json9OurReader9ErrorInfoERS2_PS2_EC2Ev
FNDA:806,_ZNSt15_Deque_iteratorIN4Json6Reader9ErrorInfoERS2_PS2_EC2Ev
FNDA:1612,_ZNSt15_Deque_iteratorIPN4Json5ValueERS2_PS2_EC2Ev
FNDA:0,_ZNSt15_Deque_iteratorIN4Json9OurReader9ErrorInfoERKS2_PS3_EC2ERKS_IS2_RS2_PS2_E
FNDA:0,_ZNSt15_Deque_iteratorIN4Json9OurReader9ErrorInfoERS2_PS2_EC2ERKS5_
FNDA:0,_ZNSt15_Deque_iteratorIN4Json6Reader9ErrorInfoERKS2_PS3_EC2ERKS_IS2_RS2_PS2_E
FNDA:3627,_ZNSt15_Deque_iteratorIN4Json6Reader9ErrorInfoERS2_PS2_EC2ERKS5_
FNDA:178448,_ZNSt15_Deque_iteratorIPN4Json5ValueERS2_PS2_EC2ERKS5_
FNDA:0,_ZNKSt15_Deque_iteratorIN4Json9OurReader9ErrorInfoERS2_PS2_EdeEv
FNDA:0,_ZNKSt15_Deque_iteratorIN4Json6Reader9ErrorInfoERS2_PS2_EdeEv
FNDA:176030,_ZNKSt15_Deque_iteratorIPN4Json5ValueERS2_PS2_EdeEv
FNDA:0,_ZNKSt15_Deque_iteratorIN4Json9OurReader9ErrorInfoERKS2_PS3_EdeEv
FNDA:0,_ZNKSt15_Deque_iteratorIN4Json6Reader9ErrorInfoERKS2_PS3_EdeEv
FNDA:0,_ZNSt15_Deque_iteratorIN4Json9OurReader9ErrorInfoERS2_PS2_EppEv
FNDA:0,_ZNSt15_Deque_iteratorIN4Json6Reader9ErrorInfoERS2_PS2_EppEv
FNDA:0,_ZNSt15_Deque_iteratorIN4Json9OurReader9ErrorInfoERKS2_PS3_EppEv
FNDA:0,_ZNSt15_Deque_iteratorIN4Json6Reader9ErrorInfoERKS2_PS3_EppEv
FNDA:176030,_ZNSt15_Deque_iteratorIPN4Json5ValueERS2_PS2_EmmEv
FNDA:0,_ZNSt15_Deque_iteratorIN4Json9OurReader9ErrorInfoERS2_PS2_EpLEl
FNDA:0,_ZNSt15_Deque_iteratorIN4Json6Reader9ErrorInfoERS2_PS2_EpLEl
FNDA:0,_ZNKSt15_Deque_iteratorIN4Json9OurReader9ErrorInfoERS2_PS2_EplEl
FNDA:0,_ZNKSt15_Deque_iteratorIN4Json6Reader9ErrorInfoERS2_PS2_EplEl
FNDA:1612,_ZNSt15_Deque_iteratorIPN4Json5ValueERS2_PS2_E11_M_set_nodeEPS4_
FNDA:0,_ZNSt15_Deque_iteratorIN4Json9OurReader9ErrorInfoERS2_PS2_E11_M_set_nodeEPS4_
FNDA:806,_ZNSt15_Deque_iteratorIN4Json6Reader9ErrorInfoERS2_PS2_E11_M_set_nodeEPS4_
FNDA:0,_ZNSt15_Deque_iteratorIN4Json9OurReader9ErrorInfoERKS2_PS3_E11_M_set_nodeEPPS2_
FNDA:0,_ZNSt15_Deque_iteratorIN4Json6Reader9ErrorInfoERKS2_PS3_E11_M_set_nodeEPPS2_
FNDA:0,_ZSteqIN4Json9OurReader9ErrorInfoERS2_PS2_EbRKSt15_Deque_iteratorIT_T0_T1_ESB_
FNDA:0,_ZSteqIN4Json6Reader9ErrorInfoERS2_PS2_EbRKSt15_Deque_iteratorIT_T0_T1_ESB_
FNDA:403,_ZSteqIPN4Json5ValueERS2_PS2_EbRKSt15_Deque_iteratorIT_T0_T1_ESB_
FNDA:0,_ZSteqIN4Json9OurReader9ErrorInfoERKS2_PS3_EbRKSt15_Deque_iteratorIT_T0_T1_ESC_
FNDA:0,_ZSteqIN4Json6Reader9ErrorInfoERKS2_PS3_EbRKSt15_Deque_iteratorIT_T0_T1_ESC_
FNDA:0,_ZStneIN4Json9OurReader9ErrorInfoERS2_PS2_EbRKSt15_Deque_iteratorIT_T0_T1_ESB_
FNDA:0,_ZStneIN4Json6Reader9ErrorInfoERS2_PS2_EbRKSt15_Deque_iteratorIT_T0_T1_ESB_
FNDA:0,_ZStneIN4Json9OurReader9ErrorInfoERKS2_PS3_EbRKSt15_Deque_iteratorIT_T0_T1_ESC_
FNDA:0,_ZStneIN4Json6Reader9ErrorInfoERKS2_PS3_EbRKSt15_Deque_iteratorIT_T0_T1_ESC_
FNDA:0,_ZStmiIN4Json9OurReader9ErrorInfoERS2_PS2_ENSt15_Deque_iteratorIT_T0_T1_E15difference_typeERKS9_SC_
FNDA:0,_ZStmiIN4Json6Reader9ErrorInfoERS2_PS2_ENSt15_Deque_iteratorIT_T0_T1_E15difference_typeERKS9_SC_
FNDA:0,_ZNSt11_Deque_baseIN4Json9OurReader9ErrorInfoESaIS2_EEC2Ev
FNDA:403,_ZNSt11_Deque_baseIN4Json6Reader9ErrorInfoESaIS2_EEC2Ev
FNDA:403,_ZNSt11_Deque_baseIPN4Json5ValueESaIS2_EEC2Ev
FNDA:403,_ZNSt11_Deque_baseIPN4Json5ValueESaIS2_EEC2EOS4_
FNDA:0,_ZNSt11_Deque_baseIN4Json9OurReader9ErrorInfoESaIS2_EE11_Deque_implD2Ev
FNDA:403,_ZNSt11_Deque_baseIN4Json6Reader9ErrorInfoESaIS2_EE11_Deque_implD2Ev
FNDA:806,_ZNSt11_Deque_baseIPN4Json5ValueESaIS2_EE11_Deque_implD2Ev
FNDA:0,_ZNSt11_Deque_baseIN4Json9OurReader9ErrorInfoESaIS2_EE11_Deque_implC2Ev
FNDA:403,_ZNSt11_Deque_baseIN4Json6Reader9ErrorInfoESaIS2_EE11_Deque_implC2Ev
FNDA:403,_ZNSt11_Deque_baseIPN4Json5ValueESaIS2_EE11_Deque_implC2Ev
FNDA:403,_ZNSt11_Deque_baseIPN4Json5ValueESaIS2_EE11_Deque_implC2EOS3_
FNDA:0,_ZNSt11_Deque_baseIN4Json9OurReader9ErrorInfoESaIS2_EE19_M_get_Tp_allocatorEv
FNDA:1612,_ZNSt11_Deque_baseIN4Json6Reader9ErrorInfoESaIS2_EE19_M_get_Tp_allocatorEv
FNDA:1209,_ZNSt11_Deque_baseIPN4Json5ValueESaIS2_EE19_M_get_Tp_allocatorEv
FNDA:0,_ZNKSt11_Deque_baseIN4Json9OurReader9ErrorInfoESaIS2_EE19_M_get_Tp_allocatorEv
FNDA:806,_ZNKSt11_Deque_baseIN4Json6Reader9ErrorInfoESaIS2_EE19_M_get_Tp_allocatorEv
FNDA:1612,_ZNKSt11_Deque_baseIPN4Json5ValueESaIS2_EE19_M_get_Tp_allocatorEv
FNDA:0,_ZNKSt11_Deque_baseIN4Json9OurReader9ErrorInfoESaIS2_EE20_M_get_map_allocatorEv
FNDA:806,_ZNKSt11_Deque_baseIN4Json6Reader9ErrorInfoESaIS2_EE20_M_get_map_allocatorEv
FNDA:1612,_ZNKSt11_Deque_baseIPN4Json5ValueESaIS2_EE20_M_get_map_allocatorEv
FNDA:806,_ZNSt11_Deque_baseIPN4Json5ValueESaIS2_EE16_M_allocate_nodeEv
FNDA:0,_ZNSt11_Deque_baseIN4Json9OurReader9ErrorInfoESaIS2_EE16_M_allocate_nodeEv
FNDA:403,_ZNSt11_Deque_baseIN4Json6Reader9ErrorInfoESaIS2_EE16_M_allocate_nodeEv
FNDA:806,_ZNSt11_Deque_baseIPN4Json5ValueESaIS2_EE18_M_deallocate_nodeEPS2_
FNDA:0,_ZNSt11_Deque_baseIN4Json9OurReader9ErrorInfoESaIS2_EE18_M_deallocate_nodeEPS2_
FNDA:403,_ZNSt11_Deque_baseIN4Json6Reader9ErrorInfoESaIS2_EE18_M_deallocate_nodeEPS2_
FNDA:0,_ZNSt11_Deque_baseIN4Json9OurReader9ErrorInfoESaIS2_EE15_M_allocate_mapEm
FNDA:403,_ZNSt11_Deque_baseIN4Json6Reader9ErrorInfoESaIS2_EE15_M_allocate_mapEm
FNDA:806,_ZNSt11_Deque_baseIPN4Json5ValueESaIS2_EE15_M_allocate_mapEm
FNDA:0,_ZNSt11_Deque_baseIN4Json9OurReader9ErrorInfoESaIS2_EE17_M_deallocate_mapEPPS2_m
FNDA:403,_ZNSt11_Deque_baseIN4Json6Reader9ErrorInfoESaIS2_EE17_M_deallocate_mapEPPS2_m
FNDA:806,_ZNSt11_Deque_baseIPN4Json5ValueESaIS2_EE17_M_deallocate_mapEPPS2_m
FNDA:0,_ZNSt11_Deque_baseIN4Json9OurReader9ErrorInfoESaIS2_EED2Ev
FNDA:403,_ZNSt11_Deque_baseIN4Json6Reader9ErrorInfoESaIS2_EED2Ev
FNDA:806,_ZNSt11_Deque_baseIPN4Json5ValueESaIS2_EED2Ev
FNDA:0,_ZNSt11_Deque_baseIN4Json9OurReader9ErrorInfoESaIS2_EE17_M_initialize_mapEm
FNDA:403,_ZNSt11_Deque_baseIN4Json6Reader9ErrorInfoESaIS2_EE17_M_initialize_mapEm
FNDA:806,_ZNSt11_Deque_baseIPN4Json5ValueESaIS2_EE17_M_initialize_mapEm
FNDA:0,_ZNSt11_Deque_baseIN4Json9OurReader9ErrorInfoESaIS2_EE15_M_create_nodesEPPS2_S6_
FNDA:403,_ZNSt11_Deque_baseIN4Json6Reader9ErrorInfoESaIS2_EE15_M_create_nodesEPPS2_S6_
FNDA:806,_ZNSt11_Deque_baseIPN4Json5ValueESaIS2_EE15_M_create_nodesEPPS2_S6_
FNDA:0,_ZNSt11_Deque_baseIN4Json9OurReader9ErrorInfoESaIS2_EE16_M_destroy_nodesEPPS2_S6_
FNDA:806,_ZNSt11_Deque_baseIN4Json6Reader9ErrorInfoESaIS2_EE16_M_destroy_nodesEPPS2_S6_
FNDA:806,_ZNSt11_Deque_baseIPN4Json5ValueESaIS2_EE16_M_destroy_nodesEPPS2_S6_
FNDA:0,_ZNSt5dequeIN4Json9OurReader9ErrorInfoESaIS2_EE14_S_buffer_sizeEv
FNDA:0,_ZNSt5dequeIN4Json6Reader9ErrorInfoESaIS2_EE14_S_buffer_sizeEv
FNDA:0,_ZNSt5dequeIN4Json9OurReader9ErrorInfoESaIS2_EEC2Ev
FNDA:403,_ZNSt5dequeIN4Json6Reader9ErrorInfoESaIS2_EEC2Ev
FNDA:403,_ZNSt5dequeIPN4Json5ValueESaIS2_EEC2Ev
FNDA:403,_ZNSt5dequeIPN4Json5ValueESaIS2_EEC2EOS4_
FNDA:0,_ZNSt5dequeIN4Json9OurReader9ErrorInfoESaIS2_EED2Ev
FNDA:403,_ZNSt5dequeIN4Json6Reader9ErrorInfoESaIS2_EED2Ev
FNDA:806,_ZNSt5dequeIPN4Json5ValueESaIS2_EED2Ev
FNDA:0,_ZNSt5dequeIN4Json9OurReader9ErrorInfoESaIS2_EE5beginEv
FNDA:806,_ZNSt5dequeIN4Json6Reader9ErrorInfoESaIS2_EE5beginEv
FNDA:806,_ZNSt5dequeIPN4Json5ValueESaIS2_EE5beginEv
FNDA:0,_ZNKSt5dequeIN4Json9OurReader9ErrorInfoESaIS2_EE5beginEv
FNDA:0,_ZNKSt5dequeIN4Json6Reader9ErrorInfoESaIS2_EE5beginEv
FNDA:0,_ZNSt5dequeIN4Json9OurReader9ErrorInfoESaIS2_EE3endEv
FNDA:806,_ZNSt5dequeIN4Json6Reader9ErrorInfoESaIS2_EE3endEv
FNDA:176836,_ZNSt5dequeIPN4Json5ValueESaIS2_EE3endEv
FNDA:0,_ZNKSt5dequeIN4Json9OurReader9ErrorInfoESaIS2_EE3endEv
FNDA:0,_ZNKSt5dequeIN4Json6Reader9ErrorInfoESaIS2_EE3endEv
FNDA:0,_ZNKSt5dequeIN4Json9OurReader9ErrorInfoESaIS2_EE4sizeEv
FNDA:0,_ZNKSt5dequeIN4Json6Reader9ErrorInfoESaIS2_EE4sizeEv
FNDA:0,_ZNKSt5dequeIN4Json9OurReader9ErrorInfoESaIS2_EE8max_sizeEv
FNDA:0,_ZNKSt5dequeIN4Json6Reader9ErrorInfoESaIS2_EE8max_sizeEv
FNDA:0,_ZNSt5dequeIN4Json9OurReader9ErrorInfoESaIS2_EE6resizeEm
FNDA:0,_ZNSt5dequeIN4Json6Reader9ErrorInfoESaIS2_EE6resizeEm
FNDA:403,_ZNKSt5dequeIPN4Json5ValueESaIS2_EE5emptyEv
FNDA:176030,_ZNSt5dequeIPN4Json5ValueESaIS2_EE4backEv
FNDA:0,_ZNSt5dequeIN4Json9OurReader9ErrorInfoESaIS2_EE9push_backERKS2_
FNDA:31,_ZNSt5dequeIN4Json6Reader9ErrorInfoESaIS2_EE9push_backERKS2_
FNDA:35299,_ZNSt5dequeIPN4Json5ValueESaIS2_EE9push_backEOS2_
FNDA:34896,_ZNSt5dequeIPN4Json5ValueESaIS2_EE8pop_backEv
FNDA:0,_ZNSt5dequeIN4Json9OurReader9ErrorInfoESaIS2_EE5clearEv
FNDA:403,_ZNSt5dequeIN4Json6Reader9ErrorInfoESaIS2_EE5clearEv
FNDA:0,_ZNSt5dequeIN4Json9OurReader9ErrorInfoESaIS2_EE15_M_destroy_dataESt15_Deque_iteratorIS2_RS2_PS2_ES8_RKS3_
FNDA:806,_ZNSt5dequeIN4Json6Reader9ErrorInfoESaIS2_EE15_M_destroy_dataESt15_Deque_iteratorIS2_RS2_PS2_ES8_RKS3_
FNDA:806,_ZNSt5dequeIPN4Json5ValueESaIS2_EE15_M_destroy_dataESt15_Deque_iteratorIS2_RS2_PS2_ES8_RKS3_
FNDA:0,_ZNSt5dequeIN4Json9OurReader9ErrorInfoESaIS2_EE15_M_erase_at_endESt15_Deque_iteratorIS2_RS2_PS2_E
FNDA:403,_ZNSt5dequeIN4Json6Reader9ErrorInfoESaIS2_EE15_M_erase_at_endESt15_Deque_iteratorIS2_RS2_PS2_E
FNDA:0,_ZNSt5dequeIN4Json9OurReader9ErrorInfoESaIS2_EE27_M_reserve_elements_at_backEm
FNDA:0,_ZNSt5dequeIN4Json6Reader9ErrorInfoESaIS2_EE27_M_reserve_elements_at_backEm
FNDA:0,_ZNSt5dequeIPN4Json5ValueESaIS2_EE22_M_reserve_map_at_backEm
FNDA:0,_ZNSt5dequeIN4Json9OurReader9ErrorInfoESaIS2_EE22_M_reserve_map_at_backEm
FNDA:0,_ZNSt5dequeIN4Json6Reader9ErrorInfoESaIS2_EE22_M_reserve_map_at_backEm
FNF:131
FNH:60
DA:89,7254
DA:91,7254
DA:111,2418
DA:112,2418
DA:132,2418
DA:133,2418
DA:135,182075
DA:137,182075
DA:140,176030
DA:141,176030
DA:148,0
DA:150,0
DA:151,0
DA:153,0
DA:154,0
DA:156,0
DA:168,176030
DA:170,176030
DA:172,0
DA:173,0
DA:175,176030
DA:176,176030
DA:188,0
DA:190,0
DA:191,0
DA:192,0
DA:196,0
DA:198,0
DA:199,0
DA:200,0
DA:201,0
DA:203,0
DA:207,0
DA:209,0
DA:210,0
DA:234,2418
DA:236,2418
DA:237,2418
DA:238,2418
DA:239,2418
DA:247,403
DA:249,403
DA:260,0
DA:262,0
DA:331,0
DA:335,0
DA:337,0
DA:451,806
DA:452,806
DA:453,806
DA:468,403
DA:469,403
DA:471,403
DA:472,403
DA:474,403
DA:475,403
DA:476,403
DA:477,403
DA:479,403
DA:492,1209
DA:500,806
DA:502,806
DA:503,806
DA:511,403
DA:512,403
DA:513,403
DA:514,403
DA:519,2821
DA:520,2821
DA:523,2418
DA:524,2418
DA:527,2418
DA:528,2418
DA:531,1209
DA:533,1209
DA:537,1209
DA:539,1209
DA:540,1209
DA:543,1209
DA:544,1209
DA:547,1209
DA:548,1209
DA:560,1209
DA:563,1209
DA:565,1209
DA:566,1209
DA:567,1209
DA:569,1209
DA:581,1209
DA:584,1209
DA:585,1209
DA:587,1209
DA:588,2418
DA:589,1209
DA:597,1209
DA:598,1209
DA:601,1209
DA:602,=====
DA:604,=====
DA:605,=====
DA:606,=====
DA:607,=====
DA:610,1209
DA:611,1209
DA:612,1209
DA:613,1209
DA:614,2418
DA:615,1209
DA:616,1209
DA:620,1209
DA:626,2418
DA:627,1209
DA:629,=====
DA:631,=====
DA:632,=====
DA:634,1209
DA:638,1612
DA:641,2821
DA:642,1209
DA:643,1612
DA:757,0
DA:758,0
DA:782,806
DA:783,806
DA:855,403
DA:856,403
DA:917,1209
DA:918,1209
DA:1037,1612
DA:1038,1612
DA:1045,0
DA:1046,0
DA:1054,177642
DA:1055,177642
DA:1063,0
DA:1064,0
DA:1142,0
DA:1143,0
DA:1147,0
DA:1148,0
DA:1161,0
DA:1163,0
DA:1164,0
DA:1165,0
DA:1166,0
DA:1167,0
DA:1168,0
DA:1169,0
DA:1228,403
DA:1229,403
DA:1329,176030
DA:1331,176030
DA:1332,176030
DA:1333,176030
DA:1390,31
DA:1392,62
DA:1393,31
DA:1395,31
DA:1396,31
DA:1399,0
DA:1400,31
DA:1404,35299
DA:1405,35299
DA:1442,34896
DA:1444,34896
DA:1447,34896
DA:1448,34896
DA:1451,0
DA:1452,34896
DA:1616,403
DA:1617,403
DA:1849,1612
DA:1853,806
DA:1854,1612
DA:1868,403
DA:1870,403
DA:1871,403
DA:1872,403
DA:1873,403
DA:1874,403
DA:1898,0
DA:1901,0
DA:1902,0
DA:1903,0
DA:1904,0
DA:1924,0
DA:1926,0
DA:1928,0
DA:1929,0
LF:189
LH:126
end_of_record
SF:/usr/include/c++/4.8/bits/stl_function.h
FN:234,_ZNKSt4lessISsEclERKSsS2_
FN:234,_ZNKSt4lessIN4Json5Value8CZStringEEclERKS2_S5_
FN:477,_ZNKSt9_IdentityISsEclERSs
FN:481,_ZNKSt9_IdentityISsEclERKSs
FN:490,_ZNKSt10_Select1stISt4pairIKN4Json5Value8CZStringES2_EEclERS5_
FN:494,_ZNKSt10_Select1stISt4pairIKN4Json5Value8CZStringES2_EEclERKS5_
FNDA:752,_ZNKSt4lessISsEclERKSsS2_
FNDA:247155,_ZNKSt4lessIN4Json5Value8CZStringEEclERKS2_S5_
FNDA:0,_ZNKSt9_IdentityISsEclERSs
FNDA:0,_ZNKSt9_IdentityISsEclERKSs
FNDA:60983,_ZNKSt10_Select1stISt4pairIKN4Json5Value8CZStringES2_EEclERS5_
FNDA:247155,_ZNKSt10_Select1stISt4pairIKN4Json5Value8CZStringES2_EEclERKS5_
FNF:6
FNH:4
DA:234,247907
DA:235,247907
DA:477,0
DA:478,0
DA:481,0
DA:482,0
DA:490,60983
DA:491,60983
DA:494,247155
DA:495,247155
LF:10
LH:6
end_of_record
SF:/usr/include/c++/4.8/bits/stl_iterator.h
FN:726,_ZN9__gnu_cxx17__normal_iteratorIPKSsSt6vectorISsSaISsEEEC2ERKS2_
FN:726,_ZN9__gnu_cxx17__normal_iteratorIPKN4Json12PathArgumentESt6vectorIS2_SaIS2_EEEC2ERKS4_
FN:726,_ZN9__gnu_cxx17__normal_iteratorIPKPKN4Json12PathArgumentESt6vectorIS4_SaIS4_EEEC2ERKS6_
FN:726,_ZN9__gnu_cxx17__normal_iteratorIPKcSsEC2ERKS2_
FN:726,_ZN9__gnu_cxx17__normal_iteratorIPSsSt6vectorISsSaISsEEEC2ERKS1_
FN:738,_ZNK9__gnu_cxx17__normal_iteratorIPKPKN4Json12PathArgumentESt6vectorIS4_SaIS4_EEEdeEv
FN:738,_ZNK9__gnu_cxx17__normal_iteratorIPKcSsEdeEv
FN:738,_ZNK9__gnu_cxx17__normal_iteratorIPKN4Json12PathArgumentESt6vectorIS2_SaIS2_EEEdeEv
FN:738,_ZNK9__gnu_cxx17__normal_iteratorIPSsSt6vectorISsSaISsEEEdeEv
FN:746,_ZN9__gnu_cxx17__normal_iteratorIPKN4Json12PathArgumentESt6vectorIS2_SaIS2_EEEppEv
FN:746,_ZN9__gnu_cxx17__normal_iteratorIPSsSt6vectorISsSaISsEEEppEv
FN:746,_ZN9__gnu_cxx17__normal_iteratorIPKcSsEppEv
FN:778,_ZNK9__gnu_cxx17__normal_iteratorIPKcSsEplERKl
FN:790,_ZNK9__gnu_cxx17__normal_iteratorIPKcSsE4baseEv
FN:790,_ZNK9__gnu_cxx17__normal_iteratorIPKPKN4Json12PathArgumentESt6vectorIS4_SaIS4_EEE4baseEv
FN:790,_ZNK9__gnu_cxx17__normal_iteratorIPKSsSt6vectorISsSaISsEEE4baseEv
FN:790,_ZNK9__gnu_cxx17__normal_iteratorIPKN4Json12PathArgumentESt6vectorIS2_SaIS2_EEE4baseEv
FN:790,_ZNK9__gnu_cxx17__normal_iteratorIPSsSt6vectorISsSaISsEEE4baseEv
FN:811,_ZN9__gnu_cxxeqIPSsSt6vectorISsSaISsEEEEbRKNS_17__normal_iteratorIT_T0_EESA_
FN:811,_ZN9__gnu_cxxeqIPKPKN4Json12PathArgumentESt6vectorIS4_SaIS4_EEEEbRKNS_17__normal_iteratorIT_T0_EESF_
FN:811,_ZN9__gnu_cxxeqIPKSsSt6vectorISsSaISsEEEEbRKNS_17__normal_iteratorIT_T0_EESB_
FN:823,_ZN9__gnu_cxxneIPKN4Json12PathArgumentESt6vectorIS2_SaIS2_EEEEbRKNS_17__normal_iteratorIT_T0_EESD_
FN:823,_ZN9__gnu_cxxneIPKcSsEEbRKNS_17__normal_iteratorIT_T0_EES8_
FN:823,_ZN9__gnu_cxxneIPSsSt6vectorISsSaISsEEEEbRKNS_17__normal_iteratorIT_T0_EESA_
FN:950,_ZNSt13move_iteratorIPPKN4Json12PathArgumentEEC2ES4_
FN:950,_ZNSt13move_iteratorIPN4Json12PathArgumentEEC2ES2_
FN:950,_ZNSt13move_iteratorIPN4Json9OurReader15StructuredErrorEEC2ES3_
FN:950,_ZNSt13move_iteratorIPSsEC2ES0_
FN:950,_ZNSt13move_iteratorIPN4Json6Reader15StructuredErrorEEC2ES3_
FN:958,_ZNKSt13move_iteratorIPSsE4baseEv
FN:958,_ZNKSt13move_iteratorIPN4Json6Reader15StructuredErrorEE4baseEv
FN:958,_ZNKSt13move_iteratorIPN4Json9OurReader15StructuredErrorEE4baseEv
FN:958,_ZNKSt13move_iteratorIPPKN4Json12PathArgumentEE4baseEv
FN:958,_ZNKSt13move_iteratorIPN4Json12PathArgumentEE4baseEv
FN:962,_ZNKSt13move_iteratorIPSsEdeEv
FN:962,_ZNKSt13move_iteratorIPN4Json12PathArgumentEEdeEv
FN:962,_ZNKSt13move_iteratorIPN4Json9OurReader15StructuredErrorEEdeEv
FN:962,_ZNKSt13move_iteratorIPN4Json6Reader15StructuredErrorEEdeEv
FN:970,_ZNSt13move_iteratorIPN4Json9OurReader15StructuredErrorEEppEv
FN:970,_ZNSt13move_iteratorIPN4Json12PathArgumentEEppEv
FN:970,_ZNSt13move_iteratorIPSsEppEv
FN:970,_ZNSt13move_iteratorIPN4Json6Reader15StructuredErrorEEppEv
FN:1037,_ZSteqIPN4Json12PathArgumentEEbRKSt13move_iteratorIT_ES7_
FN:1037,_ZSteqIPN4Json9OurReader15StructuredErrorEEbRKSt13move_iteratorIT_ES8_
FN:1037,_ZSteqIPSsEbRKSt13move_iteratorIT_ES5_
FN:1037,_ZSteqIPN4Json6Reader15StructuredErrorEEbRKSt13move_iteratorIT_ES8_
FN:1049,_ZStneIPSsEbRKSt13move_iteratorIT_ES5_
FN:1049,_ZStneIPN4Json6Reader15StructuredErrorEEbRKSt13move_iteratorIT_ES8_
FN:1049,_ZStneIPN4Json9OurReader15StructuredErrorEEbRKSt13move_iteratorIT_ES8_
FN:1049,_ZStneIPN4Json12PathArgumentEEbRKSt13move_iteratorIT_ES7_
FN:1132,_ZSt32__make_move_if_noexcept_iteratorIPN4Json9OurReader15StructuredErrorESt13move_iteratorIS3_EET0_T_
FN:1132,_ZSt32__make_move_if_noexcept_iteratorIPSsSt13move_iteratorIS0_EET0_T_
FN:1132,_ZSt32__make_move_if_noexcept_iteratorIPPKN4Json12PathArgumentESt13move_iteratorIS4_EET0_T_
FN:1132,_ZSt32__make_move_if_noexcept_iteratorIPN4Json12PathArgumentESt13move_iteratorIS2_EET0_T_
FN:1132,_ZSt32__make_move_if_noexcept_iteratorIPN4Json6Reader15StructuredErrorESt13move_iteratorIS3_EET0_T_
FNDA:0,_ZN9__gnu_cxx17__normal_iteratorIPKSsSt6vectorISsSaISsEEEC2ERKS2_
FNDA:0,_ZN9__gnu_cxx17__normal_iteratorIPKcSsEC2ERKS2_
FNDA:54288,_ZN9__gnu_cxx17__normal_iteratorIPSsSt6vectorISsSaISsEEEC2ERKS1_
FNDA:0,_ZN9__gnu_cxx17__normal_iteratorIPKN4Json12PathArgumentESt6vectorIS2_SaIS2_EEEC2ERKS4_
FNDA:0,_ZN9__gnu_cxx17__normal_iteratorIPKPKN4Json12PathArgumentESt6vectorIS4_SaIS4_EEEC2ERKS6_
FNDA:0,_ZNK9__gnu_cxx17__normal_iteratorIPKcSsEdeEv
FNDA:18096,_ZNK9__gnu_cxx17__normal_iteratorIPSsSt6vectorISsSaISsEEEdeEv
FNDA:0,_ZNK9__gnu_cxx17__normal_iteratorIPKN4Json12PathArgumentESt6vectorIS2_SaIS2_EEEdeEv
FNDA:0,_ZNK9__gnu_cxx17__normal_iteratorIPKPKN4Json12PathArgumentESt6vectorIS4_SaIS4_EEEdeEv
FNDA:0,_ZN9__gnu_cxx17__normal_iteratorIPKcSsEppEv
FNDA:18096,_ZN9__gnu_cxx17__normal_iteratorIPSsSt6vectorISsSaISsEEEppEv
FNDA:0,_ZN9__gnu_cxx17__normal_iteratorIPKN4Json12PathArgumentESt6vectorIS2_SaIS2_EEEppEv
FNDA:0,_ZNK9__gnu_cxx17__normal_iteratorIPKcSsEplERKl
FNDA:0,_ZNK9__gnu_cxx17__normal_iteratorIPKSsSt6vectorISsSaISsEEE4baseEv
FNDA:0,_ZNK9__gnu_cxx17__normal_iteratorIPKcSsE4baseEv
FNDA:90480,_ZNK9__gnu_cxx17__normal_iteratorIPSsSt6vectorISsSaISsEEE4baseEv
FNDA:0,_ZNK9__gnu_cxx17__normal_iteratorIPKN4Json12PathArgumentESt6vectorIS2_SaIS2_EEE4baseEv
FNDA:0,_ZNK9__gnu_cxx17__normal_iteratorIPKPKN4Json12PathArgumentESt6vectorIS4_SaIS4_EEE4baseEv
FNDA:0,_ZN9__gnu_cxxeqIPKSsSt6vectorISsSaISsEEEEbRKNS_17__normal_iteratorIT_T0_EESB_
FNDA:0,_ZN9__gnu_cxxeqIPSsSt6vectorISsSaISsEEEEbRKNS_17__normal_iteratorIT_T0_EESA_
FNDA:0,_ZN9__gnu_cxxeqIPKPKN4Json12PathArgumentESt6vectorIS4_SaIS4_EEEEbRKNS_17__normal_iteratorIT_T0_EESF_
FNDA:0,_ZN9__gnu_cxxneIPKcSsEEbRKNS_17__normal_iteratorIT_T0_EES8_
FNDA:45240,_ZN9__gnu_cxxneIPSsSt6vectorISsSaISsEEEEbRKNS_17__normal_iteratorIT_T0_EESA_
FNDA:0,_ZN9__gnu_cxxneIPKN4Json12PathArgumentESt6vectorIS2_SaIS2_EEEEbRKNS_17__normal_iteratorIT_T0_EESD_
FNDA:0,_ZNSt13move_iteratorIPPKN4Json12PathArgumentEEC2ES4_
FNDA:0,_ZNSt13move_iteratorIPN4Json12PathArgumentEEC2ES2_
FNDA:0,_ZNSt13move_iteratorIPN4Json9OurReader15StructuredErrorEEC2ES3_
FNDA:0,_ZNSt13move_iteratorIPN4Json6Reader15StructuredErrorEEC2ES3_
FNDA:37408,_ZNSt13move_iteratorIPSsEC2ES0_
FNDA:0,_ZNKSt13move_iteratorIPPKN4Json12PathArgumentEE4baseEv
FNDA:0,_ZNKSt13move_iteratorIPN4Json12PathArgumentEE4baseEv
FNDA:0,_ZNKSt13move_iteratorIPN4Json9OurReader15StructuredErrorEE4baseEv
FNDA:0,_ZNKSt13move_iteratorIPN4Json6Reader15StructuredErrorEE4baseEv
FNDA:235632,_ZNKSt13move_iteratorIPSsE4baseEv
FNDA:0,_ZNKSt13move_iteratorIPN4Json12PathArgumentEEdeEv
FNDA:0,_ZNKSt13move_iteratorIPN4Json9OurReader15StructuredErrorEEdeEv
FNDA:0,_ZNKSt13move_iteratorIPN4Json6Reader15StructuredErrorEEdeEv
FNDA:99112,_ZNKSt13move_iteratorIPSsEdeEv
FNDA:0,_ZNSt13move_iteratorIPN4Json12PathArgumentEEppEv
FNDA:0,_ZNSt13move_iteratorIPN4Json9OurReader15StructuredErrorEEppEv
FNDA:0,_ZNSt13move_iteratorIPN4Json6Reader15StructuredErrorEEppEv
FNDA:99112,_ZNSt13move_iteratorIPSsEppEv
FNDA:0,_ZSteqIPN4Json12PathArgumentEEbRKSt13move_iteratorIT_ES7_
FNDA:0,_ZSteqIPN4Json9OurReader15StructuredErrorEEbRKSt13move_iteratorIT_ES8_
FNDA:0,_ZSteqIPN4Json6Reader15StructuredErrorEEbRKSt13move_iteratorIT_ES8_
FNDA:117816,_ZSteqIPSsEbRKSt13move_iteratorIT_ES5_
FNDA:0,_ZStneIPN4Json12PathArgumentEEbRKSt13move_iteratorIT_ES7_
FNDA:0,_ZStneIPN4Json9OurReader15StructuredErrorEEbRKSt13move_iteratorIT_ES8_
FNDA:0,_ZStneIPN4Json6Reader15StructuredErrorEEbRKSt13move_iteratorIT_ES8_
FNDA:117816,_ZStneIPSsEbRKSt13move_iteratorIT_ES5_
FNDA:0,_ZSt32__make_move_if_noexcept_iteratorIPPKN4Json12PathArgumentESt13move_iteratorIS4_EET0_T_
FNDA:0,_ZSt32__make_move_if_noexcept_iteratorIPN4Json12PathArgumentESt13move_iteratorIS2_EET0_T_
FNDA:0,_ZSt32__make_move_if_noexcept_iteratorIPN4Json9OurReader15StructuredErrorESt13move_iteratorIS3_EET0_T_
FNDA:0,_ZSt32__make_move_if_noexcept_iteratorIPN4Json6Reader15StructuredErrorESt13move_iteratorIS3_EET0_T_
FNDA:37408,_ZSt32__make_move_if_noexcept_iteratorIPSsSt13move_iteratorIS0_EET0_T_
FNF:55
FNH:12
DA:726,54288
DA:738,18096
DA:739,18096
DA:746,18096
DA:748,18096
DA:749,18096
DA:778,0
DA:779,0
DA:790,90480
DA:791,90480
DA:811,0
DA:813,0
DA:823,45240
DA:825,45240
DA:950,37408
DA:951,37408
DA:958,235632
DA:959,235632
DA:962,99112
DA:963,99112
DA:970,99112
DA:972,99112
DA:973,99112
DA:1037,117816
DA:1039,117816
DA:1049,117816
DA:1051,117816
DA:1132,37408
DA:1133,37408
LF:29
LH:25
end_of_record
SF:/usr/include/c++/4.8/bits/stl_iterator_base_funcs.h
FN:90,_ZSt10__distanceIPcENSt15iterator_traitsIT_E15difference_typeES2_S2_St26random_access_iterator_tag
FN:90,_ZSt10__distanceIPKcENSt15iterator_traitsIT_E15difference_typeES3_S3_St26random_access_iterator_tag
FN:114,_ZSt8distanceIPcENSt15iterator_traitsIT_E15difference_typeES2_S2_
FN:114,_ZSt8distanceIPKcENSt15iterator_traitsIT_E15difference_typeES3_S3_
FNDA:0,_ZSt10__distanceIPcENSt15iterator_traitsIT_E15difference_typeES2_S2_St26random_access_iterator_tag
FNDA:274898,_ZSt10__distanceIPKcENSt15iterator_traitsIT_E15difference_typeES3_S3_St26random_access_iterator_tag
FNDA:0,_ZSt8distanceIPcENSt15iterator_traitsIT_E15difference_typeES2_S2_
FNDA:274898,_ZSt8distanceIPKcENSt15iterator_traitsIT_E15difference_typeES3_S3_
FNF:4
FNH:2
DA:90,274898
DA:96,274898
DA:114,274898
DA:118,274898
LF:4
LH:4
end_of_record
SF:/usr/include/c++/4.8/bits/stl_iterator_base_types.h
FN:201,_ZSt19__iterator_categoryIPcENSt15iterator_traitsIT_E17iterator_categoryERKS2_
FN:201,_ZSt19__iterator_categoryIPKcENSt15iterator_traitsIT_E17iterator_categoryERKS3_
FN:212,_ZNSt10_Iter_baseISt23_Rb_tree_const_iteratorISt4pairIKN4Json5Value8CZStringES3_EELb0EE7_S_baseES7_
FN:212,_ZNSt10_Iter_baseIPPKN4Json12PathArgumentELb0EE7_S_baseES4_
FN:212,_ZNSt10_Iter_baseIPPN4Json6Reader9ErrorInfoELb0EE7_S_baseES4_
FN:212,_ZNSt10_Iter_baseIPPN4Json9OurReader9ErrorInfoELb0EE7_S_baseES4_
FN:212,_ZNSt10_Iter_baseIPPPN4Json5ValueELb0EE7_S_baseES4_
FN:220,_ZNSt10_Iter_baseISt13move_iteratorIPPKN4Json12PathArgumentEELb1EE7_S_baseES6_
FNDA:0,_ZSt19__iterator_categoryIPcENSt15iterator_traitsIT_E17iterator_categoryERKS2_
FNDA:274898,_ZSt19__iterator_categoryIPKcENSt15iterator_traitsIT_E17iterator_categoryERKS3_
FNDA:0,_ZNSt10_Iter_baseIPPKN4Json12PathArgumentELb0EE7_S_baseES4_
FNDA:0,_ZNSt10_Iter_baseIPPPN4Json5ValueELb0EE7_S_baseES4_
FNDA:0,_ZNSt10_Iter_baseIPPN4Json9OurReader9ErrorInfoELb0EE7_S_baseES4_
FNDA:0,_ZNSt10_Iter_baseIPPN4Json6Reader9ErrorInfoELb0EE7_S_baseES4_
FNDA:0,_ZNSt10_Iter_baseISt23_Rb_tree_const_iteratorISt4pairIKN4Json5Value8CZStringES3_EELb0EE7_S_baseES7_
FNDA:0,_ZNSt10_Iter_baseISt13move_iteratorIPPKN4Json12PathArgumentEELb1EE7_S_baseES6_
FNF:8
FNH:1
DA:201,274898
DA:202,274898
DA:212,0
DA:213,0
DA:220,0
DA:221,0
LF:6
LH:2
end_of_record
SF:/usr/include/c++/4.8/bits/stl_map.h
FN:96,_ZNSt3mapIN4Json5Value8CZStringES1_St4lessIS2_ESaISt4pairIKS2_S1_EEED2Ev
FN:160,_ZNSt3mapIN4Json5Value8CZStringES1_St4lessIS2_ESaISt4pairIKS2_S1_EEEC2Ev
FN:180,_ZNSt3mapIN4Json5Value8CZStringES1_St4lessIS2_ESaISt4pairIKS2_S1_EEEC2ERKS9_
FN:320,_ZNSt3mapIN4Json5Value8CZStringES1_St4lessIS2_ESaISt4pairIKS2_S1_EEE5beginEv
FN:338,_ZNSt3mapIN4Json5Value8CZStringES1_St4lessIS2_ESaISt4pairIKS2_S1_EEE3endEv
FN:429,_ZNKSt3mapIN4Json5Value8CZStringES1_St4lessIS2_ESaISt4pairIKS2_S1_EEE5emptyEv
FN:434,_ZNKSt3mapIN4Json5Value8CZStringES1_St4lessIS2_ESaISt4pairIKS2_S1_EEE4sizeEv
FN:456,_ZNSt3mapIN4Json5Value8CZStringES1_St4lessIS2_ESaISt4pairIKS2_S1_EEEixERS6_
FN:655,_ZNSt3mapIN4Json5Value8CZStringES1_St4lessIS2_ESaISt4pairIKS2_S1_EEE6insertIRS7_vEESt17_Rb_tree_iteratorIS7_ESt23_Rb_tree_const_iteratorIS7_EOT_
FN:696,_ZNSt3mapIN4Json5Value8CZStringES1_St4lessIS2_ESaISt4pairIKS2_S1_EEE5eraseB5cxx11ESt17_Rb_tree_iteratorIS7_E
FN:726,_ZNSt3mapIN4Json5Value8CZStringES1_St4lessIS2_ESaISt4pairIKS2_S1_EEE5eraseERS6_
FN:788,_ZNSt3mapIN4Json5Value8CZStringES1_St4lessIS2_ESaISt4pairIKS2_S1_EEE5clearEv
FN:797,_ZNKSt3mapIN4Json5Value8CZStringES1_St4lessIS2_ESaISt4pairIKS2_S1_EEE8key_compEv
FN:821,_ZNSt3mapIN4Json5Value8CZStringES1_St4lessIS2_ESaISt4pairIKS2_S1_EEE4findERS6_
FN:863,_ZNSt3mapIN4Json5Value8CZStringES1_St4lessIS2_ESaISt4pairIKS2_S1_EEE11lower_boundERS6_
FN:962,_ZSteqIN4Json5Value8CZStringES1_St4lessIS2_ESaISt4pairIKS2_S1_EEEbRKSt3mapIT_T0_T1_T2_ESG_
FN:979,_ZStltIN4Json5Value8CZStringES1_St4lessIS2_ESaISt4pairIKS2_S1_EEEbRKSt3mapIT_T0_T1_T2_ESG_
FNDA:26939,_ZNSt3mapIN4Json5Value8CZStringES1_St4lessIS2_ESaISt4pairIKS2_S1_EEED2Ev
FNDA:13208,_ZNSt3mapIN4Json5Value8CZStringES1_St4lessIS2_ESaISt4pairIKS2_S1_EEEC2Ev
FNDA:13731,_ZNSt3mapIN4Json5Value8CZStringES1_St4lessIS2_ESaISt4pairIKS2_S1_EEEC2ERKS9_
FNDA:9048,_ZNSt3mapIN4Json5Value8CZStringES1_St4lessIS2_ESaISt4pairIKS2_S1_EEE5beginEv
FNDA:77864,_ZNSt3mapIN4Json5Value8CZStringES1_St4lessIS2_ESaISt4pairIKS2_S1_EEE3endEv
FNDA:2494,_ZNKSt3mapIN4Json5Value8CZStringES1_St4lessIS2_ESaISt4pairIKS2_S1_EEE5emptyEv
FNDA:9048,_ZNKSt3mapIN4Json5Value8CZStringES1_St4lessIS2_ESaISt4pairIKS2_S1_EEE4sizeEv
FNDA:0,_ZNSt3mapIN4Json5Value8CZStringES1_St4lessIS2_ESaISt4pairIKS2_S1_EEEixERS6_
FNDA:36879,_ZNSt3mapIN4Json5Value8CZStringES1_St4lessIS2_ESaISt4pairIKS2_S1_EEE6insertIRS7_vEESt17_Rb_tree_iteratorIS7_ESt23_Rb_tree_const_iteratorIS7_EOT_
FNDA:0,_ZNSt3mapIN4Json5Value8CZStringES1_St4lessIS2_ESaISt4pairIKS2_S1_EEE5eraseB5cxx11ESt17_Rb_tree_iteratorIS7_E
FNDA:0,_ZNSt3mapIN4Json5Value8CZStringES1_St4lessIS2_ESaISt4pairIKS2_S1_EEE5eraseERS6_
FNDA:0,_ZNSt3mapIN4Json5Value8CZStringES1_St4lessIS2_ESaISt4pairIKS2_S1_EEE5clearEv
FNDA:0,_ZNKSt3mapIN4Json5Value8CZStringES1_St4lessIS2_ESaISt4pairIKS2_S1_EEE8key_compEv
FNDA:27444,_ZNSt3mapIN4Json5Value8CZStringES1_St4lessIS2_ESaISt4pairIKS2_S1_EEE4findERS6_
FNDA:39119,_ZNSt3mapIN4Json5Value8CZStringES1_St4lessIS2_ESaISt4pairIKS2_S1_EEE11lower_boundERS6_
FNDA:0,_ZSteqIN4Json5Value8CZStringES1_St4lessIS2_ESaISt4pairIKS2_S1_EEEbRKSt3mapIT_T0_T1_T2_ESG_
FNDA:0,_ZStltIN4Json5Value8CZStringES1_St4lessIS2_ESaISt4pairIKS2_S1_EEEbRKSt3mapIT_T0_T1_T2_ESG_
FNF:17
FNH:10
DA:96,26939
DA:160,13208
DA:161,13208
DA:180,13731
DA:181,13731
DA:320,9048
DA:321,9048
DA:338,77864
DA:339,77864
DA:429,2494
DA:430,2494
DA:434,9048
DA:435,9048
DA:456,0
DA:461,0
DA:463,0
DA:465,0
DA:471,0
DA:655,36879
DA:657,36879
DA:696,0
DA:697,0
DA:726,0
DA:727,0
DA:788,0
DA:789,0
DA:797,0
DA:798,0
DA:821,27444
DA:822,27444
DA:863,39119
DA:864,39119
DA:962,0
DA:964,0
DA:979,0
DA:981,0
LF:36
LH:19
end_of_record
SF:/usr/include/c++/4.8/bits/stl_pair.h
FN:96,_ZNSt4pairIKN4Json5Value8CZStringES1_ED2Ev
FN:127,_ZNSt4pairIKN4Json5Value8CZStringES1_EC2ERKS4_
FN:133,_ZNSt4pairIKN4Json5Value8CZStringES1_EC1IRS2_vEEOT_RKS1_
FN:133,_ZNSt4pairIPSt18_Rb_tree_node_baseS1_EC2IRS1_vEEOT_RKS1_
FN:138,_ZNSt4pairIPSt18_Rb_tree_node_baseS1_EC2IRS1_vEERKS1_OT_
FN:144,_ZNSt4pairIPSt18_Rb_tree_node_baseS1_EC2IRPSt13_Rb_tree_nodeIS_IKN4Json5Value8CZStringES6_EESC_vEEOT_OT0_
FN:144,_ZNSt4pairISt17_Rb_tree_iteratorIS_IKN4Json5Value8CZStringES2_EES6_EC2IS6_S6_vEEOT_OT0_
FN:144,_ZNSt4pairISt17_Rb_tree_iteratorISsEbEC2IS1_bvEEOT_OT0_
FN:144,_ZNSt4pairIPSt18_Rb_tree_node_baseS1_EC2IRS1_S4_vEEOT_OT0_
FN:144,_ZNSt4pairIPSt18_Rb_tree_node_baseS1_EC2IRPSt13_Rb_tree_nodeISsES7_vEEOT_OT0_
FN:144,_ZNSt4pairISt23_Rb_tree_const_iteratorISsEbEC2IRSt17_Rb_tree_iteratorISsERbvEEOT_OT0_
FN:214,_ZSteqIKN4Json5Value8CZStringES1_EbRKSt4pairIT_T0_ES9_
FN:220,_ZStltIKN4Json5Value8CZStringES1_EbRKSt4pairIT_T0_ES9_
FNDA:112204,_ZNSt4pairIKN4Json5Value8CZStringES1_ED2Ev
FNDA:75325,_ZNSt4pairIKN4Json5Value8CZStringES1_EC2ERKS4_
FNDA:0,_ZNSt4pairIPSt18_Rb_tree_node_baseS1_EC2IRS1_vEEOT_RKS1_
FNDA:36879,_ZNSt4pairIKN4Json5Value8CZStringES1_EC1IRS2_vEEOT_RKS1_
FNDA:24210,_ZNSt4pairIPSt18_Rb_tree_node_baseS1_EC2IRS1_vEERKS1_OT_
FNDA:12773,_ZNSt4pairIPSt18_Rb_tree_node_baseS1_EC2IRPSt13_Rb_tree_nodeIS_IKN4Json5Value8CZStringES6_EESC_vEEOT_OT0_
FNDA:16,_ZNSt4pairIPSt18_Rb_tree_node_baseS1_EC2IRS1_S4_vEEOT_OT0_
FNDA:0,_ZNSt4pairISt17_Rb_tree_iteratorIS_IKN4Json5Value8CZStringES2_EES6_EC2IS6_S6_vEEOT_OT0_
FNDA:0,_ZNSt4pairIPSt18_Rb_tree_node_baseS1_EC2IRPSt13_Rb_tree_nodeISsES7_vEEOT_OT0_
FNDA:0,_ZNSt4pairISt17_Rb_tree_iteratorISsEbEC2IS1_bvEEOT_OT0_
FNDA:0,_ZNSt4pairISt23_Rb_tree_const_iteratorISsEbEC2IRSt17_Rb_tree_iteratorISsERbvEEOT_OT0_
FNDA:0,_ZSteqIKN4Json5Value8CZStringES1_EbRKSt4pairIT_T0_ES9_
FNDA:0,_ZStltIKN4Json5Value8CZStringES1_EbRKSt4pairIT_T0_ES9_
FNF:13
FNH:6
DA:96,112204
DA:127,75325
DA:133,36879
DA:134,36879
DA:138,24210
DA:139,24210
DA:144,12789
DA:145,12789
DA:214,0
DA:215,0
DA:220,0
DA:221,0
DA:222,0
LF:13
LH:8
end_of_record
SF:/usr/include/c++/4.8/bits/stl_set.h
FN:90,_ZNSt3setISsSt4lessISsESaISsEED2Ev
FN:139,_ZNSt3setISsSt4lessISsESaISsEEC2Ev
FN:307,_ZNKSt3setISsSt4lessISsESaISsEE3endEv
FN:469,_ZNSt3setISsSt4lessISsESaISsEE6insertEOSs
FN:630,_ZNSt3setISsSt4lessISsESaISsEE5clearEv
FN:662,_ZNSt3setISsSt4lessISsESaISsEE4findERKSs
FNDA:20,_ZNSt3setISsSt4lessISsESaISsEED2Ev
FNDA:0,_ZNSt3setISsSt4lessISsESaISsEEC2Ev
FNDA:0,_ZNKSt3setISsSt4lessISsESaISsEE3endEv
FNDA:0,_ZNSt3setISsSt4lessISsESaISsEE6insertEOSs
FNDA:0,_ZNSt3setISsSt4lessISsESaISsEE5clearEv
FNDA:0,_ZNSt3setISsSt4lessISsESaISsEE4findERKSs
FNF:6
FNH:1
DA:90,20
DA:139,0
DA:140,0
DA:307,0
DA:308,0
DA:469,0
DA:472,0
DA:473,0
DA:630,0
DA:631,0
DA:662,0
DA:663,0
LF:12
LH:1
end_of_record
SF:/usr/include/c++/4.8/bits/stl_stack.h
FN:96,_ZNSt5stackIPN4Json5ValueESt5dequeIS2_SaIS2_EEED2Ev
FN:138,_ZNSt5stackIPN4Json5ValueESt5dequeIS2_SaIS2_EEEC2EOS5_
FN:146,_ZNKSt5stackIPN4Json5ValueESt5dequeIS2_SaIS2_EEE5emptyEv
FN:159,_ZNSt5stackIPN4Json5ValueESt5dequeIS2_SaIS2_EEE3topEv
FN:191,_ZNSt5stackIPN4Json5ValueESt5dequeIS2_SaIS2_EEE4pushEOS2_
FN:212,_ZNSt5stackIPN4Json5ValueESt5dequeIS2_SaIS2_EEE3popEv
FNDA:403,_ZNSt5stackIPN4Json5ValueESt5dequeIS2_SaIS2_EEED2Ev
FNDA:403,_ZNSt5stackIPN4Json5ValueESt5dequeIS2_SaIS2_EEEC2EOS5_
FNDA:403,_ZNKSt5stackIPN4Json5ValueESt5dequeIS2_SaIS2_EEE5emptyEv
FNDA:176030,_ZNSt5stackIPN4Json5ValueESt5dequeIS2_SaIS2_EEE3topEv
FNDA:35299,_ZNSt5stackIPN4Json5ValueESt5dequeIS2_SaIS2_EEE4pushEOS2_
FNDA:34896,_ZNSt5stackIPN4Json5ValueESt5dequeIS2_SaIS2_EEE3popEv
FNF:6
FNH:6
DA:96,403
DA:138,403
DA:139,403
DA:146,403
DA:147,403
DA:159,176030
DA:162,176030
DA:191,35299
DA:192,35299
DA:212,34896
DA:215,34896
DA:216,34896
LF:12
LH:12
end_of_record
SF:/usr/include/c++/4.8/bits/stl_tree.h
FN:102,_ZNSt18_Rb_tree_node_base10_S_minimumEPS_
FN:116,_ZNSt18_Rb_tree_node_base10_S_maximumEPS_
FN:131,_ZNSt13_Rb_tree_nodeISsED2Ev
FN:131,_ZNSt13_Rb_tree_nodeISt4pairIKN4Json5Value8CZStringES2_EED2Ev
FN:138,_ZNSt13_Rb_tree_nodeISt4pairIKN4Json5Value8CZStringES2_EEC2IIRKS5_EEEDpOT_
FN:138,_ZNSt13_Rb_tree_nodeISsEC2IISsEEEDpOT_
FN:138,_ZNSt13_Rb_tree_nodeISt4pairIKN4Json5Value8CZStringES2_EEC2IIRS5_EEEDpOT_
FN:138,_ZNSt13_Rb_tree_nodeISt4pairIKN4Json5Value8CZStringES2_EEC2IIRKSt21piecewise_construct_tSt5tupleIIRS4_EESB_IIEEEEEDpOT_
FN:170,_ZNSt17_Rb_tree_iteratorISt4pairIKN4Json5Value8CZStringES2_EEC2Ev
FN:174,_ZNSt17_Rb_tree_iteratorISt4pairIKN4Json5Value8CZStringES2_EEC2EPSt13_Rb_tree_nodeIS5_E
FN:174,_ZNSt17_Rb_tree_iteratorISsEC2EPSt13_Rb_tree_nodeISsE
FN:178,_ZNKSt17_Rb_tree_iteratorISt4pairIKN4Json5Value8CZStringES2_EEdeEv
FN:182,_ZNKSt17_Rb_tree_iteratorISt4pairIKN4Json5Value8CZStringES2_EEptEv
FN:187,_ZNSt17_Rb_tree_iteratorISt4pairIKN4Json5Value8CZStringES2_EEppEv
FN:202,_ZNSt17_Rb_tree_iteratorISt4pairIKN4Json5Value8CZStringES2_EEmmEv
FN:202,_ZNSt17_Rb_tree_iteratorISsEmmEv
FN:217,_ZNKSt17_Rb_tree_iteratorISsEeqERKS0_
FN:217,_ZNKSt17_Rb_tree_iteratorISt4pairIKN4Json5Value8CZStringES2_EEeqERKS6_
FN:221,_ZNKSt17_Rb_tree_iteratorISt4pairIKN4Json5Value8CZStringES2_EEneERKS6_
FN:247,_ZNSt23_Rb_tree_const_iteratorISsEC2EPKSt13_Rb_tree_nodeISsE
FN:247,_ZNSt23_Rb_tree_const_iteratorISt4pairIKN4Json5Value8CZStringES2_EEC2EPKSt13_Rb_tree_nodeIS5_E
FN:250,_ZNSt23_Rb_tree_const_iteratorISt4pairIKN4Json5Value8CZStringES2_EEC2ERKSt17_Rb_tree_iteratorIS5_E
FN:250,_ZNSt23_Rb_tree_const_iteratorISsEC2ERKSt17_Rb_tree_iteratorISsE
FN:254,_ZNKSt23_Rb_tree_const_iteratorISt4pairIKN4Json5Value8CZStringES2_EE13_M_const_castEv
FN:259,_ZNKSt23_Rb_tree_const_iteratorISt4pairIKN4Json5Value8CZStringES2_EEdeEv
FN:268,_ZNSt23_Rb_tree_const_iteratorISt4pairIKN4Json5Value8CZStringES2_EEppEv
FN:275,_ZNSt23_Rb_tree_const_iteratorISt4pairIKN4Json5Value8CZStringES2_EEppEi
FN:283,_ZNSt23_Rb_tree_const_iteratorISt4pairIKN4Json5Value8CZStringES2_EEmmEv
FN:298,_ZNKSt23_Rb_tree_const_iteratorISt4pairIKN4Json5Value8CZStringES2_EEeqERKS6_
FN:298,_ZNKSt23_Rb_tree_const_iteratorISsEeqERKS0_
FN:302,_ZNKSt23_Rb_tree_const_iteratorISt4pairIKN4Json5Value8CZStringES2_EEneERKS6_
FN:356,_ZNSt8_Rb_treeIN4Json5Value8CZStringESt4pairIKS2_S1_ESt10_Select1stIS5_ESt4lessIS2_ESaIS5_EE21_M_get_Node_allocatorEv
FN:356,_ZNSt8_Rb_treeISsSsSt9_IdentityISsESt4lessISsESaISsEE21_M_get_Node_allocatorEv
FN:360,_ZNKSt8_Rb_treeIN4Json5Value8CZStringESt4pairIKS2_S1_ESt10_Select1stIS5_ESt4lessIS2_ESaIS5_EE21_M_get_Node_allocatorEv
FN:369,_ZNSt8_Rb_treeIN4Json5Value8CZStringESt4pairIKS2_S1_ESt10_Select1stIS5_ESt4lessIS2_ESaIS5_EE11_M_get_nodeEv
FN:369,_ZNSt8_Rb_treeISsSsSt9_IdentityISsESt4lessISsESaISsEE11_M_get_nodeEv
FN:373,_ZNSt8_Rb_treeISsSsSt9_IdentityISsESt4lessISsESaISsEE11_M_put_nodeEPSt13_Rb_tree_nodeISsE
FN:373,_ZNSt8_Rb_treeIN4Json5Value8CZStringESt4pairIKS2_S1_ESt10_Select1stIS5_ESt4lessIS2_ESaIS5_EE11_M_put_nodeEPSt13_Rb_tree_nodeIS5_E
FN:401,_ZNSt8_Rb_treeIN4Json5Value8CZStringESt4pairIKS2_S1_ESt10_Select1stIS5_ESt4lessIS2_ESaIS5_EE14_M_create_nodeIIRKSt21piecewise_construct_tSt5tupleIIRS4_EESG_IIEEEEEPSt13_Rb_tree_nodeIS5_EDpOT_
FN:401,_ZNSt8_Rb_treeISsSsSt9_IdentityISsESt4lessISsESaISsEE14_M_create_nodeIISsEEEPSt13_Rb_tree_nodeISsEDpOT_
FN:401,_ZNSt8_Rb_treeIN4Json5Value8CZStringESt4pairIKS2_S1_ESt10_Select1stIS5_ESt4lessIS2_ESaIS5_EE14_M_create_nodeIIRS5_EEEPSt13_Rb_tree_nodeIS5_EDpOT_
FN:401,_ZNSt8_Rb_treeIN4Json5Value8CZStringESt4pairIKS2_S1_ESt10_Select1stIS5_ESt4lessIS2_ESaIS5_EE14_M_create_nodeIIRKS5_EEEPSt13_Rb_tree_nodeIS5_EDpOT_
FN:419,_ZNSt8_Rb_treeIN4Json5Value8CZStringESt4pairIKS2_S1_ESt10_Select1stIS5_ESt4lessIS2_ESaIS5_EE15_M_destroy_nodeEPSt13_Rb_tree_nodeIS5_E
FN:419,_ZNSt8_Rb_treeISsSsSt9_IdentityISsESt4lessISsESaISsEE15_M_destroy_nodeEPSt13_Rb_tree_nodeISsE
FN:427,_ZNSt8_Rb_treeIN4Json5Value8CZStringESt4pairIKS2_S1_ESt10_Select1stIS5_ESt4lessIS2_ESaIS5_EE13_M_clone_nodeEPKSt13_Rb_tree_nodeIS5_E
FN:439,_ZNSt8_Rb_treeIN4Json5Value8CZStringESt4pairIKS2_S1_ESt10_Select1stIS5_ESt4lessIS2_ESaIS5_EE13_Rb_tree_implIS9_Lb1EED2Ev
FN:439,_ZNSt8_Rb_treeISsSsSt9_IdentityISsESt4lessISsESaISsEE13_Rb_tree_implIS3_Lb1EED2Ev
FN:445,_ZNSt8_Rb_treeISsSsSt9_IdentityISsESt4lessISsESaISsEE13_Rb_tree_implIS3_Lb1EEC2Ev
FN:445,_ZNSt8_Rb_treeIN4Json5Value8CZStringESt4pairIKS2_S1_ESt10_Select1stIS5_ESt4lessIS2_ESaIS5_EE13_Rb_tree_implIS9_Lb1EEC2Ev
FN:450,_ZNSt8_Rb_treeIN4Json5Value8CZStringESt4pairIKS2_S1_ESt10_Select1stIS5_ESt4lessIS2_ESaIS5_EE13_Rb_tree_implIS9_Lb1EEC2ERKS9_RKSaISt13_Rb_tree_nodeIS5_EE
FN:464,_ZNSt8_Rb_treeISsSsSt9_IdentityISsESt4lessISsESaISsEE13_Rb_tree_implIS3_Lb1EE13_M_initializeEv
FN:464,_ZNSt8_Rb_treeIN4Json5Value8CZStringESt4pairIKS2_S1_ESt10_Select1stIS5_ESt4lessIS2_ESaIS5_EE13_Rb_tree_implIS9_Lb1EE13_M_initializeEv
FN:477,_ZNSt8_Rb_treeIN4Json5Value8CZStringESt4pairIKS2_S1_ESt10_Select1stIS5_ESt4lessIS2_ESaIS5_EE7_M_rootEv
FN:477,_ZNSt8_Rb_treeISsSsSt9_IdentityISsESt4lessISsESaISsEE7_M_rootEv
FN:481,_ZNKSt8_Rb_treeIN4Json5Value8CZStringESt4pairIKS2_S1_ESt10_Select1stIS5_ESt4lessIS2_ESaIS5_EE7_M_rootEv
FN:485,_ZNSt8_Rb_treeIN4Json5Value8CZStringESt4pairIKS2_S1_ESt10_Select1stIS5_ESt4lessIS2_ESaIS5_EE11_M_leftmostEv
FN:485,_ZNSt8_Rb_treeISsSsSt9_IdentityISsESt4lessISsESaISsEE11_M_leftmostEv
FN:493,_ZNSt8_Rb_treeISsSsSt9_IdentityISsESt4lessISsESaISsEE12_M_rightmostEv
FN:493,_ZNSt8_Rb_treeIN4Json5Value8CZStringESt4pairIKS2_S1_ESt10_Select1stIS5_ESt4lessIS2_ESaIS5_EE12_M_rightmostEv
FN:501,_ZNSt8_Rb_treeIN4Json5Value8CZStringESt4pairIKS2_S1_ESt10_Select1stIS5_ESt4lessIS2_ESaIS5_EE8_M_beginEv
FN:501,_ZNSt8_Rb_treeISsSsSt9_IdentityISsESt4lessISsESaISsEE8_M_beginEv
FN:505,_ZNKSt8_Rb_treeIN4Json5Value8CZStringESt4pairIKS2_S1_ESt10_Select1stIS5_ESt4lessIS2_ESaIS5_EE8_M_beginEv
FN:512,_ZNSt8_Rb_treeIN4Json5Value8CZStringESt4pairIKS2_S1_ESt10_Select1stIS5_ESt4lessIS2_ESaIS5_EE6_M_endEv
FN:512,_ZNSt8_Rb_treeISsSsSt9_IdentityISsESt4lessISsESaISsEE6_M_endEv
FN:520,_ZNSt8_Rb_treeIN4Json5Value8CZStringESt4pairIKS2_S1_ESt10_Select1stIS5_ESt4lessIS2_ESaIS5_EE8_S_valueEPKSt13_Rb_tree_nodeIS5_E
FN:520,_ZNSt8_Rb_treeISsSsSt9_IdentityISsESt4lessISsESaISsEE8_S_valueEPKSt13_Rb_tree_nodeISsE
FN:524,_ZNSt8_Rb_treeIN4Json5Value8CZStringESt4pairIKS2_S1_ESt10_Select1stIS5_ESt4lessIS2_ESaIS5_EE6_S_keyEPKSt13_Rb_tree_nodeIS5_E
FN:524,_ZNSt8_Rb_treeISsSsSt9_IdentityISsESt4lessISsESaISsEE6_S_keyEPKSt13_Rb_tree_nodeISsE
FN:528,_ZNSt8_Rb_treeISsSsSt9_IdentityISsESt4lessISsESaISsEE7_S_leftEPSt18_Rb_tree_node_base
FN:528,_ZNSt8_Rb_treeIN4Json5Value8CZStringESt4pairIKS2_S1_ESt10_Select1stIS5_ESt4lessIS2_ESaIS5_EE7_S_leftEPSt18_Rb_tree_node_base
FN:532,_ZNSt8_Rb_treeIN4Json5Value8CZStringESt4pairIKS2_S1_ESt10_Select1stIS5_ESt4lessIS2_ESaIS5_EE7_S_leftEPKSt18_Rb_tree_node_base
FN:536,_ZNSt8_Rb_treeISsSsSt9_IdentityISsESt4lessISsESaISsEE8_S_rightEPSt18_Rb_tree_node_base
FN:536,_ZNSt8_Rb_treeIN4Json5Value8CZStringESt4pairIKS2_S1_ESt10_Select1stIS5_ESt4lessIS2_ESaIS5_EE8_S_rightEPSt18_Rb_tree_node_base
FN:540,_ZNSt8_Rb_treeIN4Json5Value8CZStringESt4pairIKS2_S1_ESt10_Select1stIS5_ESt4lessIS2_ESaIS5_EE8_S_rightEPKSt18_Rb_tree_node_base
FN:544,_ZNSt8_Rb_treeIN4Json5Value8CZStringESt4pairIKS2_S1_ESt10_Select1stIS5_ESt4lessIS2_ESaIS5_EE8_S_valueEPKSt18_Rb_tree_node_base
FN:544,_ZNSt8_Rb_treeISsSsSt9_IdentityISsESt4lessISsESaISsEE8_S_valueEPKSt18_Rb_tree_node_base
FN:548,_ZNSt8_Rb_treeISsSsSt9_IdentityISsESt4lessISsESaISsEE6_S_keyEPKSt18_Rb_tree_node_base
FN:548,_ZNSt8_Rb_treeIN4Json5Value8CZStringESt4pairIKS2_S1_ESt10_Select1stIS5_ESt4lessIS2_ESaIS5_EE6_S_keyEPKSt18_Rb_tree_node_base
FN:552,_ZNSt8_Rb_treeIN4Json5Value8CZStringESt4pairIKS2_S1_ESt10_Select1stIS5_ESt4lessIS2_ESaIS5_EE10_S_minimumEPSt18_Rb_tree_node_base
FN:560,_ZNSt8_Rb_treeIN4Json5Value8CZStringESt4pairIKS2_S1_ESt10_Select1stIS5_ESt4lessIS2_ESaIS5_EE10_S_maximumEPSt18_Rb_tree_node_base
FN:648,_ZNSt8_Rb_treeISsSsSt9_IdentityISsESt4lessISsESaISsEEC2Ev
FN:648,_ZNSt8_Rb_treeIN4Json5Value8CZStringESt4pairIKS2_S1_ESt10_Select1stIS5_ESt4lessIS2_ESaIS5_EEC2Ev
FN:654,_ZNSt8_Rb_treeIN4Json5Value8CZStringESt4pairIKS2_S1_ESt10_Select1stIS5_ESt4lessIS2_ESaIS5_EEC2ERKSB_
FN:670,_ZNSt8_Rb_treeIN4Json5Value8CZStringESt4pairIKS2_S1_ESt10_Select1stIS5_ESt4lessIS2_ESaIS5_EED2Ev
FN:670,_ZNSt8_Rb_treeISsSsSt9_IdentityISsESt4lessISsESaISsEED2Ev
FN:678,_ZNKSt8_Rb_treeIN4Json5Value8CZStringESt4pairIKS2_S1_ESt10_Select1stIS5_ESt4lessIS2_ESaIS5_EE8key_compEv
FN:682,_ZNSt8_Rb_treeISsSsSt9_IdentityISsESt4lessISsESaISsEE5beginEv
FN:682,_ZNSt8_Rb_treeIN4Json5Value8CZStringESt4pairIKS2_S1_ESt10_Select1stIS5_ESt4lessIS2_ESaIS5_EE5beginEv
FN:689,_ZNKSt8_Rb_treeIN4Json5Value8CZStringESt4pairIKS2_S1_ESt10_Select1stIS5_ESt4lessIS2_ESaIS5_EE5beginEv
FN:696,_ZNSt8_Rb_treeIN4Json5Value8CZStringESt4pairIKS2_S1_ESt10_Select1stIS5_ESt4lessIS2_ESaIS5_EE3endEv
FN:696,_ZNSt8_Rb_treeISsSsSt9_IdentityISsESt4lessISsESaISsEE3endEv
FN:700,_ZNKSt8_Rb_treeIN4Json5Value8CZStringESt4pairIKS2_S1_ESt10_Select1stIS5_ESt4lessIS2_ESaIS5_EE3endEv
FN:700,_ZNKSt8_Rb_treeISsSsSt9_IdentityISsESt4lessISsESaISsEE3endEv
FN:723,_ZNKSt8_Rb_treeIN4Json5Value8CZStringESt4pairIKS2_S1_ESt10_Select1stIS5_ESt4lessIS2_ESaIS5_EE5emptyEv
FN:727,_ZNKSt8_Rb_treeIN4Json5Value8CZStringESt4pairIKS2_S1_ESt10_Select1stIS5_ESt4lessIS2_ESaIS5_EE4sizeEv
FN:805,_ZNSt8_Rb_treeIN4Json5Value8CZStringESt4pairIKS2_S1_ESt10_Select1stIS5_ESt4lessIS2_ESaIS5_EE5eraseB5cxx11ESt23_Rb_tree_const_iteratorIS5_E
FN:816,_ZNSt8_Rb_treeIN4Json5Value8CZStringESt4pairIKS2_S1_ESt10_Select1stIS5_ESt4lessIS2_ESaIS5_EE5eraseB5cxx11ESt17_Rb_tree_iteratorIS5_E
FN:840,_ZNSt8_Rb_treeIN4Json5Value8CZStringESt4pairIKS2_S1_ESt10_Select1stIS5_ESt4lessIS2_ESaIS5_EE5eraseB5cxx11ESt23_Rb_tree_const_iteratorIS5_ESD_
FN:858,_ZNSt8_Rb_treeIN4Json5Value8CZStringESt4pairIKS2_S1_ESt10_Select1stIS5_ESt4lessIS2_ESaIS5_EE5clearEv
FN:858,_ZNSt8_Rb_treeISsSsSt9_IdentityISsESt4lessISsESaISsEE5clearEv
FN:878,_ZNSt8_Rb_treeIN4Json5Value8CZStringESt4pairIKS2_S1_ESt10_Select1stIS5_ESt4lessIS2_ESaIS5_EE11lower_boundERS4_
FN:907,_ZSteqIN4Json5Value8CZStringESt4pairIKS2_S1_ESt10_Select1stIS5_ESt4lessIS2_ESaIS5_EEbRKSt8_Rb_treeIT_T0_T1_T2_T3_ESJ_
FN:917,_ZStltIN4Json5Value8CZStringESt4pairIKS2_S1_ESt10_Select1stIS5_ESt4lessIS2_ESaIS5_EEbRKSt8_Rb_treeIT_T0_T1_T2_T3_ESJ_
FN:1012,_ZNSt8_Rb_treeIN4Json5Value8CZStringESt4pairIKS2_S1_ESt10_Select1stIS5_ESt4lessIS2_ESaIS5_EE10_M_insert_IRS5_EESt17_Rb_tree_iteratorIS5_EPSt18_Rb_tree_node_baseSH_OT_
FN:1012,_ZNSt8_Rb_treeISsSsSt9_IdentityISsESt4lessISsESaISsEE10_M_insert_ISsEESt17_Rb_tree_iteratorISsEPSt18_Rb_tree_node_baseSA_OT_
FN:1083,_ZNSt8_Rb_treeIN4Json5Value8CZStringESt4pairIKS2_S1_ESt10_Select1stIS5_ESt4lessIS2_ESaIS5_EE7_M_copyEPKSt13_Rb_tree_nodeIS5_EPSD_
FN:1119,_ZNSt8_Rb_treeIN4Json5Value8CZStringESt4pairIKS2_S1_ESt10_Select1stIS5_ESt4lessIS2_ESaIS5_EE8_M_eraseEPSt13_Rb_tree_nodeIS5_E
FN:1119,_ZNSt8_Rb_treeISsSsSt9_IdentityISsESt4lessISsESaISsEE8_M_eraseEPSt13_Rb_tree_nodeISsE
FN:1136,_ZNSt8_Rb_treeISsSsSt9_IdentityISsESt4lessISsESaISsEE14_M_lower_boundEPSt13_Rb_tree_nodeISsES8_RKSs
FN:1136,_ZNSt8_Rb_treeIN4Json5Value8CZStringESt4pairIKS2_S1_ESt10_Select1stIS5_ESt4lessIS2_ESaIS5_EE14_M_lower_boundEPSt13_Rb_tree_nodeIS5_ESE_RS4_
FN:1168,_ZNSt8_Rb_treeIN4Json5Value8CZStringESt4pairIKS2_S1_ESt10_Select1stIS5_ESt4lessIS2_ESaIS5_EE14_M_upper_boundEPSt13_Rb_tree_nodeIS5_ESE_RS4_
FN:1202,_ZNSt8_Rb_treeIN4Json5Value8CZStringESt4pairIKS2_S1_ESt10_Select1stIS5_ESt4lessIS2_ESaIS5_EE11equal_rangeERS4_
FN:1314,_ZNSt8_Rb_treeISsSsSt9_IdentityISsESt4lessISsESaISsEE24_M_get_insert_unique_posERKSs
FN:1314,_ZNSt8_Rb_treeIN4Json5Value8CZStringESt4pairIKS2_S1_ESt10_Select1stIS5_ESt4lessIS2_ESaIS5_EE24_M_get_insert_unique_posERS4_
FN:1368,_ZNSt8_Rb_treeISsSsSt9_IdentityISsESt4lessISsESaISsEE16_M_insert_uniqueISsEESt4pairISt17_Rb_tree_iteratorISsEbEOT_
FN:1411,_ZNSt8_Rb_treeIN4Json5Value8CZStringESt4pairIKS2_S1_ESt10_Select1stIS5_ESt4lessIS2_ESaIS5_EE29_M_get_insert_hint_unique_posESt23_Rb_tree_const_iteratorIS5_ERS4_
FN:1470,_ZNSt8_Rb_treeIN4Json5Value8CZStringESt4pairIKS2_S1_ESt10_Select1stIS5_ESt4lessIS2_ESaIS5_EE17_M_insert_unique_IRS5_EESt17_Rb_tree_iteratorIS5_ESt23_Rb_tree_const_iteratorIS5_EOT_
FN:1568,_ZNSt8_Rb_treeIN4Json5Value8CZStringESt4pairIKS2_S1_ESt10_Select1stIS5_ESt4lessIS2_ESaIS5_EE14_M_insert_nodeEPSt18_Rb_tree_node_baseSD_PSt13_Rb_tree_nodeIS5_E
FN:1666,_ZNSt8_Rb_treeIN4Json5Value8CZStringESt4pairIKS2_S1_ESt10_Select1stIS5_ESt4lessIS2_ESaIS5_EE22_M_emplace_hint_uniqueIIRKSt21piecewise_construct_tSt5tupleIIRS4_EESG_IIEEEEESt17_Rb_tree_iteratorIS5_ESt23_Rb_tree_const_iteratorIS5_EDpOT_
FN:1739,_ZNSt8_Rb_treeIN4Json5Value8CZStringESt4pairIKS2_S1_ESt10_Select1stIS5_ESt4lessIS2_ESaIS5_EE12_M_erase_auxESt23_Rb_tree_const_iteratorIS5_E
FN:1753,_ZNSt8_Rb_treeIN4Json5Value8CZStringESt4pairIKS2_S1_ESt10_Select1stIS5_ESt4lessIS2_ESaIS5_EE12_M_erase_auxESt23_Rb_tree_const_iteratorIS5_ESD_
FN:1766,_ZNSt8_Rb_treeIN4Json5Value8CZStringESt4pairIKS2_S1_ESt10_Select1stIS5_ESt4lessIS2_ESaIS5_EE5eraseERS4_
FN:1789,_ZNSt8_Rb_treeIN4Json5Value8CZStringESt4pairIKS2_S1_ESt10_Select1stIS5_ESt4lessIS2_ESaIS5_EE4findERS4_
FN:1789,_ZNSt8_Rb_treeISsSsSt9_IdentityISsESt4lessISsESaISsEE4findERKSs
FNDA:13696,_ZNSt18_Rb_tree_node_base10_S_minimumEPS_
FNDA:13696,_ZNSt18_Rb_tree_node_base10_S_maximumEPS_
FNDA:75325,_ZNSt13_Rb_tree_nodeISt4pairIKN4Json5Value8CZStringES2_EED2Ev
FNDA:196,_ZNSt13_Rb_tree_nodeISsED2Ev
FNDA:38446,_ZNSt13_Rb_tree_nodeISt4pairIKN4Json5Value8CZStringES2_EEC2IIRKS5_EEEDpOT_
FNDA:36879,_ZNSt13_Rb_tree_nodeISt4pairIKN4Json5Value8CZStringES2_EEC2IIRS5_EEEDpOT_
FNDA:0,_ZNSt13_Rb_tree_nodeISsEC2IISsEEEDpOT_
FNDA:0,_ZNSt13_Rb_tree_nodeISt4pairIKN4Json5Value8CZStringES2_EEC2IIRKSt21piecewise_construct_tSt5tupleIIRS4_EESB_IIEEEEEDpOT_
FNDA:0,_ZNSt17_Rb_tree_iteratorISt4pairIKN4Json5Value8CZStringES2_EEC2Ev
FNDA:280223,_ZNSt17_Rb_tree_iteratorISt4pairIKN4Json5Value8CZStringES2_EEC2EPSt13_Rb_tree_nodeIS5_E
FNDA:0,_ZNSt17_Rb_tree_iteratorISsEC2EPSt13_Rb_tree_nodeISsE
FNDA:41361,_ZNKSt17_Rb_tree_iteratorISt4pairIKN4Json5Value8CZStringES2_EEdeEv
FNDA:0,_ZNKSt17_Rb_tree_iteratorISt4pairIKN4Json5Value8CZStringES2_EEptEv
FNDA:0,_ZNSt17_Rb_tree_iteratorISt4pairIKN4Json5Value8CZStringES2_EEppEv
FNDA:0,_ZNSt17_Rb_tree_iteratorISsEmmEv
FNDA:0,_ZNSt17_Rb_tree_iteratorISt4pairIKN4Json5Value8CZStringES2_EEmmEv
FNDA:0,_ZNKSt17_Rb_tree_iteratorISsEeqERKS0_
FNDA:40217,_ZNKSt17_Rb_tree_iteratorISt4pairIKN4Json5Value8CZStringES2_EEeqERKS6_
FNDA:39119,_ZNKSt17_Rb_tree_iteratorISt4pairIKN4Json5Value8CZStringES2_EEneERKS6_
FNDA:0,_ZNSt23_Rb_tree_const_iteratorISt4pairIKN4Json5Value8CZStringES2_EEC2EPKSt13_Rb_tree_nodeIS5_E
FNDA:0,_ZNSt23_Rb_tree_const_iteratorISsEC2EPKSt13_Rb_tree_nodeISsE
FNDA:0,_ZNSt23_Rb_tree_const_iteratorISsEC2ERKSt17_Rb_tree_iteratorISsE
FNDA:112116,_ZNSt23_Rb_tree_const_iteratorISt4pairIKN4Json5Value8CZStringES2_EEC2ERKSt17_Rb_tree_iteratorIS5_E
FNDA:36879,_ZNKSt23_Rb_tree_const_iteratorISt4pairIKN4Json5Value8CZStringES2_EE13_M_const_castEv
FNDA:65889,_ZNKSt23_Rb_tree_const_iteratorISt4pairIKN4Json5Value8CZStringES2_EEdeEv
FNDA:18096,_ZNSt23_Rb_tree_const_iteratorISt4pairIKN4Json5Value8CZStringES2_EEppEv
FNDA:0,_ZNSt23_Rb_tree_const_iteratorISt4pairIKN4Json5Value8CZStringES2_EEppEi
FNDA:2253,_ZNSt23_Rb_tree_const_iteratorISt4pairIKN4Json5Value8CZStringES2_EEmmEv
FNDA:27444,_ZNKSt23_Rb_tree_const_iteratorISt4pairIKN4Json5Value8CZStringES2_EEeqERKS6_
FNDA:0,_ZNKSt23_Rb_tree_const_iteratorISsEeqERKS0_
FNDA:27144,_ZNKSt23_Rb_tree_const_iteratorISt4pairIKN4Json5Value8CZStringES2_EEneERKS6_
FNDA:150650,_ZNSt8_Rb_treeIN4Json5Value8CZStringESt4pairIKS2_S1_ESt10_Select1stIS5_ESt4lessIS2_ESaIS5_EE21_M_get_Node_allocatorEv
FNDA:196,_ZNSt8_Rb_treeISsSsSt9_IdentityISsESt4lessISsESaISsEE21_M_get_Node_allocatorEv
FNDA:13731,_ZNKSt8_Rb_treeIN4Json5Value8CZStringESt4pairIKS2_S1_ESt10_Select1stIS5_ESt4lessIS2_ESaIS5_EE21_M_get_Node_allocatorEv
FNDA:0,_ZNSt8_Rb_treeISsSsSt9_IdentityISsESt4lessISsESaISsEE11_M_get_nodeEv
FNDA:75325,_ZNSt8_Rb_treeIN4Json5Value8CZStringESt4pairIKS2_S1_ESt10_Select1stIS5_ESt4lessIS2_ESaIS5_EE11_M_get_nodeEv
FNDA:75325,_ZNSt8_Rb_treeIN4Json5Value8CZStringESt4pairIKS2_S1_ESt10_Select1stIS5_ESt4lessIS2_ESaIS5_EE11_M_put_nodeEPSt13_Rb_tree_nodeIS5_E
FNDA:196,_ZNSt8_Rb_treeISsSsSt9_IdentityISsESt4lessISsESaISsEE11_M_put_nodeEPSt13_Rb_tree_nodeISsE
FNDA:38446,_ZNSt8_Rb_treeIN4Json5Value8CZStringESt4pairIKS2_S1_ESt10_Select1stIS5_ESt4lessIS2_ESaIS5_EE14_M_create_nodeIIRKS5_EEEPSt13_Rb_tree_nodeIS5_EDpOT_
FNDA:36879,_ZNSt8_Rb_treeIN4Json5Value8CZStringESt4pairIKS2_S1_ESt10_Select1stIS5_ESt4lessIS2_ESaIS5_EE14_M_create_nodeIIRS5_EEEPSt13_Rb_tree_nodeIS5_EDpOT_
FNDA:0,_ZNSt8_Rb_treeISsSsSt9_IdentityISsESt4lessISsESaISsEE14_M_create_nodeIISsEEEPSt13_Rb_tree_nodeISsEDpOT_
FNDA:0,_ZNSt8_Rb_treeIN4Json5Value8CZStringESt4pairIKS2_S1_ESt10_Select1stIS5_ESt4lessIS2_ESaIS5_EE14_M_create_nodeIIRKSt21piecewise_construct_tSt5tupleIIRS4_EESG_IIEEEEEPSt13_Rb_tree_nodeIS5_EDpOT_
FNDA:75325,_ZNSt8_Rb_treeIN4Json5Value8CZStringESt4pairIKS2_S1_ESt10_Select1stIS5_ESt4lessIS2_ESaIS5_EE15_M_destroy_nodeEPSt13_Rb_tree_nodeIS5_E
FNDA:196,_ZNSt8_Rb_treeISsSsSt9_IdentityISsESt4lessISsESaISsEE15_M_destroy_nodeEPSt13_Rb_tree_nodeISsE
FNDA:38446,_ZNSt8_Rb_treeIN4Json5Value8CZStringESt4pairIKS2_S1_ESt10_Select1stIS5_ESt4lessIS2_ESaIS5_EE13_M_clone_nodeEPKSt13_Rb_tree_nodeIS5_E
FNDA:26939,_ZNSt8_Rb_treeIN4Json5Value8CZStringESt4pairIKS2_S1_ESt10_Select1stIS5_ESt4lessIS2_ESaIS5_EE13_Rb_tree_implIS9_Lb1EED2Ev
FNDA:20,_ZNSt8_Rb_treeISsSsSt9_IdentityISsESt4lessISsESaISsEE13_Rb_tree_implIS3_Lb1EED2Ev
FNDA:13208,_ZNSt8_Rb_treeIN4Json5Value8CZStringESt4pairIKS2_S1_ESt10_Select1stIS5_ESt4lessIS2_ESaIS5_EE13_Rb_tree_implIS9_Lb1EEC2Ev
FNDA:0,_ZNSt8_Rb_treeISsSsSt9_IdentityISsESt4lessISsESaISsEE13_Rb_tree_implIS3_Lb1EEC2Ev
FNDA:13731,_ZNSt8_Rb_treeIN4Json5Value8CZStringESt4pairIKS2_S1_ESt10_Select1stIS5_ESt4lessIS2_ESaIS5_EE13_Rb_tree_implIS9_Lb1EEC2ERKS9_RKSaISt13_Rb_tree_nodeIS5_EE
FNDA:26939,_ZNSt8_Rb_treeIN4Json5Value8CZStringESt4pairIKS2_S1_ESt10_Select1stIS5_ESt4lessIS2_ESaIS5_EE13_Rb_tree_implIS9_Lb1EE13_M_initializeEv
FNDA:0,_ZNSt8_Rb_treeISsSsSt9_IdentityISsESt4lessISsESaISsEE13_Rb_tree_implIS3_Lb1EE13_M_initializeEv
FNDA:41145,_ZNSt8_Rb_treeIN4Json5Value8CZStringESt4pairIKS2_S1_ESt10_Select1stIS5_ESt4lessIS2_ESaIS5_EE7_M_rootEv
FNDA:0,_ZNSt8_Rb_treeISsSsSt9_IdentityISsESt4lessISsESaISsEE7_M_rootEv
FNDA:13731,_ZNKSt8_Rb_treeIN4Json5Value8CZStringESt4pairIKS2_S1_ESt10_Select1stIS5_ESt4lessIS2_ESaIS5_EE7_M_rootEv
FNDA:13721,_ZNSt8_Rb_treeIN4Json5Value8CZStringESt4pairIKS2_S1_ESt10_Select1stIS5_ESt4lessIS2_ESaIS5_EE11_M_leftmostEv
FNDA:0,_ZNSt8_Rb_treeISsSsSt9_IdentityISsESt4lessISsESaISsEE11_M_leftmostEv
FNDA:61923,_ZNSt8_Rb_treeIN4Json5Value8CZStringESt4pairIKS2_S1_ESt10_Select1stIS5_ESt4lessIS2_ESaIS5_EE12_M_rightmostEv
FNDA:0,_ZNSt8_Rb_treeISsSsSt9_IdentityISsESt4lessISsESaISsEE12_M_rightmostEv
FNDA:106275,_ZNSt8_Rb_treeIN4Json5Value8CZStringESt4pairIKS2_S1_ESt10_Select1stIS5_ESt4lessIS2_ESaIS5_EE8_M_beginEv
FNDA:20,_ZNSt8_Rb_treeISsSsSt9_IdentityISsESt4lessISsESaISsEE8_M_beginEv
FNDA:13715,_ZNKSt8_Rb_treeIN4Json5Value8CZStringESt4pairIKS2_S1_ESt10_Select1stIS5_ESt4lessIS2_ESaIS5_EE8_M_beginEv
FNDA:166807,_ZNSt8_Rb_treeIN4Json5Value8CZStringESt4pairIKS2_S1_ESt10_Select1stIS5_ESt4lessIS2_ESaIS5_EE6_M_endEv
FNDA:0,_ZNSt8_Rb_treeISsSsSt9_IdentityISsESt4lessISsESaISsEE6_M_endEv
FNDA:0,_ZNSt8_Rb_treeISsSsSt9_IdentityISsESt4lessISsESaISsEE8_S_valueEPKSt13_Rb_tree_nodeISsE
FNDA:171501,_ZNSt8_Rb_treeIN4Json5Value8CZStringESt4pairIKS2_S1_ESt10_Select1stIS5_ESt4lessIS2_ESaIS5_EE8_S_valueEPKSt13_Rb_tree_nodeIS5_E
FNDA:0,_ZNSt8_Rb_treeISsSsSt9_IdentityISsESt4lessISsESaISsEE6_S_keyEPKSt13_Rb_tree_nodeISsE
FNDA:171501,_ZNSt8_Rb_treeIN4Json5Value8CZStringESt4pairIKS2_S1_ESt10_Select1stIS5_ESt4lessIS2_ESaIS5_EE6_S_keyEPKSt13_Rb_tree_nodeIS5_E
FNDA:118397,_ZNSt8_Rb_treeIN4Json5Value8CZStringESt4pairIKS2_S1_ESt10_Select1stIS5_ESt4lessIS2_ESaIS5_EE7_S_leftEPSt18_Rb_tree_node_base
FNDA:196,_ZNSt8_Rb_treeISsSsSt9_IdentityISsESt4lessISsESaISsEE7_S_leftEPSt18_Rb_tree_node_base
FNDA:38446,_ZNSt8_Rb_treeIN4Json5Value8CZStringESt4pairIKS2_S1_ESt10_Select1stIS5_ESt4lessIS2_ESaIS5_EE7_S_leftEPKSt18_Rb_tree_node_base
FNDA:203754,_ZNSt8_Rb_treeIN4Json5Value8CZStringESt4pairIKS2_S1_ESt10_Select1stIS5_ESt4lessIS2_ESaIS5_EE8_S_rightEPSt18_Rb_tree_node_base
FNDA:196,_ZNSt8_Rb_treeISsSsSt9_IdentityISsESt4lessISsESaISsEE8_S_rightEPSt18_Rb_tree_node_base
FNDA:19082,_ZNSt8_Rb_treeIN4Json5Value8CZStringESt4pairIKS2_S1_ESt10_Select1stIS5_ESt4lessIS2_ESaIS5_EE8_S_rightEPKSt18_Rb_tree_node_base
FNDA:75654,_ZNSt8_Rb_treeIN4Json5Value8CZStringESt4pairIKS2_S1_ESt10_Select1stIS5_ESt4lessIS2_ESaIS5_EE8_S_valueEPKSt18_Rb_tree_node_base
FNDA:0,_ZNSt8_Rb_treeISsSsSt9_IdentityISsESt4lessISsESaISsEE8_S_valueEPKSt18_Rb_tree_node_base
FNDA:75654,_ZNSt8_Rb_treeIN4Json5Value8CZStringESt4pairIKS2_S1_ESt10_Select1stIS5_ESt4lessIS2_ESaIS5_EE6_S_keyEPKSt18_Rb_tree_node_base
FNDA:0,_ZNSt8_Rb_treeISsSsSt9_IdentityISsESt4lessISsESaISsEE6_S_keyEPKSt18_Rb_tree_node_base
FNDA:13715,_ZNSt8_Rb_treeIN4Json5Value8CZStringESt4pairIKS2_S1_ESt10_Select1stIS5_ESt4lessIS2_ESaIS5_EE10_S_minimumEPSt18_Rb_tree_node_base
FNDA:13715,_ZNSt8_Rb_treeIN4Json5Value8CZStringESt4pairIKS2_S1_ESt10_Select1stIS5_ESt4lessIS2_ESaIS5_EE10_S_maximumEPSt18_Rb_tree_node_base
FNDA:13208,_ZNSt8_Rb_treeIN4Json5Value8CZStringESt4pairIKS2_S1_ESt10_Select1stIS5_ESt4lessIS2_ESaIS5_EEC2Ev
FNDA:0,_ZNSt8_Rb_treeISsSsSt9_IdentityISsESt4lessISsESaISsEEC2Ev
FNDA:13731,_ZNSt8_Rb_treeIN4Json5Value8CZStringESt4pairIKS2_S1_ESt10_Select1stIS5_ESt4lessIS2_ESaIS5_EEC2ERKSB_
FNDA:26939,_ZNSt8_Rb_treeIN4Json5Value8CZStringESt4pairIKS2_S1_ESt10_Select1stIS5_ESt4lessIS2_ESaIS5_EED2Ev
FNDA:20,_ZNSt8_Rb_treeISsSsSt9_IdentityISsESt4lessISsESaISsEED2Ev
FNDA:0,_ZNKSt8_Rb_treeIN4Json5Value8CZStringESt4pairIKS2_S1_ESt10_Select1stIS5_ESt4lessIS2_ESaIS5_EE8key_compEv
FNDA:0,_ZNSt8_Rb_treeISsSsSt9_IdentityISsESt4lessISsESaISsEE5beginEv
FNDA:21821,_ZNSt8_Rb_treeIN4Json5Value8CZStringESt4pairIKS2_S1_ESt10_Select1stIS5_ESt4lessIS2_ESaIS5_EE5beginEv
FNDA:0,_ZNKSt8_Rb_treeIN4Json5Value8CZStringESt4pairIKS2_S1_ESt10_Select1stIS5_ESt4lessIS2_ESaIS5_EE5beginEv
FNDA:0,_ZNSt8_Rb_treeISsSsSt9_IdentityISsESt4lessISsESaISsEE3endEv
FNDA:105308,_ZNSt8_Rb_treeIN4Json5Value8CZStringESt4pairIKS2_S1_ESt10_Select1stIS5_ESt4lessIS2_ESaIS5_EE3endEv
FNDA:0,_ZNKSt8_Rb_treeIN4Json5Value8CZStringESt4pairIKS2_S1_ESt10_Select1stIS5_ESt4lessIS2_ESaIS5_EE3endEv
FNDA:0,_ZNKSt8_Rb_treeISsSsSt9_IdentityISsESt4lessISsESaISsEE3endEv
FNDA:2494,_ZNKSt8_Rb_treeIN4Json5Value8CZStringESt4pairIKS2_S1_ESt10_Select1stIS5_ESt4lessIS2_ESaIS5_EE5emptyEv
FNDA:45925,_ZNKSt8_Rb_treeIN4Json5Value8CZStringESt4pairIKS2_S1_ESt10_Select1stIS5_ESt4lessIS2_ESaIS5_EE4sizeEv
FNDA:0,_ZNSt8_Rb_treeIN4Json5Value8CZStringESt4pairIKS2_S1_ESt10_Select1stIS5_ESt4lessIS2_ESaIS5_EE5eraseB5cxx11ESt23_Rb_tree_const_iteratorIS5_E
FNDA:0,_ZNSt8_Rb_treeIN4Json5Value8CZStringESt4pairIKS2_S1_ESt10_Select1stIS5_ESt4lessIS2_ESaIS5_EE5eraseB5cxx11ESt17_Rb_tree_iteratorIS5_E
FNDA:0,_ZNSt8_Rb_treeIN4Json5Value8CZStringESt4pairIKS2_S1_ESt10_Select1stIS5_ESt4lessIS2_ESaIS5_EE5eraseB5cxx11ESt23_Rb_tree_const_iteratorIS5_ESD_
FNDA:0,_ZNSt8_Rb_treeIN4Json5Value8CZStringESt4pairIKS2_S1_ESt10_Select1stIS5_ESt4lessIS2_ESaIS5_EE5clearEv
FNDA:0,_ZNSt8_Rb_treeISsSsSt9_IdentityISsESt4lessISsESaISsEE5clearEv
FNDA:39119,_ZNSt8_Rb_treeIN4Json5Value8CZStringESt4pairIKS2_S1_ESt10_Select1stIS5_ESt4lessIS2_ESaIS5_EE11lower_boundERS4_
FNDA:0,_ZSteqIN4Json5Value8CZStringESt4pairIKS2_S1_ESt10_Select1stIS5_ESt4lessIS2_ESaIS5_EEbRKSt8_Rb_treeIT_T0_T1_T2_T3_ESJ_
FNDA:0,_ZStltIN4Json5Value8CZStringESt4pairIKS2_S1_ESt10_Select1stIS5_ESt4lessIS2_ESaIS5_EEbRKSt8_Rb_treeIT_T0_T1_T2_T3_ESJ_
FNDA:36879,_ZNSt8_Rb_treeIN4Json5Value8CZStringESt4pairIKS2_S1_ESt10_Select1stIS5_ESt4lessIS2_ESaIS5_EE10_M_insert_IRS5_EESt17_Rb_tree_iteratorIS5_EPSt18_Rb_tree_node_baseSH_OT_
FNDA:0,_ZNSt8_Rb_treeISsSsSt9_IdentityISsESt4lessISsESaISsEE10_M_insert_ISsEESt17_Rb_tree_iteratorISsEPSt18_Rb_tree_node_baseSA_OT_
FNDA:32797,_ZNSt8_Rb_treeIN4Json5Value8CZStringESt4pairIKS2_S1_ESt10_Select1stIS5_ESt4lessIS2_ESaIS5_EE7_M_copyEPKSt13_Rb_tree_nodeIS5_EPSD_
FNDA:102264,_ZNSt8_Rb_treeIN4Json5Value8CZStringESt4pairIKS2_S1_ESt10_Select1stIS5_ESt4lessIS2_ESaIS5_EE8_M_eraseEPSt13_Rb_tree_nodeIS5_E
FNDA:412,_ZNSt8_Rb_treeISsSsSt9_IdentityISsESt4lessISsESaISsEE8_M_eraseEPSt13_Rb_tree_nodeISsE
FNDA:66563,_ZNSt8_Rb_treeIN4Json5Value8CZStringESt4pairIKS2_S1_ESt10_Select1stIS5_ESt4lessIS2_ESaIS5_EE14_M_lower_boundEPSt13_Rb_tree_nodeIS5_ESE_RS4_
FNDA:0,_ZNSt8_Rb_treeISsSsSt9_IdentityISsESt4lessISsESaISsEE14_M_lower_boundEPSt13_Rb_tree_nodeISsES8_RKSs
FNDA:0,_ZNSt8_Rb_treeIN4Json5Value8CZStringESt4pairIKS2_S1_ESt10_Select1stIS5_ESt4lessIS2_ESaIS5_EE14_M_upper_boundEPSt13_Rb_tree_nodeIS5_ESE_RS4_
FNDA:0,_ZNSt8_Rb_treeIN4Json5Value8CZStringESt4pairIKS2_S1_ESt10_Select1stIS5_ESt4lessIS2_ESaIS5_EE11equal_rangeERS4_
FNDA:12773,_ZNSt8_Rb_treeIN4Json5Value8CZStringESt4pairIKS2_S1_ESt10_Select1stIS5_ESt4lessIS2_ESaIS5_EE24_M_get_insert_unique_posERS4_
FNDA:0,_ZNSt8_Rb_treeISsSsSt9_IdentityISsESt4lessISsESaISsEE24_M_get_insert_unique_posERKSs
FNDA:0,_ZNSt8_Rb_treeISsSsSt9_IdentityISsESt4lessISsESaISsEE16_M_insert_uniqueISsEESt4pairISt17_Rb_tree_iteratorISsEbEOT_
FNDA:36879,_ZNSt8_Rb_treeIN4Json5Value8CZStringESt4pairIKS2_S1_ESt10_Select1stIS5_ESt4lessIS2_ESaIS5_EE29_M_get_insert_hint_unique_posESt23_Rb_tree_const_iteratorIS5_ERS4_
FNDA:36879,_ZNSt8_Rb_treeIN4Json5Value8CZStringESt4pairIKS2_S1_ESt10_Select1stIS5_ESt4lessIS2_ESaIS5_EE17_M_insert_unique_IRS5_EESt17_Rb_tree_iteratorIS5_ESt23_Rb_tree_const_iteratorIS5_EOT_
FNDA:0,_ZNSt8_Rb_treeIN4Json5Value8CZStringESt4pairIKS2_S1_ESt10_Select1stIS5_ESt4lessIS2_ESaIS5_EE14_M_insert_nodeEPSt18_Rb_tree_node_baseSD_PSt13_Rb_tree_nodeIS5_E
FNDA:0,_ZNSt8_Rb_treeIN4Json5Value8CZStringESt4pairIKS2_S1_ESt10_Select1stIS5_ESt4lessIS2_ESaIS5_EE22_M_emplace_hint_uniqueIIRKSt21piecewise_construct_tSt5tupleIIRS4_EESG_IIEEEEESt17_Rb_tree_iteratorIS5_ESt23_Rb_tree_const_iteratorIS5_EDpOT_
FNDA:0,_ZNSt8_Rb_treeIN4Json5Value8CZStringESt4pairIKS2_S1_ESt10_Select1stIS5_ESt4lessIS2_ESaIS5_EE12_M_erase_auxESt23_Rb_tree_const_iteratorIS5_E
FNDA:0,_ZNSt8_Rb_treeIN4Json5Value8CZStringESt4pairIKS2_S1_ESt10_Select1stIS5_ESt4lessIS2_ESaIS5_EE12_M_erase_auxESt23_Rb_tree_const_iteratorIS5_ESD_
FNDA:0,_ZNSt8_Rb_treeIN4Json5Value8CZStringESt4pairIKS2_S1_ESt10_Select1stIS5_ESt4lessIS2_ESaIS5_EE5eraseERS4_
FNDA:27444,_ZNSt8_Rb_treeIN4Json5Value8CZStringESt4pairIKS2_S1_ESt10_Select1stIS5_ESt4lessIS2_ESaIS5_EE4findERS4_
FNDA:0,_ZNSt8_Rb_treeISsSsSt9_IdentityISsESt4lessISsESaISsEE4findERKSs
FNF:124
FNH:71
DA:102,13696
DA:104,13696
DA:105,13696
DA:116,13696
DA:118,13696
DA:119,13696
DA:131,75521
DA:138,75325
DA:140,75325
DA:170,0
DA:171,0
DA:174,280223
DA:175,280223
DA:178,41361
DA:179,41361
DA:182,0
DA:184,0
DA:187,0
DA:189,0
DA:190,0
DA:202,0
DA:204,0
DA:205,0
DA:217,40217
DA:218,40217
DA:221,39119
DA:222,39119
DA:247,0
DA:248,0
DA:250,112116
DA:251,112116
DA:254,36879
DA:256,36879
DA:259,65889
DA:260,65889
DA:268,18096
DA:270,18096
DA:271,18096
DA:275,0
DA:277,0
DA:278,0
DA:279,0
DA:283,2253
DA:285,2253
DA:286,2253
DA:298,27444
DA:299,27444
DA:302,27144
DA:303,27144
DA:356,150846
DA:357,150846
DA:360,13731
DA:361,13731
DA:369,75325
DA:370,75325
DA:373,75521
DA:374,75521
DA:401,75325
DA:403,75325
DA:406,75325
DA:407,75325
DA:408,75325
DA:410,=====
DA:412,=====
DA:413,=====
DA:415,75325
DA:419,75521
DA:421,75521
DA:422,75521
DA:423,75521
DA:427,38446
DA:429,38446
DA:430,38446
DA:431,38446
DA:432,38446
DA:433,38446
DA:439,26959
DA:445,13208
DA:447,13208
DA:448,13208
DA:450,13731
DA:452,13731
DA:453,13731
DA:464,26939
DA:466,26939
DA:467,26939
DA:468,26939
DA:469,26939
DA:470,26939
DA:477,41145
DA:478,41145
DA:481,13731
DA:482,13731
DA:485,13721
DA:486,13721
DA:493,61923
DA:494,61923
DA:501,106295
DA:502,106295
DA:505,13715
DA:508,13715
DA:512,166807
DA:513,166807
DA:520,171501
DA:521,171501
DA:524,171501
DA:525,171501
DA:528,118593
DA:529,118593
DA:532,38446
DA:533,38446
DA:536,203950
DA:537,203950
DA:540,19082
DA:541,19082
DA:544,75654
DA:545,75654
DA:548,75654
DA:549,75654
DA:552,13715
DA:553,13715
DA:560,13715
DA:561,13715
DA:648,13208
DA:654,13731
DA:655,13731
DA:657,13731
DA:659,13715
DA:660,13715
DA:661,13715
DA:662,13715
DA:664,13731
DA:670,26959
DA:671,26959
DA:678,0
DA:679,0
DA:682,21821
DA:685,21821
DA:689,0
DA:692,0
DA:696,105308
DA:697,105308
DA:700,0
DA:703,0
DA:723,2494
DA:724,2494
DA:727,45925
DA:728,45925
DA:805,0
DA:807,0
DA:808,0
DA:809,0
DA:810,0
DA:816,0
DA:818,0
DA:819,0
DA:820,0
DA:821,0
DA:840,0
DA:842,0
DA:843,0
DA:858,0
DA:860,0
DA:861,0
DA:862,0
DA:863,0
DA:864,0
DA:865,0
DA:878,39119
DA:879,39119
DA:907,0
DA:910,0
DA:911,0
DA:917,0
DA:921,0
DA:1012,36879
DA:1019,36877
DA:1020,85087
DA:1021,110635
DA:1023,36879
DA:1025,36879
DA:1026,36879
DA:1027,36879
DA:1028,36879
DA:1083,32797
DA:1087,32797
DA:1088,32797
DA:1092,32797
DA:1093,16633
DA:1094,32797
DA:1095,32797
DA:1097,71243
DA:1099,5649
DA:1100,5649
DA:1101,5649
DA:1102,5649
DA:1103,2449
DA:1104,5649
DA:1105,5649
DA:1108,=====
DA:1110,=====
DA:1111,=====
DA:1113,32797
DA:1119,102676
DA:1123,280873
DA:1125,75521
DA:1126,75521
DA:1127,75521
DA:1128,75521
DA:1130,102676
DA:1136,66563
DA:1140,304627
DA:1141,171501
DA:1142,43072
DA:1144,128429
DA:1145,66563
DA:1168,0
DA:1172,0
DA:1173,0
DA:1174,0
DA:1176,0
DA:1177,0
DA:1202,0
DA:1205,0
DA:1206,0
DA:1207,0
DA:1209,0
DA:1210,0
DA:1211,0
DA:1212,0
DA:1215,0
DA:1216,0
DA:1217,0
DA:1220,0
DA:1224,0
DA:1314,12773
DA:1318,12773
DA:1319,12773
DA:1320,12773
DA:1321,25546
DA:1323,0
DA:1324,0
DA:1325,0
DA:1327,12773
DA:1328,12773
DA:1330,12773
DA:1331,12773
DA:1333,0
DA:1335,0
DA:1336,0
DA:1337,0
DA:1368,0
DA:1377,0
DA:1379,0
DA:1381,0
DA:1382,0
DA:1384,0
DA:1411,36879
DA:1415,36879
DA:1419,36879
DA:1421,60981
DA:1422,24104
DA:1423,24104
DA:1425,12773
DA:1427,2
DA:1430,2
DA:1431,2
DA:1432,2
DA:1433,0
DA:1435,0
DA:1436,0
DA:1438,0
DA:1441,0
DA:1443,0
DA:1446,0
DA:1447,0
DA:1448,0
DA:1449,0
DA:1451,0
DA:1452,0
DA:1454,0
DA:1457,0
DA:1461,0
DA:1470,36879
DA:1478,36879
DA:1480,36879
DA:1482,36879
DA:1483,0
DA:1568,0
DA:1571,0
DA:1572,0
DA:1573,0
DA:1575,0
DA:1576,0
DA:1577,0
DA:1578,0
DA:1666,0
DA:1669,0
DA:1673,0
DA:1675,0
DA:1676,0
DA:1678,0
DA:1679,0
DA:1681,=====
DA:1683,=====
DA:1684,=====
DA:1739,0
DA:1745,0
DA:1746,0
DA:1747,0
DA:1748,0
DA:1753,0
DA:1756,0
DA:1757,0
DA:1759,0
DA:1760,0
DA:1761,0
DA:1766,0
DA:1769,0
DA:1770,0
DA:1771,0
DA:1772,0
DA:1789,27444
DA:1792,27444
DA:1793,109776
DA:1794,27444
DA:1795,137220
LF:327
LH:192
end_of_record
SF:/usr/include/c++/4.8/bits/stl_uninitialized.h
FN:68,_ZNSt20__uninitialized_copyILb0EE13__uninit_copyISt13move_iteratorIPSsES3_EET0_T_S6_S5_
FN:68,_ZNSt20__uninitialized_copyILb0EE13__uninit_copyISt13move_iteratorIPN4Json6Reader15StructuredErrorEES6_EET0_T_S9_S8_
FN:68,_ZNSt20__uninitialized_copyILb0EE13__uninit_copyISt13move_iteratorIPN4Json12PathArgumentEES5_EET0_T_S8_S7_
FN:68,_ZNSt20__uninitialized_copyILb0EE13__uninit_copyISt13move_iteratorIPN4Json9OurReader15StructuredErrorEES6_EET0_T_S9_S8_
FN:91,_ZNSt20__uninitialized_copyILb1EE13__uninit_copyISt13move_iteratorIPPKN4Json12PathArgumentEES7_EET0_T_SA_S9_
FN:107,_ZSt18uninitialized_copyISt13move_iteratorIPN4Json9OurReader15StructuredErrorEES4_ET0_T_S7_S6_
FN:107,_ZSt18uninitialized_copyISt13move_iteratorIPN4Json12PathArgumentEES3_ET0_T_S6_S5_
FN:107,_ZSt18uninitialized_copyISt13move_iteratorIPPKN4Json12PathArgumentEES5_ET0_T_S8_S7_
FN:107,_ZSt18uninitialized_copyISt13move_iteratorIPN4Json6Reader15StructuredErrorEES4_ET0_T_S7_S6_
FN:107,_ZSt18uninitialized_copyISt13move_iteratorIPSsES1_ET0_T_S4_S3_
FN:256,_ZSt22__uninitialized_copy_aISt13move_iteratorIPN4Json6Reader15StructuredErrorEES4_S3_ET0_T_S7_S6_RSaIT1_E
FN:256,_ZSt22__uninitialized_copy_aISt13move_iteratorIPN4Json12PathArgumentEES3_S2_ET0_T_S6_S5_RSaIT1_E
FN:256,_ZSt22__uninitialized_copy_aISt13move_iteratorIPN4Json9OurReader15StructuredErrorEES4_S3_ET0_T_S7_S6_RSaIT1_E
FN:256,_ZSt22__uninitialized_copy_aISt13move_iteratorIPSsES1_SsET0_T_S4_S3_RSaIT1_E
FN:256,_ZSt22__uninitialized_copy_aISt13move_iteratorIPPKN4Json12PathArgumentEES5_S4_ET0_T_S8_S7_RSaIT1_E
FN:274,_ZSt34__uninitialized_move_if_noexcept_aIPN4Json9OurReader15StructuredErrorES3_SaIS2_EET0_T_S6_S5_RT1_
FN:274,_ZSt34__uninitialized_move_if_noexcept_aIPN4Json12PathArgumentES2_SaIS1_EET0_T_S5_S4_RT1_
FN:274,_ZSt34__uninitialized_move_if_noexcept_aIPSsS0_SaISsEET0_T_S3_S2_RT1_
FN:274,_ZSt34__uninitialized_move_if_noexcept_aIPN4Json6Reader15StructuredErrorES3_SaIS2_EET0_T_S6_S5_RT1_
FN:274,_ZSt34__uninitialized_move_if_noexcept_aIPPKN4Json12PathArgumentES4_SaIS3_EET0_T_S7_S6_RT1_
FN:454,_ZNSt25__uninitialized_default_1ILb0EE16__uninit_defaultISt15_Deque_iteratorIN4Json6Reader9ErrorInfoERS5_PS5_EEEvT_S9_
FN:454,_ZNSt25__uninitialized_default_1ILb0EE16__uninit_defaultISt15_Deque_iteratorIN4Json9OurReader9ErrorInfoERS5_PS5_EEEvT_S9_
FN:524,_ZSt23__uninitialized_defaultISt15_Deque_iteratorIN4Json6Reader9ErrorInfoERS3_PS3_EEvT_S7_
FN:524,_ZSt23__uninitialized_defaultISt15_Deque_iteratorIN4Json9OurReader9ErrorInfoERS3_PS3_EEvT_S7_
FN:573,_ZSt25__uninitialized_default_aISt15_Deque_iteratorIN4Json9OurReader9ErrorInfoERS3_PS3_ES3_EvT_S7_RSaIT0_E
FN:573,_ZSt25__uninitialized_default_aISt15_Deque_iteratorIN4Json6Reader9ErrorInfoERS3_PS3_ES3_EvT_S7_RSaIT0_E
FNDA:0,_ZNSt20__uninitialized_copyILb0EE13__uninit_copyISt13move_iteratorIPN4Json12PathArgumentEES5_EET0_T_S8_S7_
FNDA:0,_ZNSt20__uninitialized_copyILb0EE13__uninit_copyISt13move_iteratorIPN4Json9OurReader15StructuredErrorEES6_EET0_T_S9_S8_
FNDA:0,_ZNSt20__uninitialized_copyILb0EE13__uninit_copyISt13move_iteratorIPN4Json6Reader15StructuredErrorEES6_EET0_T_S9_S8_
FNDA:18704,_ZNSt20__uninitialized_copyILb0EE13__uninit_copyISt13move_iteratorIPSsES3_EET0_T_S6_S5_
FNDA:0,_ZNSt20__uninitialized_copyILb1EE13__uninit_copyISt13move_iteratorIPPKN4Json12PathArgumentEES7_EET0_T_SA_S9_
FNDA:0,_ZSt18uninitialized_copyISt13move_iteratorIPPKN4Json12PathArgumentEES5_ET0_T_S8_S7_
FNDA:0,_ZSt18uninitialized_copyISt13move_iteratorIPN4Json12PathArgumentEES3_ET0_T_S6_S5_
FNDA:0,_ZSt18uninitialized_copyISt13move_iteratorIPN4Json9OurReader15StructuredErrorEES4_ET0_T_S7_S6_
FNDA:0,_ZSt18uninitialized_copyISt13move_iteratorIPN4Json6Reader15StructuredErrorEES4_ET0_T_S7_S6_
FNDA:18704,_ZSt18uninitialized_copyISt13move_iteratorIPSsES1_ET0_T_S4_S3_
FNDA:0,_ZSt22__uninitialized_copy_aISt13move_iteratorIPPKN4Json12PathArgumentEES5_S4_ET0_T_S8_S7_RSaIT1_E
FNDA:0,_ZSt22__uninitialized_copy_aISt13move_iteratorIPN4Json12PathArgumentEES3_S2_ET0_T_S6_S5_RSaIT1_E
FNDA:0,_ZSt22__uninitialized_copy_aISt13move_iteratorIPN4Json9OurReader15StructuredErrorEES4_S3_ET0_T_S7_S6_RSaIT1_E
FNDA:0,_ZSt22__uninitialized_copy_aISt13move_iteratorIPN4Json6Reader15StructuredErrorEES4_S3_ET0_T_S7_S6_RSaIT1_E
FNDA:18704,_ZSt22__uninitialized_copy_aISt13move_iteratorIPSsES1_SsET0_T_S4_S3_RSaIT1_E
FNDA:0,_ZSt34__uninitialized_move_if_noexcept_aIPPKN4Json12PathArgumentES4_SaIS3_EET0_T_S7_S6_RT1_
FNDA:9656,_ZSt34__uninitialized_move_if_noexcept_aIPSsS0_SaISsEET0_T_S3_S2_RT1_
FNDA:0,_ZSt34__uninitialized_move_if_noexcept_aIPN4Json12PathArgumentES2_SaIS1_EET0_T_S5_S4_RT1_
FNDA:0,_ZSt34__uninitialized_move_if_noexcept_aIPN4Json9OurReader15StructuredErrorES3_SaIS2_EET0_T_S6_S5_RT1_
FNDA:0,_ZSt34__uninitialized_move_if_noexcept_aIPN4Json6Reader15StructuredErrorES3_SaIS2_EET0_T_S6_S5_RT1_
FNDA:0,_ZNSt25__uninitialized_default_1ILb0EE16__uninit_defaultISt15_Deque_iteratorIN4Json9OurReader9ErrorInfoERS5_PS5_EEEvT_S9_
FNDA:0,_ZNSt25__uninitialized_default_1ILb0EE16__uninit_defaultISt15_Deque_iteratorIN4Json6Reader9ErrorInfoERS5_PS5_EEEvT_S9_
FNDA:0,_ZSt23__uninitialized_defaultISt15_Deque_iteratorIN4Json9OurReader9ErrorInfoERS3_PS3_EEvT_S7_
FNDA:0,_ZSt23__uninitialized_defaultISt15_Deque_iteratorIN4Json6Reader9ErrorInfoERS3_PS3_EEvT_S7_
FNDA:0,_ZSt25__uninitialized_default_aISt15_Deque_iteratorIN4Json9OurReader9ErrorInfoERS3_PS3_ES3_EvT_S7_RSaIT0_E
FNDA:0,_ZSt25__uninitialized_default_aISt15_Deque_iteratorIN4Json6Reader9ErrorInfoERS3_PS3_ES3_EvT_S7_RSaIT0_E
FNF:26
FNH:4
DA:68,18704
DA:71,18704
DA:74,117816
DA:75,99112
DA:76,18704
DA:78,=====
DA:80,=====
DA:81,=====
DA:91,0
DA:93,0
DA:107,18704
DA:117,18704
DA:256,18704
DA:258,18704
DA:274,9656
DA:281,9656
DA:454,0
DA:456,0
DA:459,0
DA:460,0
DA:462,=====
DA:464,=====
DA:465,=====
DA:467,0
DA:524,0
DA:530,0
DA:531,0
DA:532,0
DA:573,0
DA:576,0
LF:30
LH:11
end_of_record
SF:/usr/include/c++/4.8/bits/stl_vector.h
FN:79,_ZNSt12_Vector_baseIN4Json12PathArgumentESaIS1_EE12_Vector_implD2Ev
FN:79,_ZNSt12_Vector_baseIPKN4Json12PathArgumentESaIS3_EE12_Vector_implD2Ev
FN:79,_ZNSt12_Vector_baseIN4Json9OurReader15StructuredErrorESaIS2_EE12_Vector_implD2Ev
FN:79,_ZNSt12_Vector_baseISsSaISsEE12_Vector_implD2Ev
FN:79,_ZNSt12_Vector_baseIN4Json6Reader15StructuredErrorESaIS2_EE12_Vector_implD2Ev
FN:86,_ZNSt12_Vector_baseIPKN4Json12PathArgumentESaIS3_EE12_Vector_implC2Ev
FN:86,_ZNSt12_Vector_baseIN4Json9OurReader15StructuredErrorESaIS2_EE12_Vector_implC2Ev
FN:86,_ZNSt12_Vector_baseIN4Json12PathArgumentESaIS1_EE12_Vector_implC2Ev
FN:86,_ZNSt12_Vector_baseISsSaISsEE12_Vector_implC2Ev
FN:86,_ZNSt12_Vector_baseIN4Json6Reader15StructuredErrorESaIS2_EE12_Vector_implC2Ev
FN:95,_ZNSt12_Vector_baseISsSaISsEE12_Vector_implC2EOS0_
FN:101,_ZNSt12_Vector_baseISsSaISsEE12_Vector_impl12_M_swap_dataERS2_
FN:113,_ZNSt12_Vector_baseISsSaISsEE19_M_get_Tp_allocatorEv
FN:113,_ZNSt12_Vector_baseIPKN4Json12PathArgumentESaIS3_EE19_M_get_Tp_allocatorEv
FN:113,_ZNSt12_Vector_baseIN4Json6Reader15StructuredErrorESaIS2_EE19_M_get_Tp_allocatorEv
FN:113,_ZNSt12_Vector_baseIN4Json12PathArgumentESaIS1_EE19_M_get_Tp_allocatorEv
FN:113,_ZNSt12_Vector_baseIN4Json9OurReader15StructuredErrorESaIS2_EE19_M_get_Tp_allocatorEv
FN:117,_ZNKSt12_Vector_baseIN4Json6Reader15StructuredErrorESaIS2_EE19_M_get_Tp_allocatorEv
FN:117,_ZNKSt12_Vector_baseIN4Json9OurReader15StructuredErrorESaIS2_EE19_M_get_Tp_allocatorEv
FN:117,_ZNKSt12_Vector_baseIPKN4Json12PathArgumentESaIS3_EE19_M_get_Tp_allocatorEv
FN:117,_ZNKSt12_Vector_baseIN4Json12PathArgumentESaIS1_EE19_M_get_Tp_allocatorEv
FN:117,_ZNKSt12_Vector_baseISsSaISsEE19_M_get_Tp_allocatorEv
FN:124,_ZNSt12_Vector_baseIN4Json12PathArgumentESaIS1_EEC2Ev
FN:124,_ZNSt12_Vector_baseISsSaISsEEC2Ev
FN:124,_ZNSt12_Vector_baseIN4Json6Reader15StructuredErrorESaIS2_EEC2Ev
FN:124,_ZNSt12_Vector_baseIPKN4Json12PathArgumentESaIS3_EEC2Ev
FN:124,_ZNSt12_Vector_baseIN4Json9OurReader15StructuredErrorESaIS2_EEC2Ev
FN:142,_ZNSt12_Vector_baseISsSaISsEEC2EOS1_
FN:159,_ZNSt12_Vector_baseIPKN4Json12PathArgumentESaIS3_EED2Ev
FN:159,_ZNSt12_Vector_baseIN4Json12PathArgumentESaIS1_EED2Ev
FN:159,_ZNSt12_Vector_baseISsSaISsEED2Ev
FN:159,_ZNSt12_Vector_baseIN4Json9OurReader15StructuredErrorESaIS2_EED2Ev
FN:159,_ZNSt12_Vector_baseIN4Json6Reader15StructuredErrorESaIS2_EED2Ev
FN:167,_ZNSt12_Vector_baseIPKN4Json12PathArgumentESaIS3_EE11_M_allocateEm
FN:167,_ZNSt12_Vector_baseIN4Json9OurReader15StructuredErrorESaIS2_EE11_M_allocateEm
FN:167,_ZNSt12_Vector_baseISsSaISsEE11_M_allocateEm
FN:167,_ZNSt12_Vector_baseIN4Json6Reader15StructuredErrorESaIS2_EE11_M_allocateEm
FN:167,_ZNSt12_Vector_baseIN4Json12PathArgumentESaIS1_EE11_M_allocateEm
FN:171,_ZNSt12_Vector_baseISsSaISsEE13_M_deallocateEPSsm
FN:171,_ZNSt12_Vector_baseIPKN4Json12PathArgumentESaIS3_EE13_M_deallocateEPS3_m
FN:171,_ZNSt12_Vector_baseIN4Json12PathArgumentESaIS1_EE13_M_deallocateEPS1_m
FN:171,_ZNSt12_Vector_baseIN4Json6Reader15StructuredErrorESaIS2_EE13_M_deallocateEPS2_m
FN:171,_ZNSt12_Vector_baseIN4Json9OurReader15StructuredErrorESaIS2_EE13_M_deallocateEPS2_m
FN:248,_ZNSt6vectorISsSaISsEEC2Ev
FN:248,_ZNSt6vectorIPKN4Json12PathArgumentESaIS3_EEC2Ev
FN:248,_ZNSt6vectorIN4Json9OurReader15StructuredErrorESaIS2_EEC2Ev
FN:248,_ZNSt6vectorIN4Json6Reader15StructuredErrorESaIS2_EEC2Ev
FN:248,_ZNSt6vectorIN4Json12PathArgumentESaIS1_EEC2Ev
FN:327,_ZNSt6vectorISsSaISsEEC2EOS1_
FN:414,_ZNSt6vectorIN4Json6Reader15StructuredErrorESaIS2_EED2Ev
FN:414,_ZNSt6vectorIPKN4Json12PathArgumentESaIS3_EED2Ev
FN:414,_ZNSt6vectorIN4Json12PathArgumentESaIS1_EED2Ev
FN:414,_ZNSt6vectorIN4Json9OurReader15StructuredErrorESaIS2_EED2Ev
FN:414,_ZNSt6vectorISsSaISsEED2Ev
FN:538,_ZNSt6vectorISsSaISsEE5beginEv
FN:547,_ZNKSt6vectorISsSaISsEE5beginEv
FN:547,_ZNKSt6vectorIPKN4Json12PathArgumentESaIS3_EE5beginEv
FN:547,_ZNKSt6vectorIN4Json12PathArgumentESaIS1_EE5beginEv
FN:556,_ZNSt6vectorISsSaISsEE3endEv
FN:565,_ZNKSt6vectorIN4Json12PathArgumentESaIS1_EE3endEv
FN:565,_ZNKSt6vectorISsSaISsEE3endEv
FN:565,_ZNKSt6vectorIPKN4Json12PathArgumentESaIS3_EE3endEv
FN:645,_ZNKSt6vectorISsSaISsEE4sizeEv
FN:645,_ZNKSt6vectorIN4Json9OurReader15StructuredErrorESaIS2_EE4sizeEv
FN:645,_ZNKSt6vectorIN4Json6Reader15StructuredErrorESaIS2_EE4sizeEv
FN:645,_ZNKSt6vectorIN4Json12PathArgumentESaIS1_EE4sizeEv
FN:645,_ZNKSt6vectorIPKN4Json12PathArgumentESaIS3_EE4sizeEv
FN:650,_ZNKSt6vectorIPKN4Json12PathArgumentESaIS3_EE8max_sizeEv
FN:650,_ZNKSt6vectorISsSaISsEE8max_sizeEv
FN:650,_ZNKSt6vectorIN4Json9OurReader15StructuredErrorESaIS2_EE8max_sizeEv
FN:650,_ZNKSt6vectorIN4Json6Reader15StructuredErrorESaIS2_EE8max_sizeEv
FN:650,_ZNKSt6vectorIN4Json12PathArgumentESaIS1_EE8max_sizeEv
FN:725,_ZNKSt6vectorISsSaISsEE8capacityEv
FN:734,_ZNKSt6vectorISsSaISsEE5emptyEv
FN:770,_ZNSt6vectorISsSaISsEEixEm
FN:901,_ZNSt6vectorISsSaISsEE9push_backERKSs
FN:901,_ZNSt6vectorIN4Json9OurReader15StructuredErrorESaIS2_EE9push_backERKS2_
FN:901,_ZNSt6vectorIN4Json12PathArgumentESaIS1_EE9push_backERKS1_
FN:901,_ZNSt6vectorIN4Json6Reader15StructuredErrorESaIS2_EE9push_backERKS2_
FN:919,_ZNSt6vectorIN4Json12PathArgumentESaIS1_EE9push_backEOS1_
FN:919,_ZNSt6vectorIPKN4Json12PathArgumentESaIS3_EE9push_backEOS3_
FN:919,_ZNSt6vectorISsSaISsEE9push_backEOSs
FN:1125,_ZNSt6vectorISsSaISsEE5clearEv
FN:1135,_ZNSt6vectorISsSaISsEE20_M_allocate_and_copyISt13move_iteratorIPSsEEES4_mT_S6_
FN:1336,_ZNKSt6vectorIN4Json9OurReader15StructuredErrorESaIS2_EE12_M_check_lenEmPKc
FN:1336,_ZNKSt6vectorIN4Json6Reader15StructuredErrorESaIS2_EE12_M_check_lenEmPKc
FN:1336,_ZNKSt6vectorIPKN4Json12PathArgumentESaIS3_EE12_M_check_lenEmPKc
FN:1336,_ZNKSt6vectorIN4Json12PathArgumentESaIS1_EE12_M_check_lenEmPKc
FN:1336,_ZNKSt6vectorISsSaISsEE12_M_check_lenEmPKc
FN:1350,_ZNSt6vectorISsSaISsEE15_M_erase_at_endEPSs
FNDA:0,_ZNSt12_Vector_baseIPKN4Json12PathArgumentESaIS3_EE12_Vector_implD2Ev
FNDA:0,_ZNSt12_Vector_baseIN4Json12PathArgumentESaIS1_EE12_Vector_implD2Ev
FNDA:0,_ZNSt12_Vector_baseIN4Json9OurReader15StructuredErrorESaIS2_EE12_Vector_implD2Ev
FNDA:0,_ZNSt12_Vector_baseIN4Json6Reader15StructuredErrorESaIS2_EE12_Vector_implD2Ev
FNDA:19148,_ZNSt12_Vector_baseISsSaISsEE12_Vector_implD2Ev
FNDA:0,_ZNSt12_Vector_baseIPKN4Json12PathArgumentESaIS3_EE12_Vector_implC2Ev
FNDA:0,_ZNSt12_Vector_baseIN4Json12PathArgumentESaIS1_EE12_Vector_implC2Ev
FNDA:9064,_ZNSt12_Vector_baseISsSaISsEE12_Vector_implC2Ev
FNDA:0,_ZNSt12_Vector_baseIN4Json9OurReader15StructuredErrorESaIS2_EE12_Vector_implC2Ev
FNDA:0,_ZNSt12_Vector_baseIN4Json6Reader15StructuredErrorESaIS2_EE12_Vector_implC2Ev
FNDA:9048,_ZNSt12_Vector_baseISsSaISsEE12_Vector_implC2EOS0_
FNDA:9048,_ZNSt12_Vector_baseISsSaISsEE12_Vector_impl12_M_swap_dataERS2_
FNDA:0,_ZNSt12_Vector_baseIPKN4Json12PathArgumentESaIS3_EE19_M_get_Tp_allocatorEv
FNDA:0,_ZNSt12_Vector_baseIN4Json12PathArgumentESaIS1_EE19_M_get_Tp_allocatorEv
FNDA:0,_ZNSt12_Vector_baseIN4Json9OurReader15StructuredErrorESaIS2_EE19_M_get_Tp_allocatorEv
FNDA:0,_ZNSt12_Vector_baseIN4Json6Reader15StructuredErrorESaIS2_EE19_M_get_Tp_allocatorEv
FNDA:65620,_ZNSt12_Vector_baseISsSaISsEE19_M_get_Tp_allocatorEv
FNDA:0,_ZNKSt12_Vector_baseIPKN4Json12PathArgumentESaIS3_EE19_M_get_Tp_allocatorEv
FNDA:0,_ZNKSt12_Vector_baseIN4Json12PathArgumentESaIS1_EE19_M_get_Tp_allocatorEv
FNDA:0,_ZNKSt12_Vector_baseIN4Json9OurReader15StructuredErrorESaIS2_EE19_M_get_Tp_allocatorEv
FNDA:0,_ZNKSt12_Vector_baseIN4Json6Reader15StructuredErrorESaIS2_EE19_M_get_Tp_allocatorEv
FNDA:28360,_ZNKSt12_Vector_baseISsSaISsEE19_M_get_Tp_allocatorEv
FNDA:0,_ZNSt12_Vector_baseIPKN4Json12PathArgumentESaIS3_EEC2Ev
FNDA:0,_ZNSt12_Vector_baseIN4Json12PathArgumentESaIS1_EEC2Ev
FNDA:9064,_ZNSt12_Vector_baseISsSaISsEEC2Ev
FNDA:0,_ZNSt12_Vector_baseIN4Json9OurReader15StructuredErrorESaIS2_EEC2Ev
FNDA:0,_ZNSt12_Vector_baseIN4Json6Reader15StructuredErrorESaIS2_EEC2Ev
FNDA:9048,_ZNSt12_Vector_baseISsSaISsEEC2EOS1_
FNDA:0,_ZNSt12_Vector_baseIPKN4Json12PathArgumentESaIS3_EED2Ev
FNDA:0,_ZNSt12_Vector_baseIN4Json12PathArgumentESaIS1_EED2Ev
FNDA:0,_ZNSt12_Vector_baseIN4Json9OurReader15StructuredErrorESaIS2_EED2Ev
FNDA:0,_ZNSt12_Vector_baseIN4Json6Reader15StructuredErrorESaIS2_EED2Ev
FNDA:19148,_ZNSt12_Vector_baseISsSaISsEED2Ev
FNDA:0,_ZNSt12_Vector_baseIPKN4Json12PathArgumentESaIS3_EE11_M_allocateEm
FNDA:0,_ZNSt12_Vector_baseIN4Json12PathArgumentESaIS1_EE11_M_allocateEm
FNDA:18704,_ZNSt12_Vector_baseISsSaISsEE11_M_allocateEm
FNDA:0,_ZNSt12_Vector_baseIN4Json9OurReader15StructuredErrorESaIS2_EE11_M_allocateEm
FNDA:0,_ZNSt12_Vector_baseIN4Json6Reader15StructuredErrorESaIS2_EE11_M_allocateEm
FNDA:0,_ZNSt12_Vector_baseIPKN4Json12PathArgumentESaIS3_EE13_M_deallocateEPS3_m
FNDA:0,_ZNSt12_Vector_baseIN4Json12PathArgumentESaIS1_EE13_M_deallocateEPS1_m
FNDA:0,_ZNSt12_Vector_baseIN4Json9OurReader15StructuredErrorESaIS2_EE13_M_deallocateEPS2_m
FNDA:0,_ZNSt12_Vector_baseIN4Json6Reader15StructuredErrorESaIS2_EE13_M_deallocateEPS2_m
FNDA:37852,_ZNSt12_Vector_baseISsSaISsEE13_M_deallocateEPSsm
FNDA:0,_ZNSt6vectorIPKN4Json12PathArgumentESaIS3_EEC2Ev
FNDA:0,_ZNSt6vectorIN4Json12PathArgumentESaIS1_EEC2Ev
FNDA:9064,_ZNSt6vectorISsSaISsEEC2Ev
FNDA:0,_ZNSt6vectorIN4Json9OurReader15StructuredErrorESaIS2_EEC2Ev
FNDA:0,_ZNSt6vectorIN4Json6Reader15StructuredErrorESaIS2_EEC2Ev
FNDA:9048,_ZNSt6vectorISsSaISsEEC2EOS1_
FNDA:0,_ZNSt6vectorIPKN4Json12PathArgumentESaIS3_EED2Ev
FNDA:0,_ZNSt6vectorIN4Json12PathArgumentESaIS1_EED2Ev
FNDA:0,_ZNSt6vectorIN4Json9OurReader15StructuredErrorESaIS2_EED2Ev
FNDA:0,_ZNSt6vectorIN4Json6Reader15StructuredErrorESaIS2_EED2Ev
FNDA:19148,_ZNSt6vectorISsSaISsEED2Ev
FNDA:27144,_ZNSt6vectorISsSaISsEE5beginEv
FNDA:0,_ZNKSt6vectorISsSaISsEE5beginEv
FNDA:0,_ZNKSt6vectorIN4Json12PathArgumentESaIS1_EE5beginEv
FNDA:0,_ZNKSt6vectorIPKN4Json12PathArgumentESaIS3_EE5beginEv
FNDA:27144,_ZNSt6vectorISsSaISsEE3endEv
FNDA:0,_ZNKSt6vectorISsSaISsEE3endEv
FNDA:0,_ZNKSt6vectorIN4Json12PathArgumentESaIS1_EE3endEv
FNDA:0,_ZNKSt6vectorIPKN4Json12PathArgumentESaIS3_EE3endEv
FNDA:0,_ZNKSt6vectorIPKN4Json12PathArgumentESaIS3_EE4sizeEv
FNDA:0,_ZNKSt6vectorIN4Json12PathArgumentESaIS1_EE4sizeEv
FNDA:0,_ZNKSt6vectorIN4Json9OurReader15StructuredErrorESaIS2_EE4sizeEv
FNDA:0,_ZNKSt6vectorIN4Json6Reader15StructuredErrorESaIS2_EE4sizeEv
FNDA:57360,_ZNKSt6vectorISsSaISsEE4sizeEv
FNDA:0,_ZNKSt6vectorIPKN4Json12PathArgumentESaIS3_EE8max_sizeEv
FNDA:0,_ZNKSt6vectorIN4Json12PathArgumentESaIS1_EE8max_sizeEv
FNDA:0,_ZNKSt6vectorIN4Json9OurReader15StructuredErrorESaIS2_EE8max_sizeEv
FNDA:0,_ZNKSt6vectorIN4Json6Reader15StructuredErrorESaIS2_EE8max_sizeEv
FNDA:28360,_ZNKSt6vectorISsSaISsEE8max_sizeEv
FNDA:9048,_ZNKSt6vectorISsSaISsEE8capacityEv
FNDA:0,_ZNKSt6vectorISsSaISsEE5emptyEv
FNDA:0,_ZNSt6vectorISsSaISsEEixEm
FNDA:16,_ZNSt6vectorISsSaISsEE9push_backERKSs
FNDA:0,_ZNSt6vectorIN4Json12PathArgumentESaIS1_EE9push_backERKS1_
FNDA:0,_ZNSt6vectorIN4Json9OurReader15StructuredErrorESaIS2_EE9push_backERKS2_
FNDA:0,_ZNSt6vectorIN4Json6Reader15StructuredErrorESaIS2_EE9push_backERKS2_
FNDA:0,_ZNSt6vectorIN4Json12PathArgumentESaIS1_EE9push_backEOS1_
FNDA:0,_ZNSt6vectorIPKN4Json12PathArgumentESaIS3_EE9push_backEOS3_
FNDA:18096,_ZNSt6vectorISsSaISsEE9push_backEOSs
FNDA:16,_ZNSt6vectorISsSaISsEE5clearEv
FNDA:9048,_ZNSt6vectorISsSaISsEE20_M_allocate_and_copyISt13move_iteratorIPSsEEES4_mT_S6_
FNDA:0,_ZNKSt6vectorIPKN4Json12PathArgumentESaIS3_EE12_M_check_lenEmPKc
FNDA:9656,_ZNKSt6vectorISsSaISsEE12_M_check_lenEmPKc
FNDA:0,_ZNKSt6vectorIN4Json12PathArgumentESaIS1_EE12_M_check_lenEmPKc
FNDA:0,_ZNKSt6vectorIN4Json9OurReader15StructuredErrorESaIS2_EE12_M_check_lenEmPKc
FNDA:0,_ZNKSt6vectorIN4Json6Reader15StructuredErrorESaIS2_EE12_M_check_lenEmPKc
FNDA:16,_ZNSt6vectorISsSaISsEE15_M_erase_at_endEPSs
FNF:90
FNH:25
DA:79,19148
DA:86,9064
DA:87,9064
DA:88,9064
DA:95,9048
DA:96,9048
DA:97,9048
DA:98,9048
DA:101,9048
DA:103,9048
DA:104,9048
DA:105,9048
DA:106,9048
DA:113,65620
DA:114,65620
DA:117,28360
DA:118,28360
DA:124,9064
DA:125,9064
DA:142,9048
DA:143,9048
DA:144,9048
DA:159,19148
DA:160,19148
DA:161,38296
DA:167,18704
DA:168,18704
DA:171,37852
DA:173,37852
DA:174,17714
DA:175,37852
DA:248,9064
DA:249,9064
DA:327,9048
DA:328,9048
DA:414,19148
DA:415,19148
DA:416,38296
DA:538,27144
DA:539,27144
DA:547,0
DA:548,0
DA:556,27144
DA:557,27144
DA:565,0
DA:566,0
DA:645,57360
DA:646,57360
DA:650,28360
DA:651,28360
DA:725,9048
DA:727,9048
DA:734,0
DA:735,0
DA:770,0
DA:771,0
DA:901,16
DA:903,16
DA:905,0
DA:906,0
DA:907,0
DA:911,16
DA:915,16
DA:919,18096
DA:920,18096
DA:1125,16
DA:1126,16
DA:1135,9048
DA:1138,9048
DA:1141,9048
DA:1142,9048
DA:1143,9048
DA:1145,=====
DA:1147,=====
DA:1148,=====
DA:1336,9656
DA:1338,9656
DA:1339,0
DA:1341,9656
DA:1342,9656
DA:1350,16
DA:1352,16
DA:1353,16
DA:1354,16
LF:84
LH:69
end_of_record
SF:/usr/include/c++/4.8/bits/unique_ptr.h
FN:63,_ZNKSt14default_deleteIN4Json10CharReaderEEclEPS1_
FN:63,_ZNKSt14default_deleteIN4Json12StreamWriterEEclEPS1_
FN:141,_ZNSt10unique_ptrIN4Json12StreamWriterESt14default_deleteIS1_EEC2EPS1_
FN:141,_ZNSt10unique_ptrIN4Json10CharReaderESt14default_deleteIS1_EEC2EPS1_
FN:180,_ZNSt10unique_ptrIN4Json12StreamWriterESt14default_deleteIS1_EED2Ev
FN:180,_ZNSt10unique_ptrIN4Json10CharReaderESt14default_deleteIS1_EED2Ev
FN:226,_ZNKSt10unique_ptrIN4Json10CharReaderESt14default_deleteIS1_EEptEv
FN:226,_ZNKSt10unique_ptrIN4Json12StreamWriterESt14default_deleteIS1_EEptEv
FN:233,_ZNKSt10unique_ptrIN4Json12StreamWriterESt14default_deleteIS1_EE3getEv
FN:233,_ZNKSt10unique_ptrIN4Json10CharReaderESt14default_deleteIS1_EE3getEv
FN:237,_ZNSt10unique_ptrIN4Json10CharReaderESt14default_deleteIS1_EE11get_deleterEv
FN:237,_ZNSt10unique_ptrIN4Json12StreamWriterESt14default_deleteIS1_EE11get_deleterEv
FNDA:0,_ZNKSt14default_deleteIN4Json12StreamWriterEEclEPS1_
FNDA:0,_ZNKSt14default_deleteIN4Json10CharReaderEEclEPS1_
FNDA:0,_ZNSt10unique_ptrIN4Json12StreamWriterESt14default_deleteIS1_EEC2EPS1_
FNDA:0,_ZNSt10unique_ptrIN4Json10CharReaderESt14default_deleteIS1_EEC2EPS1_
FNDA:0,_ZNSt10unique_ptrIN4Json12StreamWriterESt14default_deleteIS1_EED2Ev
FNDA:0,_ZNSt10unique_ptrIN4Json10CharReaderESt14default_deleteIS1_EED2Ev
FNDA:0,_ZNKSt10unique_ptrIN4Json12StreamWriterESt14default_deleteIS1_EEptEv
FNDA:0,_ZNKSt10unique_ptrIN4Json10CharReaderESt14default_deleteIS1_EEptEv
FNDA:0,_ZNKSt10unique_ptrIN4Json12StreamWriterESt14default_deleteIS1_EE3getEv
FNDA:0,_ZNKSt10unique_ptrIN4Json10CharReaderESt14default_deleteIS1_EE3getEv
FNDA:0,_ZNSt10unique_ptrIN4Json12StreamWriterESt14default_deleteIS1_EE11get_deleterEv
FNDA:0,_ZNSt10unique_ptrIN4Json10CharReaderESt14default_deleteIS1_EE11get_deleterEv
FNF:12
FNH:0
DA:63,0
DA:67,0
DA:68,0
DA:141,0
DA:142,0
DA:144,0
DA:180,0
DA:182,0
DA:183,0
DA:184,0
DA:185,0
DA:186,0
DA:226,0
DA:229,0
DA:233,0
DA:234,0
DA:237,0
DA:238,0
LF:18
LH:0
end_of_record
SF:/usr/include/c++/4.8/bits/vector.tcc
FN:65,_ZNSt6vectorISsSaISsEE7reserveEm
FN:91,_ZNSt6vectorIN4Json12PathArgumentESaIS1_EE12emplace_backIIS1_EEEvDpOT_
FN:91,_ZNSt6vectorISsSaISsEE12emplace_backIISsEEEvDpOT_
FN:91,_ZNSt6vectorIPKN4Json12PathArgumentESaIS3_EE12emplace_backIIS3_EEEvDpOT_
FN:399,_ZNSt6vectorIN4Json9OurReader15StructuredErrorESaIS2_EE19_M_emplace_back_auxIIRKS2_EEEvDpOT_
FN:399,_ZNSt6vectorIPKN4Json12PathArgumentESaIS3_EE19_M_emplace_back_auxIIS3_EEEvDpOT_
FN:399,_ZNSt6vectorIN4Json6Reader15StructuredErrorESaIS2_EE19_M_emplace_back_auxIIRKS2_EEEvDpOT_
FN:399,_ZNSt6vectorIN4Json12PathArgumentESaIS1_EE19_M_emplace_back_auxIIRKS1_EEEvDpOT_
FN:399,_ZNSt6vectorISsSaISsEE19_M_emplace_back_auxIIRKSsEEEvDpOT_
FN:399,_ZNSt6vectorISsSaISsEE19_M_emplace_back_auxIISsEEEvDpOT_
FN:399,_ZNSt6vectorIN4Json12PathArgumentESaIS1_EE19_M_emplace_back_auxIIS1_EEEvDpOT_
FNDA:9048,_ZNSt6vectorISsSaISsEE7reserveEm
FNDA:0,_ZNSt6vectorIN4Json12PathArgumentESaIS1_EE12emplace_backIIS1_EEEvDpOT_
FNDA:0,_ZNSt6vectorIPKN4Json12PathArgumentESaIS3_EE12emplace_backIIS3_EEEvDpOT_
FNDA:18096,_ZNSt6vectorISsSaISsEE12emplace_backIISsEEEvDpOT_
FNDA:0,_ZNSt6vectorIN4Json12PathArgumentESaIS1_EE19_M_emplace_back_auxIIS1_EEEvDpOT_
FNDA:0,_ZNSt6vectorIPKN4Json12PathArgumentESaIS3_EE19_M_emplace_back_auxIIS3_EEEvDpOT_
FNDA:6964,_ZNSt6vectorISsSaISsEE19_M_emplace_back_auxIISsEEEvDpOT_
FNDA:2692,_ZNSt6vectorISsSaISsEE19_M_emplace_back_auxIIRKSsEEEvDpOT_
FNDA:0,_ZNSt6vectorIN4Json12PathArgumentESaIS1_EE19_M_emplace_back_auxIIRKS1_EEEvDpOT_
FNDA:0,_ZNSt6vectorIN4Json9OurReader15StructuredErrorESaIS2_EE19_M_emplace_back_auxIIRKS2_EEEvDpOT_
FNDA:0,_ZNSt6vectorIN4Json6Reader15StructuredErrorESaIS2_EE19_M_emplace_back_auxIIRKS2_EEEvDpOT_
FNF:11
FNH:4
DA:65,9048
DA:68,9048
DA:69,0
DA:70,9048
DA:72,9048
DA:75,9048
DA:76,9048
DA:77,9048
DA:78,9048
DA:80,9048
DA:81,9048
DA:82,9048
DA:83,9048
DA:85,9048
DA:91,18096
DA:94,18096
DA:96,18096
DA:97,18096
DA:98,18096
DA:101,0
DA:102,18096
DA:399,9656
DA:403,9656
DA:404,9656
DA:405,9656
DA:408,19312
DA:409,19312
DA:410,9656
DA:412,9656
DA:415,9656
DA:417,9656
DA:419,=====
DA:421,=====
DA:422,=====
DA:424,=====
DA:425,=====
DA:426,=====
DA:428,9656
DA:429,9656
DA:430,9656
DA:432,9656
DA:433,9656
DA:434,9656
DA:435,9656
DA:436,9656
LF:45
LH:37
end_of_record
SF:/usr/include/c++/4.8/cmath
FN:586,_ZSt8isfinited
FNDA:0,_ZSt8isfinited
FNF:1
FNH:0
DA:586,0
DA:587,0
LF:2
LH:0
end_of_record
SF:/usr/include/c++/4.8/exception
FN:63,_ZNSt9exceptionC2Ev
FNDA:0,_ZNSt9exceptionC2Ev
FNF:1
FNH:0
DA:63,0
LF:1
LH:0
end_of_record
SF:/usr/include/c++/4.8/ext/atomicity.h
FN:48,_ZN9__gnu_cxxL18__exchange_and_addEPVii
FN:65,_ZN9__gnu_cxxL25__exchange_and_add_singleEPii
FN:78,_ZN9__gnu_cxxL27__exchange_and_add_dispatchEPii
FNDA:0,_ZN9__gnu_cxxL18__exchange_and_addEPVii
FNDA:0,_ZN9__gnu_cxxL25__exchange_and_add_singleEPii
FNDA:0,_ZN9__gnu_cxxL27__exchange_and_add_dispatchEPii
FNF:3
FNH:0
DA:48,0
DA:49,0
DA:65,0
DA:67,0
DA:68,0
DA:69,0
DA:78,0
DA:81,0
DA:82,0
DA:84,0
LF:10
LH:0
end_of_record
SF:/usr/include/c++/4.8/ext/new_allocator.h
FN:79,_ZN9__gnu_cxx13new_allocatorIN4Json9OurReader9ErrorInfoEEC2Ev
FN:79,_ZN9__gnu_cxx13new_allocatorIcEC2Ev
FN:79,_ZN9__gnu_cxx13new_allocatorIPN4Json6Reader9ErrorInfoEEC2Ev
FN:79,_ZN9__gnu_cxx13new_allocatorIPN4Json9OurReader9ErrorInfoEEC2Ev
FN:79,_ZN9__gnu_cxx13new_allocatorISt13_Rb_tree_nodeISt4pairIKN4Json5Value8CZStringES4_EEEC2Ev
FN:79,_ZN9__gnu_cxx13new_allocatorIPN4Json5ValueEEC2Ev
FN:79,_ZN9__gnu_cxx13new_allocatorIPKN4Json12PathArgumentEEC2Ev
FN:79,_ZN9__gnu_cxx13new_allocatorIN4Json9OurReader15StructuredErrorEEC2Ev
FN:79,_ZN9__gnu_cxx13new_allocatorIN4Json12PathArgumentEEC2Ev
FN:79,_ZN9__gnu_cxx13new_allocatorISt13_Rb_tree_nodeISsEEC2Ev
FN:79,_ZN9__gnu_cxx13new_allocatorISsEC2Ev
FN:79,_ZN9__gnu_cxx13new_allocatorIN4Json6Reader15StructuredErrorEEC2Ev
FN:79,_ZN9__gnu_cxx13new_allocatorIPPN4Json5ValueEEC2Ev
FN:79,_ZN9__gnu_cxx13new_allocatorIN4Json6Reader9ErrorInfoEEC2Ev
FN:81,_ZN9__gnu_cxx13new_allocatorIcEC2ERKS1_
FN:81,_ZN9__gnu_cxx13new_allocatorIPN4Json5ValueEEC2ERKS4_
FN:81,_ZN9__gnu_cxx13new_allocatorISt13_Rb_tree_nodeISt4pairIKN4Json5Value8CZStringES4_EEEC2ERKS9_
FN:81,_ZN9__gnu_cxx13new_allocatorISsEC2ERKS1_
FN:86,_ZN9__gnu_cxx13new_allocatorIPN4Json6Reader9ErrorInfoEED2Ev
FN:86,_ZN9__gnu_cxx13new_allocatorIN4Json12PathArgumentEED2Ev
FN:86,_ZN9__gnu_cxx13new_allocatorIcED2Ev
FN:86,_ZN9__gnu_cxx13new_allocatorISt13_Rb_tree_nodeISsEED2Ev
FN:86,_ZN9__gnu_cxx13new_allocatorIN4Json6Reader9ErrorInfoEED2Ev
FN:86,_ZN9__gnu_cxx13new_allocatorIN4Json9OurReader9ErrorInfoEED2Ev
FN:86,_ZN9__gnu_cxx13new_allocatorIN4Json6Reader15StructuredErrorEED2Ev
FN:86,_ZN9__gnu_cxx13new_allocatorIPN4Json5ValueEED2Ev
FN:86,_ZN9__gnu_cxx13new_allocatorIN4Json9OurReader15StructuredErrorEED2Ev
FN:86,_ZN9__gnu_cxx13new_allocatorISt13_Rb_tree_nodeISt4pairIKN4Json5Value8CZStringES4_EEED2Ev
FN:86,_ZN9__gnu_cxx13new_allocatorISsED2Ev
FN:86,_ZN9__gnu_cxx13new_allocatorIPKN4Json12PathArgumentEED2Ev
FN:86,_ZN9__gnu_cxx13new_allocatorIPN4Json9OurReader9ErrorInfoEED2Ev
FN:86,_ZN9__gnu_cxx13new_allocatorIPPN4Json5ValueEED2Ev
FN:99,_ZN9__gnu_cxx13new_allocatorIPN4Json6Reader9ErrorInfoEE8allocateEmPKv
FN:99,_ZN9__gnu_cxx13new_allocatorIPN4Json9OurReader9ErrorInfoEE8allocateEmPKv
FN:99,_ZN9__gnu_cxx13new_allocatorIN4Json6Reader9ErrorInfoEE8allocateEmPKv
FN:99,_ZN9__gnu_cxx13new_allocatorIPN4Json5ValueEE8allocateEmPKv
FN:99,_ZN9__gnu_cxx13new_allocatorISsE8allocateEmPKv
FN:99,_ZN9__gnu_cxx13new_allocatorIN4Json12PathArgumentEE8allocateEmPKv
FN:99,_ZN9__gnu_cxx13new_allocatorISt13_Rb_tree_nodeISt4pairIKN4Json5Value8CZStringES4_EEE8allocateEmPKv
FN:99,_ZN9__gnu_cxx13new_allocatorIPKN4Json12PathArgumentEE8allocateEmPKv
FN:99,_ZN9__gnu_cxx13new_allocatorIN4Json9OurReader15StructuredErrorEE8allocateEmPKv
FN:99,_ZN9__gnu_cxx13new_allocatorIPPN4Json5ValueEE8allocateEmPKv
FN:99,_ZN9__gnu_cxx13new_allocatorIN4Json9OurReader9ErrorInfoEE8allocateEmPKv
FN:99,_ZN9__gnu_cxx13new_allocatorISt13_Rb_tree_nodeISsEE8allocateEmPKv
FN:99,_ZN9__gnu_cxx13new_allocatorIN4Json6Reader15StructuredErrorEE8allocateEmPKv
FN:109,_ZN9__gnu_cxx13new_allocatorIPN4Json6Reader9ErrorInfoEE10deallocateEPS4_m
FN:109,_ZN9__gnu_cxx13new_allocatorIN4Json9OurReader15StructuredErrorEE10deallocateEPS3_m
FN:109,_ZN9__gnu_cxx13new_allocatorIN4Json6Reader15StructuredErrorEE10deallocateEPS3_m
FN:109,_ZN9__gnu_cxx13new_allocatorIPKN4Json12PathArgumentEE10deallocateEPS4_m
FN:109,_ZN9__gnu_cxx13new_allocatorIN4Json9OurReader9ErrorInfoEE10deallocateEPS3_m
FN:109,_ZN9__gnu_cxx13new_allocatorISsE10deallocateEPSsm
FN:109,_ZN9__gnu_cxx13new_allocatorIPN4Json5ValueEE10deallocateEPS3_m
FN:109,_ZN9__gnu_cxx13new_allocatorIN4Json12PathArgumentEE10deallocateEPS2_m
FN:109,_ZN9__gnu_cxx13new_allocatorISt13_Rb_tree_nodeISt4pairIKN4Json5Value8CZStringES4_EEE10deallocateEPS8_m
FN:109,_ZN9__gnu_cxx13new_allocatorIPPN4Json5ValueEE10deallocateEPS4_m
FN:109,_ZN9__gnu_cxx13new_allocatorIN4Json6Reader9ErrorInfoEE10deallocateEPS3_m
FN:109,_ZN9__gnu_cxx13new_allocatorIPN4Json9OurReader9ErrorInfoEE10deallocateEPS4_m
FN:109,_ZN9__gnu_cxx13new_allocatorISt13_Rb_tree_nodeISsEE10deallocateEPS2_m
FN:113,_ZNK9__gnu_cxx13new_allocatorISt13_Rb_tree_nodeISsEE8max_sizeEv
FN:113,_ZNK9__gnu_cxx13new_allocatorISt13_Rb_tree_nodeISt4pairIKN4Json5Value8CZStringES4_EEE8max_sizeEv
FN:113,_ZNK9__gnu_cxx13new_allocatorIN4Json6Reader15StructuredErrorEE8max_sizeEv
FN:113,_ZNK9__gnu_cxx13new_allocatorIPPN4Json5ValueEE8max_sizeEv
FN:113,_ZNK9__gnu_cxx13new_allocatorIN4Json6Reader9ErrorInfoEE8max_sizeEv
FN:113,_ZNK9__gnu_cxx13new_allocatorIPKN4Json12PathArgumentEE8max_sizeEv
FN:113,_ZNK9__gnu_cxx13new_allocatorIPN4Json6Reader9ErrorInfoEE8max_sizeEv
FN:113,_ZNK9__gnu_cxx13new_allocatorIPN4Json9OurReader9ErrorInfoEE8max_sizeEv
FN:113,_ZNK9__gnu_cxx13new_allocatorISsE8max_sizeEv
FN:113,_ZNK9__gnu_cxx13new_allocatorIN4Json9OurReader15StructuredErrorEE8max_sizeEv
FN:113,_ZNK9__gnu_cxx13new_allocatorIN4Json12PathArgumentEE8max_sizeEv
FN:113,_ZNK9__gnu_cxx13new_allocatorIN4Json9OurReader9ErrorInfoEE8max_sizeEv
FN:113,_ZNK9__gnu_cxx13new_allocatorIPN4Json5ValueEE8max_sizeEv
FN:119,_ZN9__gnu_cxx13new_allocatorISsE9constructISsISsEEEvPT_DpOT0_
FN:119,_ZN9__gnu_cxx13new_allocatorIN4Json6Reader15StructuredErrorEE9constructIS3_IRKS3_EEEvPT_DpOT0_
FN:119,_ZN9__gnu_cxx13new_allocatorISt13_Rb_tree_nodeISt4pairIKN4Json5Value8CZStringES4_EEE9constructIS8_IRKSt21piecewise_construct_tSt5tupleIIRS6_EESE_IIEEEEEvPT_DpOT0_
FN:119,_ZN9__gnu_cxx13new_allocatorIN4Json6Reader9ErrorInfoEE9constructIS3_IRKS3_EEEvPT_DpOT0_
FN:119,_ZN9__gnu_cxx13new_allocatorISsE9constructISsIRKSsEEEvPT_DpOT0_
FN:119,_ZN9__gnu_cxx13new_allocatorIPN4Json5ValueEE9constructIS3_IS3_EEEvPT_DpOT0_
FN:119,_ZN9__gnu_cxx13new_allocatorIPKN4Json12PathArgumentEE9constructIS4_IS4_EEEvPT_DpOT0_
FN:119,_ZN9__gnu_cxx13new_allocatorISt13_Rb_tree_nodeISt4pairIKN4Json5Value8CZStringES4_EEE9constructIS8_IRS7_EEEvPT_DpOT0_
FN:119,_ZN9__gnu_cxx13new_allocatorISt13_Rb_tree_nodeISt4pairIKN4Json5Value8CZStringES4_EEE9constructIS8_IRKS7_EEEvPT_DpOT0_
FN:119,_ZN9__gnu_cxx13new_allocatorIN4Json12PathArgumentEE9constructIS2_IRKS2_EEEvPT_DpOT0_
FN:119,_ZN9__gnu_cxx13new_allocatorISt13_Rb_tree_nodeISsEE9constructIS2_ISsEEEvPT_DpOT0_
FN:119,_ZN9__gnu_cxx13new_allocatorIN4Json9OurReader9ErrorInfoEE9constructIS3_IRKS3_EEEvPT_DpOT0_
FN:119,_ZN9__gnu_cxx13new_allocatorIN4Json12PathArgumentEE9constructIS2_IS2_EEEvPT_DpOT0_
FN:119,_ZN9__gnu_cxx13new_allocatorIN4Json9OurReader15StructuredErrorEE9constructIS3_IRKS3_EEEvPT_DpOT0_
FN:124,_ZN9__gnu_cxx13new_allocatorISt13_Rb_tree_nodeISt4pairIKN4Json5Value8CZStringES4_EEE7destroyIS8_EEvPT_
FN:124,_ZN9__gnu_cxx13new_allocatorIN4Json9OurReader15StructuredErrorEE7destroyIS3_EEvPT_
FN:124,_ZN9__gnu_cxx13new_allocatorISsE7destroyISsEEvPT_
FN:124,_ZN9__gnu_cxx13new_allocatorIN4Json6Reader15StructuredErrorEE7destroyIS3_EEvPT_
FN:124,_ZN9__gnu_cxx13new_allocatorISt13_Rb_tree_nodeISsEE7destroyIS2_EEvPT_
FN:124,_ZN9__gnu_cxx13new_allocatorIN4Json12PathArgumentEE7destroyIS2_EEvPT_
FN:124,_ZN9__gnu_cxx13new_allocatorIPN4Json5ValueEE7destroyIS3_EEvPT_
FN:124,_ZN9__gnu_cxx13new_allocatorIPKN4Json12PathArgumentEE7destroyIS4_EEvPT_
FNDA:0,_ZN9__gnu_cxx13new_allocatorIPN4Json9OurReader9ErrorInfoEEC2Ev
FNDA:806,_ZN9__gnu_cxx13new_allocatorIPN4Json6Reader9ErrorInfoEEC2Ev
FNDA:1612,_ZN9__gnu_cxx13new_allocatorIPPN4Json5ValueEEC2Ev
FNDA:0,_ZN9__gnu_cxx13new_allocatorIPKN4Json12PathArgumentEEC2Ev
FNDA:0,_ZN9__gnu_cxx13new_allocatorIN4Json12PathArgumentEEC2Ev
FNDA:9064,_ZN9__gnu_cxx13new_allocatorISsEC2Ev
FNDA:13208,_ZN9__gnu_cxx13new_allocatorISt13_Rb_tree_nodeISt4pairIKN4Json5Value8CZStringES4_EEEC2Ev
FNDA:0,_ZN9__gnu_cxx13new_allocatorISt13_Rb_tree_nodeISsEEC2Ev
FNDA:0,_ZN9__gnu_cxx13new_allocatorIN4Json9OurReader15StructuredErrorEEC2Ev
FNDA:0,_ZN9__gnu_cxx13new_allocatorIN4Json9OurReader9ErrorInfoEEC2Ev
FNDA:0,_ZN9__gnu_cxx13new_allocatorIN4Json6Reader15StructuredErrorEEC2Ev
FNDA:403,_ZN9__gnu_cxx13new_allocatorIN4Json6Reader9ErrorInfoEEC2Ev
FNDA:403,_ZN9__gnu_cxx13new_allocatorIPN4Json5ValueEEC2Ev
FNDA:0,_ZN9__gnu_cxx13new_allocatorIcEC2Ev
FNDA:403,_ZN9__gnu_cxx13new_allocatorIPN4Json5ValueEEC2ERKS4_
FNDA:13731,_ZN9__gnu_cxx13new_allocatorISt13_Rb_tree_nodeISt4pairIKN4Json5Value8CZStringES4_EEEC2ERKS9_
FNDA:9048,_ZN9__gnu_cxx13new_allocatorISsEC2ERKS1_
FNDA:0,_ZN9__gnu_cxx13new_allocatorIcEC2ERKS1_
FNDA:0,_ZN9__gnu_cxx13new_allocatorIPN4Json9OurReader9ErrorInfoEED2Ev
FNDA:806,_ZN9__gnu_cxx13new_allocatorIPN4Json6Reader9ErrorInfoEED2Ev
FNDA:1612,_ZN9__gnu_cxx13new_allocatorIPPN4Json5ValueEED2Ev
FNDA:0,_ZN9__gnu_cxx13new_allocatorIPKN4Json12PathArgumentEED2Ev
FNDA:0,_ZN9__gnu_cxx13new_allocatorIN4Json12PathArgumentEED2Ev
FNDA:0,_ZN9__gnu_cxx13new_allocatorIN4Json9OurReader15StructuredErrorEED2Ev
FNDA:0,_ZN9__gnu_cxx13new_allocatorIN4Json9OurReader9ErrorInfoEED2Ev
FNDA:0,_ZN9__gnu_cxx13new_allocatorIN4Json6Reader15StructuredErrorEED2Ev
FNDA:403,_ZN9__gnu_cxx13new_allocatorIN4Json6Reader9ErrorInfoEED2Ev
FNDA:806,_ZN9__gnu_cxx13new_allocatorIPN4Json5ValueEED2Ev
FNDA:19148,_ZN9__gnu_cxx13new_allocatorISsED2Ev
FNDA:26939,_ZN9__gnu_cxx13new_allocatorISt13_Rb_tree_nodeISt4pairIKN4Json5Value8CZStringES4_EEED2Ev
FNDA:20,_ZN9__gnu_cxx13new_allocatorISt13_Rb_tree_nodeISsEED2Ev
FNDA:0,_ZN9__gnu_cxx13new_allocatorIcED2Ev
FNDA:0,_ZN9__gnu_cxx13new_allocatorISt13_Rb_tree_nodeISsEE8allocateEmPKv
FNDA:806,_ZN9__gnu_cxx13new_allocatorIPN4Json5ValueEE8allocateEmPKv
FNDA:0,_ZN9__gnu_cxx13new_allocatorIPKN4Json12PathArgumentEE8allocateEmPKv
FNDA:75325,_ZN9__gnu_cxx13new_allocatorISt13_Rb_tree_nodeISt4pairIKN4Json5Value8CZStringES4_EEE8allocateEmPKv
FNDA:0,_ZN9__gnu_cxx13new_allocatorIPN4Json9OurReader9ErrorInfoEE8allocateEmPKv
FNDA:403,_ZN9__gnu_cxx13new_allocatorIPN4Json6Reader9ErrorInfoEE8allocateEmPKv
FNDA:806,_ZN9__gnu_cxx13new_allocatorIPPN4Json5ValueEE8allocateEmPKv
FNDA:0,_ZN9__gnu_cxx13new_allocatorIN4Json12PathArgumentEE8allocateEmPKv
FNDA:18704,_ZN9__gnu_cxx13new_allocatorISsE8allocateEmPKv
FNDA:0,_ZN9__gnu_cxx13new_allocatorIN4Json9OurReader15StructuredErrorEE8allocateEmPKv
FNDA:0,_ZN9__gnu_cxx13new_allocatorIN4Json9OurReader9ErrorInfoEE8allocateEmPKv
FNDA:0,_ZN9__gnu_cxx13new_allocatorIN4Json6Reader15StructuredErrorEE8allocateEmPKv
FNDA:403,_ZN9__gnu_cxx13new_allocatorIN4Json6Reader9ErrorInfoEE8allocateEmPKv
FNDA:75325,_ZN9__gnu_cxx13new_allocatorISt13_Rb_tree_nodeISt4pairIKN4Json5Value8CZStringES4_EEE10deallocateEPS8_m
FNDA:196,_ZN9__gnu_cxx13new_allocatorISt13_Rb_tree_nodeISsEE10deallocateEPS2_m
FNDA:806,_ZN9__gnu_cxx13new_allocatorIPN4Json5ValueEE10deallocateEPS3_m
FNDA:0,_ZN9__gnu_cxx13new_allocatorIPKN4Json12PathArgumentEE10deallocateEPS4_m
FNDA:0,_ZN9__gnu_cxx13new_allocatorIN4Json12PathArgumentEE10deallocateEPS2_m
FNDA:0,_ZN9__gnu_cxx13new_allocatorIN4Json9OurReader15StructuredErrorEE10deallocateEPS3_m
FNDA:0,_ZN9__gnu_cxx13new_allocatorIN4Json9OurReader9ErrorInfoEE10deallocateEPS3_m
FNDA:0,_ZN9__gnu_cxx13new_allocatorIPN4Json9OurReader9ErrorInfoEE10deallocateEPS4_m
FNDA:0,_ZN9__gnu_cxx13new_allocatorIN4Json6Reader15StructuredErrorEE10deallocateEPS3_m
FNDA:403,_ZN9__gnu_cxx13new_allocatorIN4Json6Reader9ErrorInfoEE10deallocateEPS3_m
FNDA:403,_ZN9__gnu_cxx13new_allocatorIPN4Json6Reader9ErrorInfoEE10deallocateEPS4_m
FNDA:806,_ZN9__gnu_cxx13new_allocatorIPPN4Json5ValueEE10deallocateEPS4_m
FNDA:17714,_ZN9__gnu_cxx13new_allocatorISsE10deallocateEPSsm
FNDA:0,_ZNK9__gnu_cxx13new_allocatorISt13_Rb_tree_nodeISsEE8max_sizeEv
FNDA:806,_ZNK9__gnu_cxx13new_allocatorIPN4Json5ValueEE8max_sizeEv
FNDA:0,_ZNK9__gnu_cxx13new_allocatorIPKN4Json12PathArgumentEE8max_sizeEv
FNDA:75325,_ZNK9__gnu_cxx13new_allocatorISt13_Rb_tree_nodeISt4pairIKN4Json5Value8CZStringES4_EEE8max_sizeEv
FNDA:0,_ZNK9__gnu_cxx13new_allocatorIPN4Json9OurReader9ErrorInfoEE8max_sizeEv
FNDA:403,_ZNK9__gnu_cxx13new_allocatorIPN4Json6Reader9ErrorInfoEE8max_sizeEv
FNDA:806,_ZNK9__gnu_cxx13new_allocatorIPPN4Json5ValueEE8max_sizeEv
FNDA:0,_ZNK9__gnu_cxx13new_allocatorIN4Json12PathArgumentEE8max_sizeEv
FNDA:47064,_ZNK9__gnu_cxx13new_allocatorISsE8max_sizeEv
FNDA:0,_ZNK9__gnu_cxx13new_allocatorIN4Json9OurReader15StructuredErrorEE8max_sizeEv
FNDA:0,_ZNK9__gnu_cxx13new_allocatorIN4Json9OurReader9ErrorInfoEE8max_sizeEv
FNDA:0,_ZNK9__gnu_cxx13new_allocatorIN4Json6Reader15StructuredErrorEE8max_sizeEv
FNDA:403,_ZNK9__gnu_cxx13new_allocatorIN4Json6Reader9ErrorInfoEE8max_sizeEv
FNDA:38446,_ZN9__gnu_cxx13new_allocatorISt13_Rb_tree_nodeISt4pairIKN4Json5Value8CZStringES4_EEE9constructIS8_IRKS7_EEEvPT_DpOT0_
FNDA:36879,_ZN9__gnu_cxx13new_allocatorISt13_Rb_tree_nodeISt4pairIKN4Json5Value8CZStringES4_EEE9constructIS8_IRS7_EEEvPT_DpOT0_
FNDA:0,_ZN9__gnu_cxx13new_allocatorISt13_Rb_tree_nodeISsEE9constructIS2_ISsEEEvPT_DpOT0_
FNDA:0,_ZN9__gnu_cxx13new_allocatorISt13_Rb_tree_nodeISt4pairIKN4Json5Value8CZStringES4_EEE9constructIS8_IRKSt21piecewise_construct_tSt5tupleIIRS6_EESE_IIEEEEEvPT_DpOT0_
FNDA:0,_ZN9__gnu_cxx13new_allocatorIN4Json12PathArgumentEE9constructIS2_IS2_EEEvPT_DpOT0_
FNDA:0,_ZN9__gnu_cxx13new_allocatorIPKN4Json12PathArgumentEE9constructIS4_IS4_EEEvPT_DpOT0_
FNDA:25060,_ZN9__gnu_cxx13new_allocatorISsE9constructISsISsEEEvPT_DpOT0_
FNDA:2692,_ZN9__gnu_cxx13new_allocatorISsE9constructISsIRKSsEEEvPT_DpOT0_
FNDA:0,_ZN9__gnu_cxx13new_allocatorIN4Json12PathArgumentEE9constructIS2_IRKS2_EEEvPT_DpOT0_
FNDA:0,_ZN9__gnu_cxx13new_allocatorIN4Json9OurReader15StructuredErrorEE9constructIS3_IRKS3_EEEvPT_DpOT0_
FNDA:0,_ZN9__gnu_cxx13new_allocatorIN4Json6Reader15StructuredErrorEE9constructIS3_IRKS3_EEEvPT_DpOT0_
FNDA:35299,_ZN9__gnu_cxx13new_allocatorIPN4Json5ValueEE9constructIS3_IS3_EEEvPT_DpOT0_
FNDA:0,_ZN9__gnu_cxx13new_allocatorIN4Json9OurReader9ErrorInfoEE9constructIS3_IRKS3_EEEvPT_DpOT0_
FNDA:31,_ZN9__gnu_cxx13new_allocatorIN4Json6Reader9ErrorInfoEE9constructIS3_IRKS3_EEEvPT_DpOT0_
FNDA:0,_ZN9__gnu_cxx13new_allocatorIPKN4Json12PathArgumentEE7destroyIS4_EEvPT_
FNDA:0,_ZN9__gnu_cxx13new_allocatorISsE7destroyISsEEvPT_
FNDA:0,_ZN9__gnu_cxx13new_allocatorIN4Json12PathArgumentEE7destroyIS2_EEvPT_
FNDA:0,_ZN9__gnu_cxx13new_allocatorIN4Json9OurReader15StructuredErrorEE7destroyIS3_EEvPT_
FNDA:0,_ZN9__gnu_cxx13new_allocatorIN4Json6Reader15StructuredErrorEE7destroyIS3_EEvPT_
FNDA:75325,_ZN9__gnu_cxx13new_allocatorISt13_Rb_tree_nodeISt4pairIKN4Json5Value8CZStringES4_EEE7destroyIS8_EEvPT_
FNDA:196,_ZN9__gnu_cxx13new_allocatorISt13_Rb_tree_nodeISsEE7destroyIS2_EEvPT_
FNDA:34896,_ZN9__gnu_cxx13new_allocatorIPN4Json5ValueEE7destroyIS3_EEvPT_
FNF:93
FNH:44
DA:79,25496
DA:81,23182
DA:86,49734
DA:99,96447
DA:101,96447
DA:102,0
DA:104,96447
DA:109,95653
DA:110,95653
DA:113,124807
DA:114,124807
DA:119,138407
DA:120,138407
DA:124,110417
LF:14
LH:13
end_of_record
SF:/usr/include/c++/4.8/ext/type_traits.h
FN:150,_ZN9__gnu_cxx17__is_null_pointerIKcEEbPT_
FN:150,_ZN9__gnu_cxx17__is_null_pointerIcEEbPT_
FNDA:0,_ZN9__gnu_cxx17__is_null_pointerIcEEbPT_
FNDA:274898,_ZN9__gnu_cxx17__is_null_pointerIKcEEbPT_
FNF:2
FNH:1
DA:150,274898
DA:151,274898
LF:2
LH:2
end_of_record
SF:/usr/include/c++/4.8/iomanip
FN:162,_ZSt7setfillIcESt8_SetfillIT_ES1_
FN:222,_ZSt4setwi
FNDA:0,_ZSt7setfillIcESt8_SetfillIT_ES1_
FNDA:0,_ZSt4setwi
FNF:2
FNH:0
DA:162,0
DA:163,0
DA:222,0
DA:223,0
LF:4
LH:0
end_of_record
SF:/usr/include/c++/4.8/limits
FN:1674,_ZNSt14numeric_limitsIdE8infinityEv
FN:1677,_ZNSt14numeric_limitsIdE9quiet_NaNEv
FNDA:0,_ZNSt14numeric_limitsIdE8infinityEv
FNDA:0,_ZNSt14numeric_limitsIdE9quiet_NaNEv
FNF:2
FNH:0
DA:1674,0
DA:1677,0
LF:2
LH:0
end_of_record
SF:/usr/include/c++/4.8/new
FN:109,_ZnwmPv
FN:115,_ZdlPvS_
FNDA:0,_ZnwmPv
FNDA:0,_ZdlPvS_
FNF:2
FNH:0
DA:109,0
DA:110,0
DA:115,0
LF:3
LH:0
end_of_record
SF:/usr/include/c++/4.8/sstream
FN:64,_ZNSt15basic_stringbufIcSt11char_traitsIcESaIcEED2Ev
FN:64,_ZNSt15basic_stringbufIcSt11char_traitsIcESaIcEED0Ev
FNDA:0,_ZNSt15basic_stringbufIcSt11char_traitsIcESaIcEED0Ev
FNDA:0,_ZNSt15basic_stringbufIcSt11char_traitsIcESaIcEED2Ev
FNF:2
FNH:0
DA:64,0
LF:1
LH:0
end_of_record
SF:/usr/include/c++/4.8/tuple
FN:95,_ZNSt10_Head_baseILm1ESt14default_deleteIN4Json10CharReaderEELb1EEC2IS3_EEOT_
FN:95,_ZNSt10_Head_baseILm1ESt14default_deleteIN4Json12StreamWriterEELb1EEC2IS3_EEOT_
FN:122,_ZNSt10_Head_baseILm1ESt14default_deleteIN4Json10CharReaderEELb1EE7_M_headERS4_
FN:122,_ZNSt10_Head_baseILm1ESt14default_deleteIN4Json12StreamWriterEELb1EE7_M_headERS4_
FN:134,_ZNSt10_Head_baseILm0ERKN4Json5Value8CZStringELb0EEC2ES4_
FN:141,_ZNSt10_Head_baseILm0EPN4Json10CharReaderELb0EEC2IRS2_EEOT_
FN:141,_ZNSt10_Head_baseILm0EPN4Json12StreamWriterELb0EEC2IRS2_EEOT_
FN:169,_ZNSt10_Head_baseILm0ERKN4Json5Value8CZStringELb0EE7_M_headERS5_
FN:169,_ZNSt10_Head_baseILm0EPN4Json12StreamWriterELb0EE7_M_headERS3_
FN:169,_ZNSt10_Head_baseILm0EPN4Json10CharReaderELb0EE7_M_headERS3_
FN:172,_ZNSt10_Head_baseILm0EPN4Json10CharReaderELb0EE7_M_headERKS3_
FN:172,_ZNSt10_Head_baseILm0EPN4Json12StreamWriterELb0EE7_M_headERKS3_
FN:197,_ZNSt11_Tuple_implILm2EIEEC2Ev
FN:197,_ZNSt11_Tuple_implILm1EIEEC2Ev
FN:241,_ZNSt11_Tuple_implILm0EIRKN4Json5Value8CZStringEEE7_M_headERS5_
FN:241,_ZNSt11_Tuple_implILm1EISt14default_deleteIN4Json10CharReaderEEEE7_M_headERS4_
FN:241,_ZNSt11_Tuple_implILm0EIPN4Json12StreamWriterESt14default_deleteIS1_EEE7_M_headERS5_
FN:241,_ZNSt11_Tuple_implILm1EISt14default_deleteIN4Json12StreamWriterEEEE7_M_headERS4_
FN:241,_ZNSt11_Tuple_implILm0EIPN4Json10CharReaderESt14default_deleteIS1_EEE7_M_headERS5_
FN:244,_ZNSt11_Tuple_implILm0EIPN4Json12StreamWriterESt14default_deleteIS1_EEE7_M_headERKS5_
FN:244,_ZNSt11_Tuple_implILm0EIPN4Json10CharReaderESt14default_deleteIS1_EEE7_M_headERKS5_
FN:247,_ZNSt11_Tuple_implILm0EIRKN4Json5Value8CZStringEEE7_M_tailERS5_
FN:256,_ZNSt11_Tuple_implILm0EIRKN4Json5Value8CZStringEEEC2ES4_
FN:262,_ZNSt11_Tuple_implILm0EIPN4Json12StreamWriterESt14default_deleteIS1_EEEC2IRS2_IS4_EvEEOT_DpOT0_
FN:262,_ZNSt11_Tuple_implILm1EISt14default_deleteIN4Json12StreamWriterEEEEC2IS3_IEvEEOT_DpOT0_
FN:262,_ZNSt11_Tuple_implILm0EIPN4Json10CharReaderESt14default_deleteIS1_EEEC2IRS2_IS4_EvEEOT_DpOT0_
FN:262,_ZNSt11_Tuple_implILm1EISt14default_deleteIN4Json10CharReaderEEEEC2IS3_IEvEEOT_DpOT0_
FN:269,_ZNSt11_Tuple_implILm0EIRKN4Json5Value8CZStringEEEC2EOS5_
FN:399,_ZNSt5tupleIIRKN4Json5Value8CZStringEEEC2ES4_
FN:411,_ZNSt5tupleIIRKN4Json5Value8CZStringEEEC2EOS5_
FN:539,_ZNSt5tupleIIPN4Json10CharReaderESt14default_deleteIS1_EEEC2IRS2_S4_vEEOT_OT0_
FN:539,_ZNSt5tupleIIPN4Json12StreamWriterESt14default_deleteIS1_EEEC2IRS2_S4_vEEOT_OT0_
FN:744,_ZSt12__get_helperILm0EPN4Json10CharReaderEISt14default_deleteIS1_EEENSt9__add_refIT0_E4typeERSt11_Tuple_implIXT_EIS6_DpT1_EE
FN:744,_ZSt12__get_helperILm1ESt14default_deleteIN4Json12StreamWriterEEIEENSt9__add_refIT0_E4typeERSt11_Tuple_implIXT_EIS5_DpT1_EE
FN:744,_ZSt12__get_helperILm0ERKN4Json5Value8CZStringEIEENSt9__add_refIT0_E4typeERSt11_Tuple_implIXT_EIS6_DpT1_EE
FN:744,_ZSt12__get_helperILm1ESt14default_deleteIN4Json10CharReaderEEIEENSt9__add_refIT0_E4typeERSt11_Tuple_implIXT_EIS5_DpT1_EE
FN:744,_ZSt12__get_helperILm0EPN4Json12StreamWriterEISt14default_deleteIS1_EEENSt9__add_refIT0_E4typeERSt11_Tuple_implIXT_EIS6_DpT1_EE
FN:749,_ZSt12__get_helperILm0EPN4Json10CharReaderEISt14default_deleteIS1_EEENSt11__add_c_refIT0_E4typeERKSt11_Tuple_implIXT_EIS6_DpT1_EE
FN:749,_ZSt12__get_helperILm0EPN4Json12StreamWriterEISt14default_deleteIS1_EEENSt11__add_c_refIT0_E4typeERKSt11_Tuple_implIXT_EIS6_DpT1_EE
FN:759,_ZSt3getILm0EIPN4Json12StreamWriterESt14default_deleteIS1_EEENSt9__add_refINSt13tuple_elementIXT_ESt5tupleIIDpT0_EEE4typeEE4typeERSA_
FN:759,_ZSt3getILm1EIPN4Json12StreamWriterESt14default_deleteIS1_EEENSt9__add_refINSt13tuple_elementIXT_ESt5tupleIIDpT0_EEE4typeEE4typeERSA_
FN:759,_ZSt3getILm1EIPN4Json10CharReaderESt14default_deleteIS1_EEENSt9__add_refINSt13tuple_elementIXT_ESt5tupleIIDpT0_EEE4typeEE4typeERSA_
FN:759,_ZSt3getILm0EIRKN4Json5Value8CZStringEEENSt9__add_refINSt13tuple_elementIXT_ESt5tupleIIDpT0_EEE4typeEE4typeERSA_
FN:759,_ZSt3getILm0EIPN4Json10CharReaderESt14default_deleteIS1_EEENSt9__add_refINSt13tuple_elementIXT_ESt5tupleIIDpT0_EEE4typeEE4typeERSA_
FN:766,_ZSt3getILm0EIPN4Json10CharReaderESt14default_deleteIS1_EEENSt11__add_c_refINSt13tuple_elementIXT_ESt5tupleIIDpT0_EEE4typeEE4typeERKSA_
FN:766,_ZSt3getILm0EIPN4Json12StreamWriterESt14default_deleteIS1_EEENSt11__add_c_refINSt13tuple_elementIXT_ESt5tupleIIDpT0_EEE4typeEE4typeERKSA_
FN:1074,_ZNSt4pairIKN4Json5Value8CZStringES1_EC2IIRS3_EIEEESt21piecewise_construct_tSt5tupleIIDpT_EES8_IIDpT0_EE
FN:1086,_ZNSt4pairIKN4Json5Value8CZStringES1_EC2IIRS3_EILm0EEIEIEEERSt5tupleIIDpT_EERS7_IIDpT1_EESt12_Index_tupleIIXspT0_EEESG_IIXspT2_EEE
FNDA:0,_ZNSt10_Head_baseILm1ESt14default_deleteIN4Json12StreamWriterEELb1EEC2IS3_EEOT_
FNDA:0,_ZNSt10_Head_baseILm1ESt14default_deleteIN4Json10CharReaderEELb1EEC2IS3_EEOT_
FNDA:0,_ZNSt10_Head_baseILm1ESt14default_deleteIN4Json12StreamWriterEELb1EE7_M_headERS4_
FNDA:0,_ZNSt10_Head_baseILm1ESt14default_deleteIN4Json10CharReaderEELb1EE7_M_headERS4_
FNDA:0,_ZNSt10_Head_baseILm0ERKN4Json5Value8CZStringELb0EEC2ES4_
FNDA:0,_ZNSt10_Head_baseILm0EPN4Json12StreamWriterELb0EEC2IRS2_EEOT_
FNDA:0,_ZNSt10_Head_baseILm0EPN4Json10CharReaderELb0EEC2IRS2_EEOT_
FNDA:0,_ZNSt10_Head_baseILm0ERKN4Json5Value8CZStringELb0EE7_M_headERS5_
FNDA:0,_ZNSt10_Head_baseILm0EPN4Json12StreamWriterELb0EE7_M_headERS3_
FNDA:0,_ZNSt10_Head_baseILm0EPN4Json10CharReaderELb0EE7_M_headERS3_
FNDA:0,_ZNSt10_Head_baseILm0EPN4Json12StreamWriterELb0EE7_M_headERKS3_
FNDA:0,_ZNSt10_Head_baseILm0EPN4Json10CharReaderELb0EE7_M_headERKS3_
FNDA:272,_ZNSt11_Tuple_implILm1EIEEC2Ev
FNDA:0,_ZNSt11_Tuple_implILm2EIEEC2Ev
FNDA:0,_ZNSt11_Tuple_implILm0EIRKN4Json5Value8CZStringEEE7_M_headERS5_
FNDA:0,_ZNSt11_Tuple_implILm1EISt14default_deleteIN4Json12StreamWriterEEEE7_M_headERS4_
FNDA:0,_ZNSt11_Tuple_implILm1EISt14default_deleteIN4Json10CharReaderEEEE7_M_headERS4_
FNDA:0,_ZNSt11_Tuple_implILm0EIPN4Json12StreamWriterESt14default_deleteIS1_EEE7_M_headERS5_
FNDA:0,_ZNSt11_Tuple_implILm0EIPN4Json10CharReaderESt14default_deleteIS1_EEE7_M_headERS5_
FNDA:0,_ZNSt11_Tuple_implILm0EIPN4Json12StreamWriterESt14default_deleteIS1_EEE7_M_headERKS5_
FNDA:0,_ZNSt11_Tuple_implILm0EIPN4Json10CharReaderESt14default_deleteIS1_EEE7_M_headERKS5_
FNDA:0,_ZNSt11_Tuple_implILm0EIRKN4Json5Value8CZStringEEE7_M_tailERS5_
FNDA:0,_ZNSt11_Tuple_implILm0EIRKN4Json5Value8CZStringEEEC2ES4_
FNDA:0,_ZNSt11_Tuple_implILm0EIPN4Json12StreamWriterESt14default_deleteIS1_EEEC2IRS2_IS4_EvEEOT_DpOT0_
FNDA:0,_ZNSt11_Tuple_implILm1EISt14default_deleteIN4Json12StreamWriterEEEEC2IS3_IEvEEOT_DpOT0_
FNDA:0,_ZNSt11_Tuple_implILm0EIPN4Json10CharReaderESt14default_deleteIS1_EEEC2IRS2_IS4_EvEEOT_DpOT0_
FNDA:0,_ZNSt11_Tuple_implILm1EISt14default_deleteIN4Json10CharReaderEEEEC2IS3_IEvEEOT_DpOT0_
FNDA:0,_ZNSt11_Tuple_implILm0EIRKN4Json5Value8CZStringEEEC2EOS5_
FNDA:0,_ZNSt5tupleIIRKN4Json5Value8CZStringEEEC2ES4_
FNDA:0,_ZNSt5tupleIIRKN4Json5Value8CZStringEEEC2EOS5_
FNDA:0,_ZNSt5tupleIIPN4Json12StreamWriterESt14default_deleteIS1_EEEC2IRS2_S4_vEEOT_OT0_
FNDA:0,_ZNSt5tupleIIPN4Json10CharReaderESt14default_deleteIS1_EEEC2IRS2_S4_vEEOT_OT0_
FNDA:0,_ZSt12__get_helperILm0ERKN4Json5Value8CZStringEIEENSt9__add_refIT0_E4typeERSt11_Tuple_implIXT_EIS6_DpT1_EE
FNDA:0,_ZSt12__get_helperILm1ESt14default_deleteIN4Json12StreamWriterEEIEENSt9__add_refIT0_E4typeERSt11_Tuple_implIXT_EIS5_DpT1_EE
FNDA:0,_ZSt12__get_helperILm1ESt14default_deleteIN4Json10CharReaderEEIEENSt9__add_refIT0_E4typeERSt11_Tuple_implIXT_EIS5_DpT1_EE
FNDA:0,_ZSt12__get_helperILm0EPN4Json12StreamWriterEISt14default_deleteIS1_EEENSt9__add_refIT0_E4typeERSt11_Tuple_implIXT_EIS6_DpT1_EE
FNDA:0,_ZSt12__get_helperILm0EPN4Json10CharReaderEISt14default_deleteIS1_EEENSt9__add_refIT0_E4typeERSt11_Tuple_implIXT_EIS6_DpT1_EE
FNDA:0,_ZSt12__get_helperILm0EPN4Json12StreamWriterEISt14default_deleteIS1_EEENSt11__add_c_refIT0_E4typeERKSt11_Tuple_implIXT_EIS6_DpT1_EE
FNDA:0,_ZSt12__get_helperILm0EPN4Json10CharReaderEISt14default_deleteIS1_EEENSt11__add_c_refIT0_E4typeERKSt11_Tuple_implIXT_EIS6_DpT1_EE
FNDA:0,_ZSt3getILm0EIRKN4Json5Value8CZStringEEENSt9__add_refINSt13tuple_elementIXT_ESt5tupleIIDpT0_EEE4typeEE4typeERSA_
FNDA:0,_ZSt3getILm1EIPN4Json12StreamWriterESt14default_deleteIS1_EEENSt9__add_refINSt13tuple_elementIXT_ESt5tupleIIDpT0_EEE4typeEE4typeERSA_
FNDA:0,_ZSt3getILm1EIPN4Json10CharReaderESt14default_deleteIS1_EEENSt9__add_refINSt13tuple_elementIXT_ESt5tupleIIDpT0_EEE4typeEE4typeERSA_
FNDA:0,_ZSt3getILm0EIPN4Json12StreamWriterESt14default_deleteIS1_EEENSt9__add_refINSt13tuple_elementIXT_ESt5tupleIIDpT0_EEE4typeEE4typeERSA_
FNDA:0,_ZSt3getILm0EIPN4Json10CharReaderESt14default_deleteIS1_EEENSt9__add_refINSt13tuple_elementIXT_ESt5tupleIIDpT0_EEE4typeEE4typeERSA_
FNDA:0,_ZSt3getILm0EIPN4Json12StreamWriterESt14default_deleteIS1_EEENSt11__add_c_refINSt13tuple_elementIXT_ESt5tupleIIDpT0_EEE4typeEE4typeERKSA_
FNDA:0,_ZSt3getILm0EIPN4Json10CharReaderESt14default_deleteIS1_EEENSt11__add_c_refINSt13tuple_elementIXT_ESt5tupleIIDpT0_EEE4typeEE4typeERKSA_
FNDA:0,_ZNSt4pairIKN4Json5Value8CZStringES1_EC2IIRS3_EIEEESt21piecewise_construct_tSt5tupleIIDpT_EES8_IIDpT0_EE
FNDA:0,_ZNSt4pairIKN4Json5Value8CZStringES1_EC2IIRS3_EILm0EEIEIEEERSt5tupleIIDpT_EERS7_IIDpT1_EESt12_Index_tupleIIXspT0_EEESG_IIXspT2_EEE
FNF:48
FNH:1
DA:95,0
DA:96,0
DA:122,0
DA:134,0
DA:135,0
DA:141,0
DA:142,0
DA:169,0
DA:172,0
DA:197,272
DA:241,0
DA:244,0
DA:247,0
DA:256,0
DA:257,0
DA:262,0
DA:263,0
DA:264,0
DA:269,0
DA:272,0
DA:273,0
DA:399,0
DA:400,0
DA:411,0
DA:539,0
DA:540,0
DA:744,0
DA:745,0
DA:749,0
DA:750,0
DA:759,0
DA:760,0
DA:766,0
DA:767,0
DA:1074,0
DA:1079,0
DA:1080,0
DA:1086,0
DA:1089,0
DA:1090,0
DA:1091,0
LF:41
LH:1
end_of_record
SF:/usr/include/x86_64-linux-gnu/c++/4.8/bits/gthr-default.h
FN:247,_ZL18__gthread_active_pv
FNDA:0,_ZL18__gthread_active_pv
FNF:1
FNH:0
DA:247,0
DA:251,0
LF:2
LH:0
end_of_record
TN:
SF:/home/taller2-appserver/Appserver/src/external/StringUtil/StringUtil.cpp
FN:3,_ZN10StringUtil7toLowerESs
FN:17,_ZN10StringUtil7toUpperESs
FN:31,_ZN10StringUtil10int2stringEi
FN:40,_ZN10StringUtil12stringToCharESs
FN:44,_ZN10StringUtil12charToStringEPc
FN:48,_Z10charToLongPc
FN:52,_Z10longToCharl
FN:61,_ZN10StringUtil13double2stringEd
FN:70,_ZN10StringUtil12float2stringEf
FN:79,_ZN10StringUtil11file_existsEPKc
FN:87,_ZN10StringUtil7str2intESs
FN:94,_ZN10StringUtil9str2floatEPKc
FN:101,_ZN10StringUtil10str2doubleEPKc
FN:108,_ZN10StringUtil9isIntegerEPKc
FN:118,_ZN10StringUtil7isFloatEPKc
FN:148,_ZN10StringUtil5splitERKSscRSt6vectorISsSaISsEE
FN:158,_ZN10StringUtil5splitERKSsc
FN:163,_ZN10StringUtil8splitNewESt6vectorIcSaIcEEc
FN:191,_Z41__static_initialization_and_destruction_0ii
FN:191,_GLOBAL__sub_I__ZN10StringUtil7toLowerESs
FNDA:0,_ZN10StringUtil7toLowerESs
FNDA:0,_ZN10StringUtil7toUpperESs
FNDA:35,_ZN10StringUtil10int2stringEi
FNDA:18,_ZN10StringUtil12stringToCharESs
FNDA:0,_ZN10StringUtil12charToStringEPc
FNDA:0,_Z10charToLongPc
FNDA:0,_Z10longToCharl
FNDA:0,_ZN10StringUtil13double2stringEd
FNDA:0,_ZN10StringUtil12float2stringEf
FNDA:0,_ZN10StringUtil11file_existsEPKc
FNDA:2,_ZN10StringUtil7str2intESs
FNDA:0,_ZN10StringUtil9str2floatEPKc
FNDA:0,_ZN10StringUtil10str2doubleEPKc
FNDA:0,_ZN10StringUtil9isIntegerEPKc
FNDA:0,_ZN10StringUtil7isFloatEPKc
FNDA:0,_ZN10StringUtil5splitERKSscRSt6vectorISsSaISsEE
FNDA:0,_ZN10StringUtil5splitERKSsc
FNDA:0,_ZN10StringUtil8splitNewESt6vectorIcSaIcEEc
FNDA:20,_GLOBAL__sub_I__ZN10StringUtil7toLowerESs
FNDA:20,_Z41__static_initialization_and_destruction_0ii
FNF:20
FNH:5
DA:3,0
DA:4,0
DA:5,0
DA:8,0
DA:9,0
DA:10,0
DA:11,0
DA:14,0
DA:17,0
DA:18,0
DA:19,0
DA:22,0
DA:23,0
DA:24,0
DA:25,0
DA:28,0
DA:31,35
DA:32,35
DA:33,70
DA:34,35
DA:35,35
DA:37,70
DA:40,18
DA:41,18
DA:44,0
DA:45,0
DA:48,0
DA:49,0
DA:52,0
DA:53,0
DA:54,0
DA:55,0
DA:56,0
DA:57,0
DA:58,0
DA:61,0
DA:62,0
DA:63,0
DA:64,0
DA:65,0
DA:67,0
DA:70,0
DA:71,0
DA:72,0
DA:73,0
DA:74,0
DA:76,0
DA:79,0
DA:80,0
DA:81,0
DA:82,0
DA:84,0
DA:87,2
DA:88,2
DA:90,2
DA:91,2
DA:94,0
DA:95,0
DA:97,0
DA:98,0
DA:101,0
DA:102,0
DA:104,0
DA:105,0
DA:108,0
DA:109,0
DA:110,0
DA:111,0
DA:112,0
DA:115,0
DA:118,0
DA:119,0
DA:122,0
DA:123,0
DA:127,0
DA:128,0
DA:132,0
DA:134,0
DA:135,0
DA:136,0
DA:138,0
DA:139,0
DA:142,0
DA:143,0
DA:145,0
DA:148,0
DA:149,0
DA:150,0
DA:151,0
DA:152,0
DA:154,0
DA:158,0
DA:159,0
DA:160,0
DA:163,0
DA:164,0
DA:165,0
DA:191,60
LF:98
LH:13
end_of_record
SF:/usr/include/c++/4.8/bits/alloc_traits.h
FN:253,_ZNSt16allocator_traitsISaISsEE12_S_constructISsIRKSsEEENSt9enable_ifIXsrNS1_18__construct_helperIT_IDpT0_EEE5valueEvE4typeERS0_PS7_DpOS8_
FN:280,_ZNSt16allocator_traitsISaISsEE10_S_destroyISsEENSt9enable_ifIXsrNS1_16__destroy_helperIT_EE5valueEvE4typeERS0_PS5_
FN:305,_ZNSt16allocator_traitsISaISsEE11_S_max_sizeIKS0_EENSt9enable_ifIXsrNS1_16__maxsize_helperIT_EE5valueEmE4typeERS6_
FN:337,_ZNSt16allocator_traitsISaISsEE9_S_selectIKS0_EENSt9enable_ifIXntsrNS1_15__select_helperIT_EE5valueES6_E4typeERS6_
FN:391,_ZNSt16allocator_traitsISaISsEE9constructISsIRKSsEEEDTcl12_S_constructfp_fp0_spcl7forwardIT0_Efp1_EEERS0_PT_DpOS5_
FN:404,_ZNSt16allocator_traitsISaISsEE7destroyISsEEvRS0_PT_
FN:415,_ZNSt16allocator_traitsISaISsEE8max_sizeERKS0_
FN:427,_ZNSt16allocator_traitsISaISsEE37select_on_container_copy_constructionERKS0_
FNDA:0,_ZNSt16allocator_traitsISaISsEE12_S_constructISsIRKSsEEENSt9enable_ifIXsrNS1_18__construct_helperIT_IDpT0_EEE5valueEvE4typeERS0_PS7_DpOS8_
FNDA:0,_ZNSt16allocator_traitsISaISsEE10_S_destroyISsEENSt9enable_ifIXsrNS1_16__destroy_helperIT_EE5valueEvE4typeERS0_PS5_
FNDA:0,_ZNSt16allocator_traitsISaISsEE11_S_max_sizeIKS0_EENSt9enable_ifIXsrNS1_16__maxsize_helperIT_EE5valueEmE4typeERS6_
FNDA:0,_ZNSt16allocator_traitsISaISsEE9_S_selectIKS0_EENSt9enable_ifIXntsrNS1_15__select_helperIT_EE5valueES6_E4typeERS6_
FNDA:0,_ZNSt16allocator_traitsISaISsEE9constructISsIRKSsEEEDTcl12_S_constructfp_fp0_spcl7forwardIT0_Efp1_EEERS0_PT_DpOS5_
FNDA:0,_ZNSt16allocator_traitsISaISsEE7destroyISsEEvRS0_PT_
FNDA:0,_ZNSt16allocator_traitsISaISsEE8max_sizeERKS0_
FNDA:0,_ZNSt16allocator_traitsISaISsEE37select_on_container_copy_constructionERKS0_
FNF:8
FNH:0
DA:253,0
DA:254,0
DA:280,0
DA:281,0
DA:305,0
DA:306,0
DA:337,0
DA:338,0
DA:391,0
DA:393,0
DA:404,0
DA:405,0
DA:415,0
DA:416,0
DA:427,0
DA:428,0
LF:16
LH:0
end_of_record
SF:/usr/include/c++/4.8/bits/allocator.h
FN:113,_ZNSaISsEC2Ev
FN:115,_ZNSaISsEC2ERKS_
FN:121,_ZNSaISsED2Ev
FN:133,_ZSteqIcEbRKSaIT_ES3_
FNDA:0,_ZNSaISsEC2Ev
FNDA:0,_ZNSaISsEC2ERKS_
FNDA:0,_ZNSaISsED2Ev
FNDA:0,_ZSteqIcEbRKSaIT_ES3_
FNF:4
FNH:0
DA:113,0
DA:115,0
DA:116,0
DA:121,0
DA:133,0
DA:134,0
LF:6
LH:0
end_of_record
SF:/usr/include/c++/4.8/bits/basic_string.h
FN:272,_ZNSs12_Alloc_hiderD2Ev
FN:272,_ZNSs12_Alloc_hiderC2ERKS_
FN:384,_ZNSs13_S_copy_charsIN9__gnu_cxx17__normal_iteratorIPcSt6vectorIcSaIcEEEEEEvS2_T_S7_
FN:1721,_ZNSs16_S_construct_auxIN9__gnu_cxx17__normal_iteratorIPcSt6vectorIcSaIcEEEEEES2_T_S7_RKS4_St12__false_type
FN:1721,_ZNSs16_S_construct_auxIPcEES0_T_S1_RKSaIcESt12__false_type
FN:1743,_ZNSs12_S_constructIN9__gnu_cxx17__normal_iteratorIPcSt6vectorIcSaIcEEEEEES2_T_S7_RKS4_
FN:1743,_ZNSs12_S_constructIPcEES0_T_S1_RKSaIcE
FNDA:0,_ZNSs12_Alloc_hiderC2ERKS_
FNDA:0,_ZNSs12_Alloc_hiderD2Ev
FNDA:0,_ZNSs13_S_copy_charsIN9__gnu_cxx17__normal_iteratorIPcSt6vectorIcSaIcEEEEEEvS2_T_S7_
FNDA:0,_ZNSs16_S_construct_auxIPcEES0_T_S1_RKSaIcESt12__false_type
FNDA:0,_ZNSs16_S_construct_auxIN9__gnu_cxx17__normal_iteratorIPcSt6vectorIcSaIcEEEEEES2_T_S7_RKS4_St12__false_type
FNDA:0,_ZNSs12_S_constructIPcEES0_T_S1_RKSaIcE
FNDA:0,_ZNSs12_S_constructIN9__gnu_cxx17__normal_iteratorIPcSt6vectorIcSaIcEEEEEES2_T_S7_RKS4_
FNF:7
FNH:0
DA:272,0
DA:384,0
DA:386,0
DA:387,0
DA:388,0
DA:1721,0
DA:1725,0
DA:1743,0
DA:1746,0
LF:9
LH:0
end_of_record
SF:/usr/include/c++/4.8/bits/basic_string.tcc
FN:123,_ZNSs12_S_constructIN9__gnu_cxx17__normal_iteratorIPcSt6vectorIcSaIcEEEEEES2_T_S7_RKS4_St20forward_iterator_tag
FN:123,_ZNSs12_S_constructIPcEES0_T_S1_RKSaIcESt20forward_iterator_tag
FN:227,_ZNSsC2IPcEET_S1_RKSaIcE
FN:227,_ZNSsC2IN9__gnu_cxx17__normal_iteratorIPcSt6vectorIcSaIcEEEEEET_S7_RKS4_
FNDA:0,_ZNSs12_S_constructIPcEES0_T_S1_RKSaIcESt20forward_iterator_tag
FNDA:0,_ZNSs12_S_constructIN9__gnu_cxx17__normal_iteratorIPcSt6vectorIcSaIcEEEEEES2_T_S7_RKS4_St20forward_iterator_tag
FNDA:0,_ZNSsC2IPcEET_S1_RKSaIcE
FNDA:0,_ZNSsC2IN9__gnu_cxx17__normal_iteratorIPcSt6vectorIcSaIcEEEEEET_S7_RKS4_
FNF:4
FNH:0
DA:123,0
DA:128,0
DA:129,0
DA:132,0
DA:133,0
DA:136,0
DA:138,0
DA:140,0
DA:141,=====
DA:143,=====
DA:144,=====
DA:146,0
DA:147,0
DA:227,0
DA:229,0
DA:230,0
LF:16
LH:0
end_of_record
SF:/usr/include/c++/4.8/bits/char_traits.h
FN:242,_ZNSt11char_traitsIcE6assignERcRKc
FN:270,_ZNSt11char_traitsIcE4copyEPcPKcm
FNDA:0,_ZNSt11char_traitsIcE6assignERcRKc
FNDA:0,_ZNSt11char_traitsIcE4copyEPcPKcm
FNF:2
FNH:0
DA:242,0
DA:243,0
DA:270,0
DA:271,0
LF:4
LH:0
end_of_record
SF:/usr/include/c++/4.8/bits/ios_base.h
FN:119,_ZStanSt13_Ios_OpenmodeS_
FN:123,_ZStorSt13_Ios_OpenmodeS_
FN:159,_ZStanSt12_Ios_IostateS_
FN:163,_ZStorSt12_Ios_IostateS_
FNDA:0,_ZStanSt13_Ios_OpenmodeS_
FNDA:19,_ZStorSt13_Ios_OpenmodeS_
FNDA:0,_ZStanSt12_Ios_IostateS_
FNDA:0,_ZStorSt12_Ios_IostateS_
FNF:4
FNH:1
DA:119,0
DA:120,0
DA:123,19
DA:124,19
DA:159,0
DA:160,0
DA:163,0
DA:164,0
LF:8
LH:2
end_of_record
SF:/usr/include/c++/4.8/bits/move.h
FN:47,_ZSt11__addressofISsEPT_RS0_
FN:76,_ZSt7forwardISsEOT_RNSt16remove_referenceIS0_E4typeE
FN:76,_ZSt7forwardIRKSsEOT_RNSt16remove_referenceIS2_E4typeE
FN:101,_ZSt4moveIRSsEONSt16remove_referenceIT_E4typeEOS2_
FNDA:0,_ZSt11__addressofISsEPT_RS0_
FNDA:0,_ZSt7forwardISsEOT_RNSt16remove_referenceIS0_E4typeE
FNDA:0,_ZSt7forwardIRKSsEOT_RNSt16remove_referenceIS2_E4typeE
FNDA:0,_ZSt4moveIRSsEONSt16remove_referenceIT_E4typeEOS2_
FNF:4
FNH:0
DA:47,0
DA:50,0
DA:76,0
DA:77,0
DA:101,0
DA:102,0
LF:6
LH:0
end_of_record
SF:/usr/include/c++/4.8/bits/stl_algobase.h
FN:216,_ZSt3maxImERKT_S2_S2_
FN:277,_ZSt12__niter_baseIPcENSt11_Niter_baseIT_E13iterator_typeES2_
FN:277,_ZSt12__niter_baseIN9__gnu_cxx17__normal_iteratorIPcSsEEENSt11_Niter_baseIT_E13iterator_typeES5_
FN:288,_ZSt12__miter_baseIN9__gnu_cxx17__normal_iteratorIPcSsEEENSt11_Miter_baseIT_E13iterator_typeES5_
FN:368,_ZNSt11__copy_moveILb0ELb1ESt26random_access_iterator_tagE8__copy_mIcEEPT_PKS3_S6_S4_
FN:379,_ZSt13__copy_move_aILb0EPcS0_ET1_T0_S2_S1_
FN:424,_ZSt14__copy_move_a2ILb0EN9__gnu_cxx17__normal_iteratorIPcSsEES2_ET1_T0_S5_S4_
FN:450,_ZSt4copyIN9__gnu_cxx17__normal_iteratorIPcSsEES2_ET0_T_S5_S4_
FNDA:0,_ZSt3maxImERKT_S2_S2_
FNDA:0,_ZSt12__niter_baseIPcENSt11_Niter_baseIT_E13iterator_typeES2_
FNDA:0,_ZSt12__niter_baseIN9__gnu_cxx17__normal_iteratorIPcSsEEENSt11_Niter_baseIT_E13iterator_typeES5_
FNDA:0,_ZSt12__miter_baseIN9__gnu_cxx17__normal_iteratorIPcSsEEENSt11_Miter_baseIT_E13iterator_typeES5_
FNDA:0,_ZNSt11__copy_moveILb0ELb1ESt26random_access_iterator_tagE8__copy_mIcEEPT_PKS3_S6_S4_
FNDA:0,_ZSt13__copy_move_aILb0EPcS0_ET1_T0_S2_S1_
FNDA:0,_ZSt14__copy_move_a2ILb0EN9__gnu_cxx17__normal_iteratorIPcSsEES2_ET1_T0_S5_S4_
FNDA:0,_ZSt4copyIN9__gnu_cxx17__normal_iteratorIPcSsEES2_ET0_T_S5_S4_
FNF:8
FNH:0
DA:216,0
DA:221,0
DA:222,0
DA:223,0
DA:277,0
DA:278,0
DA:288,0
DA:289,0
DA:368,0
DA:370,0
DA:371,0
DA:372,0
DA:373,0
DA:379,0
DA:387,0
DA:390,0
DA:424,0
DA:428,0
DA:450,0
DA:460,0
LF:20
LH:0
end_of_record
SF:/usr/include/c++/4.8/bits/stl_construct.h
FN:74,_ZSt10_ConstructISsIRKSsEEvPT_DpOT0_
FN:74,_ZSt10_ConstructISsISsEEvPT_DpOT0_
FN:92,_ZSt8_DestroyISsEvPT_
FN:100,_ZNSt12_Destroy_auxILb0EE9__destroyIPSsEEvT_S3_
FN:122,_ZSt8_DestroyIPSsEvT_S1_
FN:148,_ZSt8_DestroyIPSsSsEvT_S1_RSaIT0_E
FNDA:0,_ZSt10_ConstructISsISsEEvPT_DpOT0_
FNDA:0,_ZSt10_ConstructISsIRKSsEEvPT_DpOT0_
FNDA:0,_ZSt8_DestroyISsEvPT_
FNDA:0,_ZNSt12_Destroy_auxILb0EE9__destroyIPSsEEvT_S3_
FNDA:0,_ZSt8_DestroyIPSsEvT_S1_
FNDA:0,_ZSt8_DestroyIPSsSsEvT_S1_RSaIT0_E
FNF:6
FNH:0
DA:74,0
DA:75,0
DA:92,0
DA:93,0
DA:100,0
DA:102,0
DA:103,0
DA:104,0
DA:122,0
DA:126,0
DA:128,0
DA:148,0
DA:151,0
DA:152,0
LF:14
LH:0
end_of_record
SF:/usr/include/c++/4.8/bits/stl_iterator.h
FN:726,_ZN9__gnu_cxx17__normal_iteratorIPcSt6vectorIcSaIcEEEC2ERKS1_
FN:726,_ZN9__gnu_cxx17__normal_iteratorIPKSsSt6vectorISsSaISsEEEC2ERKS2_
FN:726,_ZN9__gnu_cxx17__normal_iteratorIPcSsEC2ERKS1_
FN:738,_ZNK9__gnu_cxx17__normal_iteratorIPcSt6vectorIcSaIcEEEdeEv
FN:738,_ZNK9__gnu_cxx17__normal_iteratorIPKSsSt6vectorISsSaISsEEEdeEv
FN:746,_ZN9__gnu_cxx17__normal_iteratorIPcSt6vectorIcSaIcEEEppEv
FN:746,_ZN9__gnu_cxx17__normal_iteratorIPKSsSt6vectorISsSaISsEEEppEv
FN:790,_ZNK9__gnu_cxx17__normal_iteratorIPcSt6vectorIcSaIcEEE4baseEv
FN:790,_ZNK9__gnu_cxx17__normal_iteratorIPKSsSt6vectorISsSaISsEEE4baseEv
FN:790,_ZNK9__gnu_cxx17__normal_iteratorIPcSsE4baseEv
FN:811,_ZN9__gnu_cxxeqIPcSt6vectorIcSaIcEEEEbRKNS_17__normal_iteratorIT_T0_EESA_
FN:823,_ZN9__gnu_cxxneIPcSt6vectorIcSaIcEEEEbRKNS_17__normal_iteratorIT_T0_EESA_
FN:823,_ZN9__gnu_cxxneIPKSsSt6vectorISsSaISsEEEEbRKNS_17__normal_iteratorIT_T0_EESB_
FN:896,_ZN9__gnu_cxxmiIPcSt6vectorIcSaIcEEEENS_17__normal_iteratorIT_T0_E15difference_typeERKS8_SB_
FN:950,_ZNSt13move_iteratorIPSsEC2ES0_
FN:958,_ZNKSt13move_iteratorIPSsE4baseEv
FN:962,_ZNKSt13move_iteratorIPSsEdeEv
FN:970,_ZNSt13move_iteratorIPSsEppEv
FN:1037,_ZSteqIPSsEbRKSt13move_iteratorIT_ES5_
FN:1049,_ZStneIPSsEbRKSt13move_iteratorIT_ES5_
FN:1132,_ZSt32__make_move_if_noexcept_iteratorIPSsSt13move_iteratorIS0_EET0_T_
FNDA:0,_ZN9__gnu_cxx17__normal_iteratorIPKSsSt6vectorISsSaISsEEEC2ERKS2_
FNDA:0,_ZN9__gnu_cxx17__normal_iteratorIPcSt6vectorIcSaIcEEEC2ERKS1_
FNDA:0,_ZN9__gnu_cxx17__normal_iteratorIPcSsEC2ERKS1_
FNDA:0,_ZNK9__gnu_cxx17__normal_iteratorIPcSt6vectorIcSaIcEEEdeEv
FNDA:0,_ZNK9__gnu_cxx17__normal_iteratorIPKSsSt6vectorISsSaISsEEEdeEv
FNDA:0,_ZN9__gnu_cxx17__normal_iteratorIPcSt6vectorIcSaIcEEEppEv
FNDA:0,_ZN9__gnu_cxx17__normal_iteratorIPKSsSt6vectorISsSaISsEEEppEv
FNDA:0,_ZNK9__gnu_cxx17__normal_iteratorIPcSt6vectorIcSaIcEEE4baseEv
FNDA:0,_ZNK9__gnu_cxx17__normal_iteratorIPKSsSt6vectorISsSaISsEEE4baseEv
FNDA:0,_ZNK9__gnu_cxx17__normal_iteratorIPcSsE4baseEv
FNDA:0,_ZN9__gnu_cxxeqIPcSt6vectorIcSaIcEEEEbRKNS_17__normal_iteratorIT_T0_EESA_
FNDA:0,_ZN9__gnu_cxxneIPcSt6vectorIcSaIcEEEEbRKNS_17__normal_iteratorIT_T0_EESA_
FNDA:0,_ZN9__gnu_cxxneIPKSsSt6vectorISsSaISsEEEEbRKNS_17__normal_iteratorIT_T0_EESB_
FNDA:0,_ZN9__gnu_cxxmiIPcSt6vectorIcSaIcEEEENS_17__normal_iteratorIT_T0_E15difference_typeERKS8_SB_
FNDA:0,_ZNSt13move_iteratorIPSsEC2ES0_
FNDA:0,_ZNKSt13move_iteratorIPSsE4baseEv
FNDA:0,_ZNKSt13move_iteratorIPSsEdeEv
FNDA:0,_ZNSt13move_iteratorIPSsEppEv
FNDA:0,_ZSteqIPSsEbRKSt13move_iteratorIT_ES5_
FNDA:0,_ZStneIPSsEbRKSt13move_iteratorIT_ES5_
FNDA:0,_ZSt32__make_move_if_noexcept_iteratorIPSsSt13move_iteratorIS0_EET0_T_
FNF:21
FNH:0
DA:726,0
DA:738,0
DA:739,0
DA:746,0
DA:748,0
DA:749,0
DA:790,0
DA:791,0
DA:811,0
DA:813,0
DA:823,0
DA:825,0
DA:896,0
DA:898,0
DA:950,0
DA:951,0
DA:958,0
DA:959,0
DA:962,0
DA:963,0
DA:970,0
DA:972,0
DA:973,0
DA:1037,0
DA:1039,0
DA:1049,0
DA:1051,0
DA:1132,0
DA:1133,0
LF:29
LH:0
end_of_record
SF:/usr/include/c++/4.8/bits/stl_iterator_base_funcs.h
FN:90,_ZSt10__distanceIPcENSt15iterator_traitsIT_E15difference_typeES2_S2_St26random_access_iterator_tag
FN:90,_ZSt10__distanceIN9__gnu_cxx17__normal_iteratorIPcSt6vectorIcSaIcEEEEENSt15iterator_traitsIT_E15difference_typeES8_S8_St26random_access_iterator_tag
FN:114,_ZSt8distanceIN9__gnu_cxx17__normal_iteratorIPcSt6vectorIcSaIcEEEEENSt15iterator_traitsIT_E15difference_typeES8_S8_
FN:114,_ZSt8distanceIPcENSt15iterator_traitsIT_E15difference_typeES2_S2_
FNDA:0,_ZSt10__distanceIPcENSt15iterator_traitsIT_E15difference_typeES2_S2_St26random_access_iterator_tag
FNDA:0,_ZSt10__distanceIN9__gnu_cxx17__normal_iteratorIPcSt6vectorIcSaIcEEEEENSt15iterator_traitsIT_E15difference_typeES8_S8_St26random_access_iterator_tag
FNDA:0,_ZSt8distanceIPcENSt15iterator_traitsIT_E15difference_typeES2_S2_
FNDA:0,_ZSt8distanceIN9__gnu_cxx17__normal_iteratorIPcSt6vectorIcSaIcEEEEENSt15iterator_traitsIT_E15difference_typeES8_S8_
FNF:4
FNH:0
DA:90,0
DA:96,0
DA:114,0
DA:118,0
LF:4
LH:0
end_of_record
SF:/usr/include/c++/4.8/bits/stl_iterator_base_types.h
FN:201,_ZSt19__iterator_categoryIPcENSt15iterator_traitsIT_E17iterator_categoryERKS2_
FN:201,_ZSt19__iterator_categoryIN9__gnu_cxx17__normal_iteratorIPcSt6vectorIcSaIcEEEEENSt15iterator_traitsIT_E17iterator_categoryERKS8_
FN:212,_ZNSt10_Iter_baseIPcLb0EE7_S_baseES0_
FN:212,_ZNSt10_Iter_baseIN9__gnu_cxx17__normal_iteratorIPcSsEELb0EE7_S_baseES3_
FN:220,_ZNSt10_Iter_baseIN9__gnu_cxx17__normal_iteratorIPcSsEELb1EE7_S_baseES3_
FNDA:0,_ZSt19__iterator_categoryIPcENSt15iterator_traitsIT_E17iterator_categoryERKS2_
FNDA:0,_ZSt19__iterator_categoryIN9__gnu_cxx17__normal_iteratorIPcSt6vectorIcSaIcEEEEENSt15iterator_traitsIT_E17iterator_categoryERKS8_
FNDA:0,_ZNSt10_Iter_baseIPcLb0EE7_S_baseES0_
FNDA:0,_ZNSt10_Iter_baseIN9__gnu_cxx17__normal_iteratorIPcSsEELb0EE7_S_baseES3_
FNDA:0,_ZNSt10_Iter_baseIN9__gnu_cxx17__normal_iteratorIPcSsEELb1EE7_S_baseES3_
FNF:5
FNH:0
DA:201,0
DA:202,0
DA:212,0
DA:213,0
DA:220,0
DA:221,0
LF:6
LH:0
end_of_record
SF:/usr/include/c++/4.8/bits/stl_uninitialized.h
FN:68,_ZNSt20__uninitialized_copyILb0EE13__uninit_copyISt13move_iteratorIPSsES3_EET0_T_S6_S5_
FN:68,_ZNSt20__uninitialized_copyILb0EE13__uninit_copyIN9__gnu_cxx17__normal_iteratorIPKSsSt6vectorISsSaISsEEEEPSsEET0_T_SC_SB_
FN:107,_ZSt18uninitialized_copyISt13move_iteratorIPSsES1_ET0_T_S4_S3_
FN:107,_ZSt18uninitialized_copyIN9__gnu_cxx17__normal_iteratorIPKSsSt6vectorISsSaISsEEEEPSsET0_T_SA_S9_
FN:256,_ZSt22__uninitialized_copy_aIN9__gnu_cxx17__normal_iteratorIPKSsSt6vectorISsSaISsEEEEPSsSsET0_T_SA_S9_RSaIT1_E
FN:256,_ZSt22__uninitialized_copy_aISt13move_iteratorIPSsES1_SsET0_T_S4_S3_RSaIT1_E
FN:274,_ZSt34__uninitialized_move_if_noexcept_aIPSsS0_SaISsEET0_T_S3_S2_RT1_
FNDA:0,_ZNSt20__uninitialized_copyILb0EE13__uninit_copyISt13move_iteratorIPSsES3_EET0_T_S6_S5_
FNDA:0,_ZNSt20__uninitialized_copyILb0EE13__uninit_copyIN9__gnu_cxx17__normal_iteratorIPKSsSt6vectorISsSaISsEEEEPSsEET0_T_SC_SB_
FNDA:0,_ZSt18uninitialized_copyISt13move_iteratorIPSsES1_ET0_T_S4_S3_
FNDA:0,_ZSt18uninitialized_copyIN9__gnu_cxx17__normal_iteratorIPKSsSt6vectorISsSaISsEEEEPSsET0_T_SA_S9_
FNDA:0,_ZSt22__uninitialized_copy_aISt13move_iteratorIPSsES1_SsET0_T_S4_S3_RSaIT1_E
FNDA:0,_ZSt22__uninitialized_copy_aIN9__gnu_cxx17__normal_iteratorIPKSsSt6vectorISsSaISsEEEEPSsSsET0_T_SA_S9_RSaIT1_E
FNDA:0,_ZSt34__uninitialized_move_if_noexcept_aIPSsS0_SaISsEET0_T_S3_S2_RT1_
FNF:7
FNH:0
DA:68,0
DA:71,0
DA:74,0
DA:75,0
DA:76,0
DA:78,=====
DA:80,=====
DA:81,=====
DA:107,0
DA:117,0
DA:256,0
DA:258,0
DA:274,0
DA:281,0
LF:14
LH:0
end_of_record
SF:/usr/include/c++/4.8/bits/stl_vector.h
FN:79,_ZNSt12_Vector_baseISsSaISsEE12_Vector_implD2Ev
FN:86,_ZNSt12_Vector_baseISsSaISsEE12_Vector_implC2Ev
FN:90,_ZNSt12_Vector_baseISsSaISsEE12_Vector_implC2ERKS0_
FN:113,_ZNSt12_Vector_baseISsSaISsEE19_M_get_Tp_allocatorEv
FN:117,_ZNKSt12_Vector_baseISsSaISsEE19_M_get_Tp_allocatorEv
FN:124,_ZNSt12_Vector_baseISsSaISsEEC2Ev
FN:134,_ZNSt12_Vector_baseISsSaISsEEC2EmRKS0_
FN:159,_ZNSt12_Vector_baseISsSaISsEED2Ev
FN:167,_ZNSt12_Vector_baseISsSaISsEE11_M_allocateEm
FN:171,_ZNSt12_Vector_baseISsSaISsEE13_M_deallocateEPSsm
FN:179,_ZNSt12_Vector_baseISsSaISsEE17_M_create_storageEm
FN:248,_ZNSt6vectorISsSaISsEEC2Ev
FN:310,_ZNSt6vectorISsSaISsEEC2ERKS1_
FN:414,_ZNSt6vectorISsSaISsEED2Ev
FN:538,_ZNSt6vectorIcSaIcEE5beginEv
FN:547,_ZNKSt6vectorISsSaISsEE5beginEv
FN:556,_ZNSt6vectorIcSaIcEE3endEv
FN:565,_ZNKSt6vectorISsSaISsEE3endEv
FN:645,_ZNKSt6vectorISsSaISsEE4sizeEv
FN:650,_ZNKSt6vectorISsSaISsEE8max_sizeEv
FN:901,_ZNSt6vectorISsSaISsEE9push_backERKSs
FN:1336,_ZNKSt6vectorISsSaISsEE12_M_check_lenEmPKc
FNDA:0,_ZNSt12_Vector_baseISsSaISsEE12_Vector_implD2Ev
FNDA:0,_ZNSt12_Vector_baseISsSaISsEE12_Vector_implC2Ev
FNDA:0,_ZNSt12_Vector_baseISsSaISsEE12_Vector_implC2ERKS0_
FNDA:0,_ZNSt12_Vector_baseISsSaISsEE19_M_get_Tp_allocatorEv
FNDA:0,_ZNKSt12_Vector_baseISsSaISsEE19_M_get_Tp_allocatorEv
FNDA:0,_ZNSt12_Vector_baseISsSaISsEEC2Ev
FNDA:0,_ZNSt12_Vector_baseISsSaISsEEC2EmRKS0_
FNDA:0,_ZNSt12_Vector_baseISsSaISsEED2Ev
FNDA:0,_ZNSt12_Vector_baseISsSaISsEE11_M_allocateEm
FNDA:0,_ZNSt12_Vector_baseISsSaISsEE13_M_deallocateEPSsm
FNDA:0,_ZNSt12_Vector_baseISsSaISsEE17_M_create_storageEm
FNDA:0,_ZNSt6vectorISsSaISsEEC2Ev
FNDA:0,_ZNSt6vectorISsSaISsEEC2ERKS1_
FNDA:0,_ZNSt6vectorISsSaISsEED2Ev
FNDA:0,_ZNSt6vectorIcSaIcEE5beginEv
FNDA:0,_ZNKSt6vectorISsSaISsEE5beginEv
FNDA:0,_ZNSt6vectorIcSaIcEE3endEv
FNDA:0,_ZNKSt6vectorISsSaISsEE3endEv
FNDA:0,_ZNKSt6vectorISsSaISsEE4sizeEv
FNDA:0,_ZNKSt6vectorISsSaISsEE8max_sizeEv
FNDA:0,_ZNSt6vectorISsSaISsEE9push_backERKSs
FNDA:0,_ZNKSt6vectorISsSaISsEE12_M_check_lenEmPKc
FNF:22
FNH:0
DA:79,0
DA:86,0
DA:87,0
DA:88,0
DA:90,0
DA:91,0
DA:92,0
DA:113,0
DA:114,0
DA:117,0
DA:118,0
DA:124,0
DA:125,0
DA:134,0
DA:135,0
DA:136,0
DA:159,0
DA:160,0
DA:161,0
DA:167,0
DA:168,0
DA:171,0
DA:173,0
DA:174,0
DA:175,0
DA:179,0
DA:181,0
DA:182,0
DA:183,0
DA:184,0
DA:248,0
DA:249,0
DA:310,0
DA:312,0
DA:313,0
DA:316,0
DA:317,0
DA:414,0
DA:415,0
DA:416,0
DA:538,0
DA:539,0
DA:547,0
DA:548,0
DA:556,0
DA:557,0
DA:565,0
DA:566,0
DA:645,0
DA:646,0
DA:650,0
DA:651,0
DA:901,0
DA:903,0
DA:905,0
DA:906,0
DA:907,0
DA:911,0
DA:915,0
DA:1336,0
DA:1338,0
DA:1339,0
DA:1341,0
DA:1342,0
LF:64
LH:0
end_of_record
SF:/usr/include/c++/4.8/bits/vector.tcc
FN:399,_ZNSt6vectorISsSaISsEE19_M_emplace_back_auxIIRKSsEEEvDpOT_
FNDA:0,_ZNSt6vectorISsSaISsEE19_M_emplace_back_auxIIRKSsEEEvDpOT_
FNF:1
FNH:0
DA:399,0
DA:403,0
DA:404,0
DA:405,0
DA:408,0
DA:409,0
DA:410,0
DA:412,0
DA:415,0
DA:417,0
DA:419,=====
DA:421,=====
DA:422,=====
DA:424,=====
DA:425,=====
DA:426,=====
DA:428,0
DA:429,0
DA:430,0
DA:432,0
DA:433,0
DA:434,0
DA:435,0
DA:436,0
LF:24
LH:0
end_of_record
SF:/usr/include/c++/4.8/ext/alloc_traits.h
FN:166,_ZN9__gnu_cxx14__alloc_traitsISaISsEE17_S_select_on_copyERKS1_
FNDA:0,_ZN9__gnu_cxx14__alloc_traitsISaISsEE17_S_select_on_copyERKS1_
FNF:1
FNH:0
DA:166,0
DA:167,0
LF:2
LH:0
end_of_record
SF:/usr/include/c++/4.8/ext/atomicity.h
FN:48,_ZN9__gnu_cxxL18__exchange_and_addEPVii
FN:65,_ZN9__gnu_cxxL25__exchange_and_add_singleEPii
FN:78,_ZN9__gnu_cxxL27__exchange_and_add_dispatchEPii
FNDA:0,_ZN9__gnu_cxxL18__exchange_and_addEPVii
FNDA:0,_ZN9__gnu_cxxL25__exchange_and_add_singleEPii
FNDA:0,_ZN9__gnu_cxxL27__exchange_and_add_dispatchEPii
FNF:3
FNH:0
DA:48,0
DA:49,0
DA:65,0
DA:67,0
DA:68,0
DA:69,0
DA:78,0
DA:81,0
DA:82,0
DA:84,0
LF:10
LH:0
end_of_record
SF:/usr/include/c++/4.8/ext/new_allocator.h
FN:79,_ZN9__gnu_cxx13new_allocatorISsEC2Ev
FN:79,_ZN9__gnu_cxx13new_allocatorIcEC2Ev
FN:81,_ZN9__gnu_cxx13new_allocatorIcEC2ERKS1_
FN:81,_ZN9__gnu_cxx13new_allocatorISsEC2ERKS1_
FN:86,_ZN9__gnu_cxx13new_allocatorIcED2Ev
FN:86,_ZN9__gnu_cxx13new_allocatorISsED2Ev
FN:99,_ZN9__gnu_cxx13new_allocatorISsE8allocateEmPKv
FN:109,_ZN9__gnu_cxx13new_allocatorISsE10deallocateEPSsm
FN:113,_ZNK9__gnu_cxx13new_allocatorISsE8max_sizeEv
FN:119,_ZN9__gnu_cxx13new_allocatorISsE9constructISsIRKSsEEEvPT_DpOT0_
FN:124,_ZN9__gnu_cxx13new_allocatorISsE7destroyISsEEvPT_
FNDA:0,_ZN9__gnu_cxx13new_allocatorISsEC2Ev
FNDA:0,_ZN9__gnu_cxx13new_allocatorIcEC2Ev
FNDA:0,_ZN9__gnu_cxx13new_allocatorISsEC2ERKS1_
FNDA:0,_ZN9__gnu_cxx13new_allocatorIcEC2ERKS1_
FNDA:0,_ZN9__gnu_cxx13new_allocatorISsED2Ev
FNDA:0,_ZN9__gnu_cxx13new_allocatorIcED2Ev
FNDA:0,_ZN9__gnu_cxx13new_allocatorISsE8allocateEmPKv
FNDA:0,_ZN9__gnu_cxx13new_allocatorISsE10deallocateEPSsm
FNDA:0,_ZNK9__gnu_cxx13new_allocatorISsE8max_sizeEv
FNDA:0,_ZN9__gnu_cxx13new_allocatorISsE9constructISsIRKSsEEEvPT_DpOT0_
FNDA:0,_ZN9__gnu_cxx13new_allocatorISsE7destroyISsEEvPT_
FNF:11
FNH:0
DA:79,0
DA:81,0
DA:86,0
DA:99,0
DA:101,0
DA:102,0
DA:104,0
DA:109,0
DA:110,0
DA:113,0
DA:114,0
DA:119,0
DA:120,0
DA:124,0
LF:14
LH:0
end_of_record
SF:/usr/include/c++/4.8/ext/type_traits.h
FN:150,_ZN9__gnu_cxx17__is_null_pointerIcEEbPT_
FN:155,_ZN9__gnu_cxx17__is_null_pointerINS_17__normal_iteratorIPcSt6vectorIcSaIcEEEEEEbT_
FNDA:0,_ZN9__gnu_cxx17__is_null_pointerIcEEbPT_
FNDA:0,_ZN9__gnu_cxx17__is_null_pointerINS_17__normal_iteratorIPcSt6vectorIcSaIcEEEEEEbT_
FNF:2
FNH:0
DA:150,0
DA:151,0
DA:155,0
DA:156,0
LF:4
LH:0
end_of_record
SF:/usr/include/c++/4.8/iostream
DA:74,20
LF:1
LH:1
end_of_record
SF:/usr/include/c++/4.8/new
FN:109,_ZnwmPv
FN:115,_ZdlPvS_
FNDA:0,_ZnwmPv
FNDA:0,_ZdlPvS_
FNF:2
FNH:0
DA:109,0
DA:110,0
DA:115,0
LF:3
LH:0
end_of_record
SF:/usr/include/c++/4.8/sstream
FN:64,_ZNSt15basic_stringbufIcSt11char_traitsIcESaIcEED2Ev
FN:64,_ZNSt15basic_stringbufIcSt11char_traitsIcESaIcEED0Ev
FNDA:0,_ZNSt15basic_stringbufIcSt11char_traitsIcESaIcEED0Ev
FNDA:0,_ZNSt15basic_stringbufIcSt11char_traitsIcESaIcEED2Ev
FNF:2
FNH:0
DA:64,0
LF:1
LH:0
end_of_record
SF:/usr/include/x86_64-linux-gnu/c++/4.8/bits/gthr-default.h
FN:247,_ZL18__gthread_active_pv
FNDA:0,_ZL18__gthread_active_pv
FNF:1
FNH:0
DA:247,0
DA:251,0
LF:2
LH:0
end_of_record
TN:
SF:/home/taller2-appserver/Appserver/src/servicios/Servicio.cpp
FN:3,_ZN8ServicioC2Ev
FN:8,_ZN8ServicioD0Ev
FN:8,_ZN8ServicioD2Ev
FN:13,_ZN8Servicio12getRespuestaEv
FN:15,_GLOBAL__sub_I__ZN8ServicioC2Ev
FN:15,_Z41__static_initialization_and_destruction_0ii
FNDA:14,_ZN8ServicioC2Ev
FNDA:0,_ZN8ServicioD0Ev
FNDA:14,_ZN8ServicioD2Ev
FNDA:28,_ZN8Servicio12getRespuestaEv
FNDA:4,_GLOBAL__sub_I__ZN8ServicioC2Ev
FNDA:4,_Z41__static_initialization_and_destruction_0ii
FNF:6
FNH:5
DA:3,14
DA:6,14
DA:8,14
DA:11,14
DA:13,28
DA:14,28
DA:15,12
LF:7
LH:7
end_of_record
SF:/usr/include/c++/4.8/iostream
DA:74,4
LF:1
LH:1
end_of_record
TN:
SF:/home/taller2-appserver/Appserver/src/servicios/CredencialesDeUsuarios.cpp
FN:5,_ZN22CredencialesDeUsuariosC2ESs
FN:11,_ZN22CredencialesDeUsuarios19validarCredencialesESsSs
FN:15,_ZN22CredencialesDeUsuarios19agregarNuevoUsuarioESsSs
FN:25,_ZN22CredencialesDeUsuarios13existeUsuarioESs
FN:29,_ZN22CredencialesDeUsuarios13getPasswordDeESs
FN:33,_ZN22CredencialesDeUsuarios27agregarUsuarioYCredencialesESsSs
FN:37,_ZN22CredencialesDeUsuariosD0Ev
FN:37,_ZN22CredencialesDeUsuariosD2Ev
FNDA:100,_ZN22CredencialesDeUsuariosC2ESs
FNDA:41,_ZN22CredencialesDeUsuarios19validarCredencialesESsSs
FNDA:96,_ZN22CredencialesDeUsuarios19agregarNuevoUsuarioESsSs
FNDA:171,_ZN22CredencialesDeUsuarios13existeUsuarioESs
FNDA:39,_ZN22CredencialesDeUsuarios13getPasswordDeESs
FNDA:10,_ZN22CredencialesDeUsuarios27agregarUsuarioYCredencialesESsSs
FNDA:100,_ZN22CredencialesDeUsuariosD0Ev
FNDA:100,_ZN22CredencialesDeUsuariosD2Ev
FNF:8
FNH:8
DA:5,100
DA:6,100
DA:7,100
DA:11,41
DA:12,41
DA:15,96
DA:16,96
DA:17,86
DA:20,10
DA:21,10
DA:25,171
DA:26,171
DA:29,39
DA:30,39
DA:33,10
DA:34,10
DA:35,10
DA:37,200
DA:38,100
DA:39,200
LF:20
LH:20
end_of_record
SF:/usr/include/c++/4.8/bits/basic_string.h
FN:272,_ZNSs12_Alloc_hiderD2Ev
FN:2493,_ZSteqIcEN9__gnu_cxx11__enable_ifIXsrSt9__is_charIT_E7__valueEbE6__typeERKSbIS3_St11char_traitsIS3_ESaIS3_EESC_
FNDA:0,_ZNSs12_Alloc_hiderD2Ev
FNDA:0,_ZSteqIcEN9__gnu_cxx11__enable_ifIXsrSt9__is_charIT_E7__valueEbE6__typeERKSbIS3_St11char_traitsIS3_ESaIS3_EESC_
FNF:2
FNH:0
DA:272,0
DA:2493,0
DA:2495,0
DA:2497,0
LF:4
LH:0
end_of_record
SF:/usr/include/c++/4.8/bits/char_traits.h
FN:254,_ZNSt11char_traitsIcE7compareEPKcS2_m
FNDA:0,_ZNSt11char_traitsIcE7compareEPKcS2_m
FNF:1
FNH:0
DA:254,0
DA:255,0
LF:2
LH:0
end_of_record
SF:/usr/include/c++/4.8/ext/atomicity.h
FN:48,_ZN9__gnu_cxxL18__exchange_and_addEPVii
FN:65,_ZN9__gnu_cxxL25__exchange_and_add_singleEPii
FN:78,_ZN9__gnu_cxxL27__exchange_and_add_dispatchEPii
FNDA:0,_ZN9__gnu_cxxL18__exchange_and_addEPVii
FNDA:0,_ZN9__gnu_cxxL25__exchange_and_add_singleEPii
FNDA:0,_ZN9__gnu_cxxL27__exchange_and_add_dispatchEPii
FNF:3
FNH:0
DA:48,0
DA:49,0
DA:65,0
DA:67,0
DA:68,0
DA:69,0
DA:78,0
DA:81,0
DA:82,0
DA:84,0
LF:10
LH:0
end_of_record
SF:/usr/include/c++/4.8/ext/new_allocator.h
FN:81,_ZN9__gnu_cxx13new_allocatorIcEC2ERKS1_
FN:86,_ZN9__gnu_cxx13new_allocatorIcED2Ev
FNDA:0,_ZN9__gnu_cxx13new_allocatorIcEC2ERKS1_
FNDA:0,_ZN9__gnu_cxx13new_allocatorIcED2Ev
FNF:2
FNH:0
DA:81,0
DA:86,0
LF:2
LH:0
end_of_record
SF:/usr/include/x86_64-linux-gnu/c++/4.8/bits/gthr-default.h
FN:247,_ZL18__gthread_active_pv
FNDA:0,_ZL18__gthread_active_pv
FNF:1
FNH:0
DA:247,0
DA:251,0
LF:2
LH:0
end_of_record
TN:
SF:/home/taller2-appserver/Appserver/src/servicios/RespuestaDelServicio.cpp
FN:3,_ZN20RespuestaDelServicioC2Ev
FN:7,_ZN20RespuestaDelServicioD0Ev
FN:7,_ZN20RespuestaDelServicioD2Ev
FN:13,_ZN20RespuestaDelServicio8toStringEv
FN:15,_Z41__static_initialization_and_destruction_0ii
FN:15,_GLOBAL__sub_I__ZN20RespuestaDelServicioC2Ev
FNDA:14,_ZN20RespuestaDelServicioC2Ev
FNDA:0,_ZN20RespuestaDelServicioD0Ev
FNDA:14,_ZN20RespuestaDelServicioD2Ev
FNDA:14,_ZN20RespuestaDelServicio8toStringEv
FNDA:4,_GLOBAL__sub_I__ZN20RespuestaDelServicioC2Ev
FNDA:4,_Z41__static_initialization_and_destruction_0ii
FNF:6
FNH:5
DA:3,14
DA:5,14
DA:7,14
DA:9,14
DA:13,14
DA:14,14
DA:15,12
LF:7
LH:7
end_of_record
SF:/usr/include/c++/4.8/iostream
DA:74,4
LF:1
LH:1
end_of_record
TN:
SF:/home/taller2-appserver/Appserver/src/servicios/MensajeHTTPRequest.cpp
FN:5,_ZN18MensajeHTTPRequestC2Ev
FN:10,_ZN18MensajeHTTPRequestC2EP12http_message
FN:17,_ZN18MensajeHTTPRequest9getMetodoEv
FN:21,_ZN18MensajeHTTPRequest6getURIEv
FN:26,_ZN18MensajeHTTPRequest9setMetodoESs
FN:30,_ZN18MensajeHTTPRequest6setURIESs
FN:38,_ZN18MensajeHTTPRequest8toStringEv
FN:45,_ZN18MensajeHTTPRequestD0Ev
FN:45,_ZN18MensajeHTTPRequestD2Ev
FN:48,_Z41__static_initialization_and_destruction_0ii
FN:48,_GLOBAL__sub_I__ZN18MensajeHTTPRequestC2Ev
FNDA:29,_ZN18MensajeHTTPRequestC2Ev
FNDA:82,_ZN18MensajeHTTPRequestC2EP12http_message
FNDA:77,_ZN18MensajeHTTPRequest9getMetodoEv
FNDA:49,_ZN18MensajeHTTPRequest6getURIEv
FNDA:18,_ZN18MensajeHTTPRequest9setMetodoESs
FNDA:18,_ZN18MensajeHTTPRequest6setURIESs
FNDA:18,_ZN18MensajeHTTPRequest8toStringEv
FNDA:63,_ZN18MensajeHTTPRequestD0Ev
FNDA:150,_ZN18MensajeHTTPRequestD2Ev
FNDA:20,_GLOBAL__sub_I__ZN18MensajeHTTPRequestC2Ev
FNDA:20,_Z41__static_initialization_and_destruction_0ii
FNF:11
FNH:11
DA:5,29
DA:7,29
DA:10,82
DA:11,81
DA:12,81
DA:13,81
DA:17,77
DA:18,77
DA:21,49
DA:22,49
DA:26,18
DA:27,18
DA:28,18
DA:30,18
DA:31,18
DA:32,18
DA:38,18
DA:39,18
DA:45,213
DA:48,273
LF:20
LH:20
end_of_record
SF:/usr/include/c++/4.8/bits/basic_string.h
FN:272,_ZNSs12_Alloc_hiderC2ERKS_
FN:272,_ZNSs12_Alloc_hiderD2Ev
FN:2442,_ZStplIcSt11char_traitsIcESaIcEESbIT_T0_T1_EOS6_S7_
FN:2466,_ZStplIcSt11char_traitsIcESaIcEESbIT_T0_T1_EOS6_PKS3_
FNDA:0,_ZNSs12_Alloc_hiderC2ERKS_
FNDA:0,_ZNSs12_Alloc_hiderD2Ev
FNDA:86,_ZStplIcSt11char_traitsIcESaIcEESbIT_T0_T1_EOS6_S7_
FNDA:216,_ZStplIcSt11char_traitsIcESaIcEESbIT_T0_T1_EOS6_PKS3_
FNF:4
FNH:2
DA:272,0
DA:2442,86
DA:2445,86
DA:2446,86
DA:2447,86
DA:2448,7
DA:2449,93
DA:2466,216
DA:2468,216
LF:9
LH:8
end_of_record
SF:/usr/include/c++/4.8/bits/char_traits.h
FN:258,_ZNSt11char_traitsIcE6lengthEPKc
FNDA:0,_ZNSt11char_traitsIcE6lengthEPKc
FNF:1
FNH:0
DA:258,0
DA:259,0
LF:2
LH:0
end_of_record
SF:/usr/include/c++/4.8/bits/move.h
FN:101,_ZSt4moveIRSsEONSt16remove_referenceIT_E4typeEOS2_
FNDA:1272,_ZSt4moveIRSsEONSt16remove_referenceIT_E4typeEOS2_
FNF:1
FNH:1
DA:101,1272
DA:102,1272
LF:2
LH:2
end_of_record
SF:/usr/include/c++/4.8/ext/atomicity.h
FN:48,_ZN9__gnu_cxxL18__exchange_and_addEPVii
FN:65,_ZN9__gnu_cxxL25__exchange_and_add_singleEPii
FN:78,_ZN9__gnu_cxxL27__exchange_and_add_dispatchEPii
FNDA:0,_ZN9__gnu_cxxL18__exchange_and_addEPVii
FNDA:0,_ZN9__gnu_cxxL25__exchange_and_add_singleEPii
FNDA:0,_ZN9__gnu_cxxL27__exchange_and_add_dispatchEPii
FNF:3
FNH:0
DA:48,0
DA:49,0
DA:65,0
DA:67,0
DA:68,0
DA:69,0
DA:78,0
DA:81,0
DA:82,0
DA:84,0
LF:10
LH:0
end_of_record
SF:/usr/include/c++/4.8/ext/new_allocator.h
FN:79,_ZN9__gnu_cxx13new_allocatorIcEC2Ev
FN:81,_ZN9__gnu_cxx13new_allocatorIcEC2ERKS1_
FN:86,_ZN9__gnu_cxx13new_allocatorIcED2Ev
FNDA:0,_ZN9__gnu_cxx13new_allocatorIcEC2Ev
FNDA:0,_ZN9__gnu_cxx13new_allocatorIcEC2ERKS1_
FNDA:0,_ZN9__gnu_cxx13new_allocatorIcED2Ev
FNF:3
FNH:0
DA:79,0
DA:81,0
DA:86,0
LF:3
LH:0
end_of_record
SF:/usr/include/c++/4.8/iostream
DA:74,20
LF:1
LH:1
end_of_record
SF:/usr/include/x86_64-linux-gnu/c++/4.8/bits/gthr-default.h
FN:247,_ZL18__gthread_active_pv
FNDA:0,_ZL18__gthread_active_pv
FNF:1
FNH:0
DA:247,0
DA:251,0
LF:2
LH:0
end_of_record
TN:
SF:/home/taller2-appserver/Appserver/src/servicios/SesionesDeUsuarios.cpp
FN:4,_ZN18SesionesDeUsuariosC2Ev
FN:10,_ZN18SesionesDeUsuarios14existeSesionDeESs
FN:14,_ZN18SesionesDeUsuarios22validarTokenConUsuarioESsSs
FN:19,_ZN18SesionesDeUsuarios15agregarSesionDeESsSsSs
FN:26,_ZN18SesionesDeUsuarios13getTokenGCMDeESs
FN:35,_ZN18SesionesDeUsuariosD0Ev
FN:35,_ZN18SesionesDeUsuariosD2Ev
FN:38,_GLOBAL__sub_I__ZN18SesionesDeUsuariosC2Ev
FN:38,_Z41__static_initialization_and_destruction_0ii
FNDA:4,_ZN18SesionesDeUsuariosC2Ev
FNDA:2,_ZN18SesionesDeUsuarios14existeSesionDeESs
FNDA:0,_ZN18SesionesDeUsuarios22validarTokenConUsuarioESsSs
FNDA:6,_ZN18SesionesDeUsuarios15agregarSesionDeESsSsSs
FNDA:2,_ZN18SesionesDeUsuarios13getTokenGCMDeESs
FNDA:4,_ZN18SesionesDeUsuariosD0Ev
FNDA:4,_ZN18SesionesDeUsuariosD2Ev
FNDA:4,_GLOBAL__sub_I__ZN18SesionesDeUsuariosC2Ev
FNDA:4,_Z41__static_initialization_and_destruction_0ii
FNF:9
FNH:8
DA:4,4
DA:7,4
DA:10,2
DA:11,2
DA:14,0
DA:15,0
DA:19,6
DA:20,6
DA:21,6
DA:23,6
DA:26,2
DA:27,2
DA:28,2
DA:31,0
DA:35,8
DA:38,20
LF:16
LH:13
end_of_record
SF:/home/taller2-appserver/Appserver/src/servicios/SesionesDeUsuarios.h
FN:12,_ZN13datosDeSesionD2Ev
FN:12,_ZN13datosDeSesionC2Ev
FNDA:4,_ZN13datosDeSesionC2Ev
FNDA:4,_ZN13datosDeSesionD2Ev
FNF:2
FNH:2
DA:12,8
LF:1
LH:1
end_of_record
SF:/usr/include/c++/4.8/bits/alloc_traits.h
FN:253,_ZNSt16allocator_traitsISaISt13_Rb_tree_nodeISt4pairIKSs13datosDeSesionEEEE12_S_constructIS5_IRKSt21piecewise_construct_tSt5tupleIIRS2_EESC_IIEEEEENSt9enable_ifIXsrNS7_18__construct_helperIT_IDpT0_EEE5valueEvE4typeERS6_PSI_DpOSJ_
FN:391,_ZNSt16allocator_traitsISaISt13_Rb_tree_nodeISt4pairIKSs13datosDeSesionEEEE9constructIS5_IRKSt21piecewise_construct_tSt5tupleIIRS2_EESC_IIEEEEEDTcl12_S_constructfp_fp0_spcl7forwardIT0_Efp1_EEERS6_PT_DpOSG_
FNDA:4,_ZNSt16allocator_traitsISaISt13_Rb_tree_nodeISt4pairIKSs13datosDeSesionEEEE12_S_constructIS5_IRKSt21piecewise_construct_tSt5tupleIIRS2_EESC_IIEEEEENSt9enable_ifIXsrNS7_18__construct_helperIT_IDpT0_EEE5valueEvE4typeERS6_PSI_DpOSJ_
FNDA:4,_ZNSt16allocator_traitsISaISt13_Rb_tree_nodeISt4pairIKSs13datosDeSesionEEEE9constructIS5_IRKSt21piecewise_construct_tSt5tupleIIRS2_EESC_IIEEEEEDTcl12_S_constructfp_fp0_spcl7forwardIT0_Efp1_EEERS6_PT_DpOSG_
FNF:2
FNH:2
DA:253,4
DA:254,4
DA:391,4
DA:393,4
LF:4
LH:4
end_of_record
SF:/usr/include/c++/4.8/bits/allocator.h
FN:113,_ZNSaISt13_Rb_tree_nodeISt4pairIKSs13datosDeSesionEEEC2Ev
FN:121,_ZNSaISt13_Rb_tree_nodeISt4pairIKSs13datosDeSesionEEED2Ev
FNDA:4,_ZNSaISt13_Rb_tree_nodeISt4pairIKSs13datosDeSesionEEEC2Ev
FNDA:4,_ZNSaISt13_Rb_tree_nodeISt4pairIKSs13datosDeSesionEEED2Ev
FNF:2
FNH:2
DA:113,4
DA:121,4
LF:2
LH:2
end_of_record
SF:/usr/include/c++/4.8/bits/basic_string.h
FN:272,_ZNSs12_Alloc_hiderD2Ev
FN:2493,_ZSteqIcEN9__gnu_cxx11__enable_ifIXsrSt9__is_charIT_E7__valueEbE6__typeERKSbIS3_St11char_traitsIS3_ESaIS3_EESC_
FN:2569,_ZStltIcSt11char_traitsIcESaIcEEbRKSbIT_T0_T1_ES8_
FNDA:0,_ZNSs12_Alloc_hiderD2Ev
FNDA:0,_ZSteqIcEN9__gnu_cxx11__enable_ifIXsrSt9__is_charIT_E7__valueEbE6__typeERKSbIS3_St11char_traitsIS3_ESaIS3_EESC_
FNDA:0,_ZStltIcSt11char_traitsIcESaIcEEbRKSbIT_T0_T1_ES8_
FNF:3
FNH:0
DA:272,0
DA:2493,0
DA:2495,0
DA:2497,0
DA:2569,0
DA:2571,0
LF:6
LH:0
end_of_record
SF:/usr/include/c++/4.8/bits/char_traits.h
FN:254,_ZNSt11char_traitsIcE7compareEPKcS2_m
FNDA:0,_ZNSt11char_traitsIcE7compareEPKcS2_m
FNF:1
FNH:0
DA:254,0
DA:255,0
LF:2
LH:0
end_of_record
SF:/usr/include/c++/4.8/bits/move.h
FN:76,_ZSt7forwardISt5tupleIIEEEOT_RNSt16remove_referenceIS2_E4typeE
FN:76,_ZSt7forwardIRKSsEOT_RNSt16remove_referenceIS2_E4typeE
FN:76,_ZSt7forwardIRPSt18_Rb_tree_node_baseEOT_RNSt16remove_referenceIS3_E4typeE
FN:76,_ZSt7forwardIRKSt21piecewise_construct_tEOT_RNSt16remove_referenceIS3_E4typeE
FN:76,_ZSt7forwardIRPSt13_Rb_tree_nodeISt4pairIKSs13datosDeSesionEEEOT_RNSt16remove_referenceIS8_E4typeE
FN:76,_ZSt7forwardISt5tupleIIRKSsEEEOT_RNSt16remove_referenceIS4_E4typeE
FN:101,_ZSt4moveIRSt11_Tuple_implILm1EIEEEONSt16remove_referenceIT_E4typeEOS4_
FNDA:0,_ZSt7forwardIRKSsEOT_RNSt16remove_referenceIS2_E4typeE
FNDA:2,_ZSt7forwardIRPSt13_Rb_tree_nodeISt4pairIKSs13datosDeSesionEEEOT_RNSt16remove_referenceIS8_E4typeE
FNDA:0,_ZSt7forwardIRPSt18_Rb_tree_node_baseEOT_RNSt16remove_referenceIS3_E4typeE
FNDA:0,_ZSt7forwardISt5tupleIIEEEOT_RNSt16remove_referenceIS2_E4typeE
FNDA:0,_ZSt7forwardISt5tupleIIRKSsEEEOT_RNSt16remove_referenceIS4_E4typeE
FNDA:0,_ZSt7forwardIRKSt21piecewise_construct_tEOT_RNSt16remove_referenceIS3_E4typeE
FNDA:0,_ZSt4moveIRSt11_Tuple_implILm1EIEEEONSt16remove_referenceIT_E4typeEOS4_
FNF:7
FNH:1
DA:76,2
DA:77,2
DA:101,0
DA:102,0
LF:4
LH:2
end_of_record
SF:/usr/include/c++/4.8/bits/stl_algobase.h
FN:193,_ZSt3minImERKT_S2_S2_
FNDA:0,_ZSt3minImERKT_S2_S2_
FNF:1
FNH:0
DA:193,0
DA:198,0
DA:199,0
DA:200,0
LF:4
LH:0
end_of_record
SF:/usr/include/c++/4.8/bits/stl_function.h
FN:234,_ZNKSt4lessISsEclERKSsS2_
FN:494,_ZNKSt10_Select1stISt4pairIKSs13datosDeSesionEEclERKS3_
FNDA:0,_ZNKSt4lessISsEclERKSsS2_
FNDA:37,_ZNKSt10_Select1stISt4pairIKSs13datosDeSesionEEclERKS3_
FNF:2
FNH:1
DA:234,0
DA:235,0
DA:494,37
DA:495,37
LF:4
LH:2
end_of_record
SF:/usr/include/c++/4.8/bits/stl_map.h
FN:96,_ZNSt3mapISs13datosDeSesionSt4lessISsESaISt4pairIKSsS0_EEED2Ev
FN:160,_ZNSt3mapISs13datosDeSesionSt4lessISsESaISt4pairIKSsS0_EEEC2Ev
FN:338,_ZNSt3mapISs13datosDeSesionSt4lessISsESaISt4pairIKSsS0_EEE3endEv
FN:456,_ZNSt3mapISs13datosDeSesionSt4lessISsESaISt4pairIKSsS0_EEEixERS4_
FN:797,_ZNKSt3mapISs13datosDeSesionSt4lessISsESaISt4pairIKSsS0_EEE8key_compEv
FN:821,_ZNSt3mapISs13datosDeSesionSt4lessISsESaISt4pairIKSsS0_EEE4findERS4_
FN:863,_ZNSt3mapISs13datosDeSesionSt4lessISsESaISt4pairIKSsS0_EEE11lower_boundERS4_
FNDA:4,_ZNSt3mapISs13datosDeSesionSt4lessISsESaISt4pairIKSsS0_EEED2Ev
FNDA:4,_ZNSt3mapISs13datosDeSesionSt4lessISsESaISt4pairIKSsS0_EEEC2Ev
FNDA:16,_ZNSt3mapISs13datosDeSesionSt4lessISsESaISt4pairIKSsS0_EEE3endEv
FNDA:14,_ZNSt3mapISs13datosDeSesionSt4lessISsESaISt4pairIKSsS0_EEEixERS4_
FNDA:12,_ZNKSt3mapISs13datosDeSesionSt4lessISsESaISt4pairIKSsS0_EEE8key_compEv
FNDA:2,_ZNSt3mapISs13datosDeSesionSt4lessISsESaISt4pairIKSsS0_EEE4findERS4_
FNDA:14,_ZNSt3mapISs13datosDeSesionSt4lessISsESaISt4pairIKSsS0_EEE11lower_boundERS4_
FNF:7
FNH:7
DA:96,4
DA:160,4
DA:161,4
DA:338,16
DA:339,16
DA:456,14
DA:461,14
DA:463,14
DA:465,4
DA:471,14
DA:797,12
DA:798,12
DA:821,2
DA:822,2
DA:863,14
DA:864,14
LF:16
LH:16
end_of_record
SF:/usr/include/c++/4.8/bits/stl_pair.h
FN:96,_ZNSt4pairIKSs13datosDeSesionED2Ev
FN:133,_ZNSt4pairIPSt18_Rb_tree_node_baseS1_EC2IRS1_vEEOT_RKS1_
FN:138,_ZNSt4pairIPSt18_Rb_tree_node_baseS1_EC2IRS1_vEERKS1_OT_
FN:144,_ZNSt4pairIPSt18_Rb_tree_node_baseS1_EC2IRS1_S4_vEEOT_OT0_
FN:144,_ZNSt4pairIPSt18_Rb_tree_node_baseS1_EC2IRPSt13_Rb_tree_nodeIS_IKSs13datosDeSesionEESA_vEEOT_OT0_
FNDA:4,_ZNSt4pairIKSs13datosDeSesionED2Ev
FNDA:0,_ZNSt4pairIPSt18_Rb_tree_node_baseS1_EC2IRS1_vEEOT_RKS1_
FNDA:0,_ZNSt4pairIPSt18_Rb_tree_node_baseS1_EC2IRS1_vEERKS1_OT_
FNDA:1,_ZNSt4pairIPSt18_Rb_tree_node_baseS1_EC2IRPSt13_Rb_tree_nodeIS_IKSs13datosDeSesionEESA_vEEOT_OT0_
FNDA:0,_ZNSt4pairIPSt18_Rb_tree_node_baseS1_EC2IRS1_S4_vEEOT_OT0_
FNF:5
FNH:2
DA:96,4
DA:133,0
DA:134,0
DA:138,0
DA:139,0
DA:144,1
DA:145,1
LF:7
LH:3
end_of_record
SF:/usr/include/c++/4.8/bits/stl_tree.h
FN:131,_ZNSt13_Rb_tree_nodeISt4pairIKSs13datosDeSesionEED2Ev
FN:138,_ZNSt13_Rb_tree_nodeISt4pairIKSs13datosDeSesionEEC2IIRKSt21piecewise_construct_tSt5tupleIIRS1_EES9_IIEEEEEDpOT_
FN:174,_ZNSt17_Rb_tree_iteratorISt4pairIKSs13datosDeSesionEEC2EPSt13_Rb_tree_nodeIS3_E
FN:178,_ZNKSt17_Rb_tree_iteratorISt4pairIKSs13datosDeSesionEEdeEv
FN:187,_ZNSt17_Rb_tree_iteratorISt4pairIKSs13datosDeSesionEEppEv
FN:202,_ZNSt17_Rb_tree_iteratorISt4pairIKSs13datosDeSesionEEmmEv
FN:217,_ZNKSt17_Rb_tree_iteratorISt4pairIKSs13datosDeSesionEEeqERKS4_
FN:221,_ZNKSt17_Rb_tree_iteratorISt4pairIKSs13datosDeSesionEEneERKS4_
FN:250,_ZNSt23_Rb_tree_const_iteratorISt4pairIKSs13datosDeSesionEEC2ERKSt17_Rb_tree_iteratorIS3_E
FN:254,_ZNKSt23_Rb_tree_const_iteratorISt4pairIKSs13datosDeSesionEE13_M_const_castEv
FN:356,_ZNSt8_Rb_treeISsSt4pairIKSs13datosDeSesionESt10_Select1stIS3_ESt4lessISsESaIS3_EE21_M_get_Node_allocatorEv
FN:369,_ZNSt8_Rb_treeISsSt4pairIKSs13datosDeSesionESt10_Select1stIS3_ESt4lessISsESaIS3_EE11_M_get_nodeEv
FN:373,_ZNSt8_Rb_treeISsSt4pairIKSs13datosDeSesionESt10_Select1stIS3_ESt4lessISsESaIS3_EE11_M_put_nodeEPSt13_Rb_tree_nodeIS3_E
FN:401,_ZNSt8_Rb_treeISsSt4pairIKSs13datosDeSesionESt10_Select1stIS3_ESt4lessISsESaIS3_EE14_M_create_nodeIIRKSt21piecewise_construct_tSt5tupleIIRS1_EESE_IIEEEEEPSt13_Rb_tree_nodeIS3_EDpOT_
FN:419,_ZNSt8_Rb_treeISsSt4pairIKSs13datosDeSesionESt10_Select1stIS3_ESt4lessISsESaIS3_EE15_M_destroy_nodeEPSt13_Rb_tree_nodeIS3_E
FN:439,_ZNSt8_Rb_treeISsSt4pairIKSs13datosDeSesionESt10_Select1stIS3_ESt4lessISsESaIS3_EE13_Rb_tree_implIS7_Lb1EED2Ev
FN:445,_ZNSt8_Rb_treeISsSt4pairIKSs13datosDeSesionESt10_Select1stIS3_ESt4lessISsESaIS3_EE13_Rb_tree_implIS7_Lb1EEC2Ev
FN:464,_ZNSt8_Rb_treeISsSt4pairIKSs13datosDeSesionESt10_Select1stIS3_ESt4lessISsESaIS3_EE13_Rb_tree_implIS7_Lb1EE13_M_initializeEv
FN:485,_ZNSt8_Rb_treeISsSt4pairIKSs13datosDeSesionESt10_Select1stIS3_ESt4lessISsESaIS3_EE11_M_leftmostEv
FN:493,_ZNSt8_Rb_treeISsSt4pairIKSs13datosDeSesionESt10_Select1stIS3_ESt4lessISsESaIS3_EE12_M_rightmostEv
FN:501,_ZNSt8_Rb_treeISsSt4pairIKSs13datosDeSesionESt10_Select1stIS3_ESt4lessISsESaIS3_EE8_M_beginEv
FN:512,_ZNSt8_Rb_treeISsSt4pairIKSs13datosDeSesionESt10_Select1stIS3_ESt4lessISsESaIS3_EE6_M_endEv
FN:520,_ZNSt8_Rb_treeISsSt4pairIKSs13datosDeSesionESt10_Select1stIS3_ESt4lessISsESaIS3_EE8_S_valueEPKSt13_Rb_tree_nodeIS3_E
FN:524,_ZNSt8_Rb_treeISsSt4pairIKSs13datosDeSesionESt10_Select1stIS3_ESt4lessISsESaIS3_EE6_S_keyEPKSt13_Rb_tree_nodeIS3_E
FN:528,_ZNSt8_Rb_treeISsSt4pairIKSs13datosDeSesionESt10_Select1stIS3_ESt4lessISsESaIS3_EE7_S_leftEPSt18_Rb_tree_node_base
FN:536,_ZNSt8_Rb_treeISsSt4pairIKSs13datosDeSesionESt10_Select1stIS3_ESt4lessISsESaIS3_EE8_S_rightEPSt18_Rb_tree_node_base
FN:544,_ZNSt8_Rb_treeISsSt4pairIKSs13datosDeSesionESt10_Select1stIS3_ESt4lessISsESaIS3_EE8_S_valueEPKSt18_Rb_tree_node_base
FN:548,_ZNSt8_Rb_treeISsSt4pairIKSs13datosDeSesionESt10_Select1stIS3_ESt4lessISsESaIS3_EE6_S_keyEPKSt18_Rb_tree_node_base
FN:648,_ZNSt8_Rb_treeISsSt4pairIKSs13datosDeSesionESt10_Select1stIS3_ESt4lessISsESaIS3_EEC2Ev
FN:670,_ZNSt8_Rb_treeISsSt4pairIKSs13datosDeSesionESt10_Select1stIS3_ESt4lessISsESaIS3_EED2Ev
FN:678,_ZNKSt8_Rb_treeISsSt4pairIKSs13datosDeSesionESt10_Select1stIS3_ESt4lessISsESaIS3_EE8key_compEv
FN:682,_ZNSt8_Rb_treeISsSt4pairIKSs13datosDeSesionESt10_Select1stIS3_ESt4lessISsESaIS3_EE5beginEv
FN:696,_ZNSt8_Rb_treeISsSt4pairIKSs13datosDeSesionESt10_Select1stIS3_ESt4lessISsESaIS3_EE3endEv
FN:727,_ZNKSt8_Rb_treeISsSt4pairIKSs13datosDeSesionESt10_Select1stIS3_ESt4lessISsESaIS3_EE4sizeEv
FN:878,_ZNSt8_Rb_treeISsSt4pairIKSs13datosDeSesionESt10_Select1stIS3_ESt4lessISsESaIS3_EE11lower_boundERS1_
FN:1119,_ZNSt8_Rb_treeISsSt4pairIKSs13datosDeSesionESt10_Select1stIS3_ESt4lessISsESaIS3_EE8_M_eraseEPSt13_Rb_tree_nodeIS3_E
FN:1136,_ZNSt8_Rb_treeISsSt4pairIKSs13datosDeSesionESt10_Select1stIS3_ESt4lessISsESaIS3_EE14_M_lower_boundEPSt13_Rb_tree_nodeIS3_ESC_RS1_
FN:1314,_ZNSt8_Rb_treeISsSt4pairIKSs13datosDeSesionESt10_Select1stIS3_ESt4lessISsESaIS3_EE24_M_get_insert_unique_posERS1_
FN:1411,_ZNSt8_Rb_treeISsSt4pairIKSs13datosDeSesionESt10_Select1stIS3_ESt4lessISsESaIS3_EE29_M_get_insert_hint_unique_posESt23_Rb_tree_const_iteratorIS3_ERS1_
FN:1568,_ZNSt8_Rb_treeISsSt4pairIKSs13datosDeSesionESt10_Select1stIS3_ESt4lessISsESaIS3_EE14_M_insert_nodeEPSt18_Rb_tree_node_baseSB_PSt13_Rb_tree_nodeIS3_E
FN:1666,_ZNSt8_Rb_treeISsSt4pairIKSs13datosDeSesionESt10_Select1stIS3_ESt4lessISsESaIS3_EE22_M_emplace_hint_uniqueIIRKSt21piecewise_construct_tSt5tupleIIRS1_EESE_IIEEEEESt17_Rb_tree_iteratorIS3_ESt23_Rb_tree_const_iteratorIS3_EDpOT_
FN:1789,_ZNSt8_Rb_treeISsSt4pairIKSs13datosDeSesionESt10_Select1stIS3_ESt4lessISsESaIS3_EE4findERS1_
FNDA:4,_ZNSt13_Rb_tree_nodeISt4pairIKSs13datosDeSesionEED2Ev
FNDA:4,_ZNSt13_Rb_tree_nodeISt4pairIKSs13datosDeSesionEEC2IIRKSt21piecewise_construct_tSt5tupleIIRS1_EES9_IIEEEEEDpOT_
FNDA:44,_ZNSt17_Rb_tree_iteratorISt4pairIKSs13datosDeSesionEEC2EPSt13_Rb_tree_nodeIS3_E
FNDA:26,_ZNKSt17_Rb_tree_iteratorISt4pairIKSs13datosDeSesionEEdeEv
FNDA:0,_ZNSt17_Rb_tree_iteratorISt4pairIKSs13datosDeSesionEEppEv
FNDA:0,_ZNSt17_Rb_tree_iteratorISt4pairIKSs13datosDeSesionEEmmEv
FNDA:17,_ZNKSt17_Rb_tree_iteratorISt4pairIKSs13datosDeSesionEEeqERKS4_
FNDA:2,_ZNKSt17_Rb_tree_iteratorISt4pairIKSs13datosDeSesionEEneERKS4_
FNDA:4,_ZNSt23_Rb_tree_const_iteratorISt4pairIKSs13datosDeSesionEEC2ERKSt17_Rb_tree_iteratorIS3_E
FNDA:4,_ZNKSt23_Rb_tree_const_iteratorISt4pairIKSs13datosDeSesionEE13_M_const_castEv
FNDA:8,_ZNSt8_Rb_treeISsSt4pairIKSs13datosDeSesionESt10_Select1stIS3_ESt4lessISsESaIS3_EE21_M_get_Node_allocatorEv
FNDA:4,_ZNSt8_Rb_treeISsSt4pairIKSs13datosDeSesionESt10_Select1stIS3_ESt4lessISsESaIS3_EE11_M_get_nodeEv
FNDA:4,_ZNSt8_Rb_treeISsSt4pairIKSs13datosDeSesionESt10_Select1stIS3_ESt4lessISsESaIS3_EE11_M_put_nodeEPSt13_Rb_tree_nodeIS3_E
FNDA:4,_ZNSt8_Rb_treeISsSt4pairIKSs13datosDeSesionESt10_Select1stIS3_ESt4lessISsESaIS3_EE14_M_create_nodeIIRKSt21piecewise_construct_tSt5tupleIIRS1_EESE_IIEEEEEPSt13_Rb_tree_nodeIS3_EDpOT_
FNDA:4,_ZNSt8_Rb_treeISsSt4pairIKSs13datosDeSesionESt10_Select1stIS3_ESt4lessISsESaIS3_EE15_M_destroy_nodeEPSt13_Rb_tree_nodeIS3_E
FNDA:4,_ZNSt8_Rb_treeISsSt4pairIKSs13datosDeSesionESt10_Select1stIS3_ESt4lessISsESaIS3_EE13_Rb_tree_implIS7_Lb1EED2Ev
FNDA:4,_ZNSt8_Rb_treeISsSt4pairIKSs13datosDeSesionESt10_Select1stIS3_ESt4lessISsESaIS3_EE13_Rb_tree_implIS7_Lb1EEC2Ev
FNDA:4,_ZNSt8_Rb_treeISsSt4pairIKSs13datosDeSesionESt10_Select1stIS3_ESt4lessISsESaIS3_EE13_Rb_tree_implIS7_Lb1EE13_M_initializeEv
FNDA:6,_ZNSt8_Rb_treeISsSt4pairIKSs13datosDeSesionESt10_Select1stIS3_ESt4lessISsESaIS3_EE11_M_leftmostEv
FNDA:2,_ZNSt8_Rb_treeISsSt4pairIKSs13datosDeSesionESt10_Select1stIS3_ESt4lessISsESaIS3_EE12_M_rightmostEv
FNDA:21,_ZNSt8_Rb_treeISsSt4pairIKSs13datosDeSesionESt10_Select1stIS3_ESt4lessISsESaIS3_EE8_M_beginEv
FNDA:23,_ZNSt8_Rb_treeISsSt4pairIKSs13datosDeSesionESt10_Select1stIS3_ESt4lessISsESaIS3_EE6_M_endEv
FNDA:31,_ZNSt8_Rb_treeISsSt4pairIKSs13datosDeSesionESt10_Select1stIS3_ESt4lessISsESaIS3_EE8_S_valueEPKSt13_Rb_tree_nodeIS3_E
FNDA:31,_ZNSt8_Rb_treeISsSt4pairIKSs13datosDeSesionESt10_Select1stIS3_ESt4lessISsESaIS3_EE6_S_keyEPKSt13_Rb_tree_nodeIS3_E
FNDA:22,_ZNSt8_Rb_treeISsSt4pairIKSs13datosDeSesionESt10_Select1stIS3_ESt4lessISsESaIS3_EE7_S_leftEPSt18_Rb_tree_node_base
FNDA:12,_ZNSt8_Rb_treeISsSt4pairIKSs13datosDeSesionESt10_Select1stIS3_ESt4lessISsESaIS3_EE8_S_rightEPSt18_Rb_tree_node_base
FNDA:6,_ZNSt8_Rb_treeISsSt4pairIKSs13datosDeSesionESt10_Select1stIS3_ESt4lessISsESaIS3_EE8_S_valueEPKSt18_Rb_tree_node_base
FNDA:6,_ZNSt8_Rb_treeISsSt4pairIKSs13datosDeSesionESt10_Select1stIS3_ESt4lessISsESaIS3_EE6_S_keyEPKSt18_Rb_tree_node_base
FNDA:4,_ZNSt8_Rb_treeISsSt4pairIKSs13datosDeSesionESt10_Select1stIS3_ESt4lessISsESaIS3_EEC2Ev
FNDA:4,_ZNSt8_Rb_treeISsSt4pairIKSs13datosDeSesionESt10_Select1stIS3_ESt4lessISsESaIS3_EED2Ev
FNDA:12,_ZNKSt8_Rb_treeISsSt4pairIKSs13datosDeSesionESt10_Select1stIS3_ESt4lessISsESaIS3_EE8key_compEv
FNDA:1,_ZNSt8_Rb_treeISsSt4pairIKSs13datosDeSesionESt10_Select1stIS3_ESt4lessISsESaIS3_EE5beginEv
FNDA:18,_ZNSt8_Rb_treeISsSt4pairIKSs13datosDeSesionESt10_Select1stIS3_ESt4lessISsESaIS3_EE3endEv
FNDA:2,_ZNKSt8_Rb_treeISsSt4pairIKSs13datosDeSesionESt10_Select1stIS3_ESt4lessISsESaIS3_EE4sizeEv
FNDA:14,_ZNSt8_Rb_treeISsSt4pairIKSs13datosDeSesionESt10_Select1stIS3_ESt4lessISsESaIS3_EE11lower_boundERS1_
FNDA:8,_ZNSt8_Rb_treeISsSt4pairIKSs13datosDeSesionESt10_Select1stIS3_ESt4lessISsESaIS3_EE8_M_eraseEPSt13_Rb_tree_nodeIS3_E
FNDA:16,_ZNSt8_Rb_treeISsSt4pairIKSs13datosDeSesionESt10_Select1stIS3_ESt4lessISsESaIS3_EE14_M_lower_boundEPSt13_Rb_tree_nodeIS3_ESC_RS1_
FNDA:1,_ZNSt8_Rb_treeISsSt4pairIKSs13datosDeSesionESt10_Select1stIS3_ESt4lessISsESaIS3_EE24_M_get_insert_unique_posERS1_
FNDA:4,_ZNSt8_Rb_treeISsSt4pairIKSs13datosDeSesionESt10_Select1stIS3_ESt4lessISsESaIS3_EE29_M_get_insert_hint_unique_posESt23_Rb_tree_const_iteratorIS3_ERS1_
FNDA:4,_ZNSt8_Rb_treeISsSt4pairIKSs13datosDeSesionESt10_Select1stIS3_ESt4lessISsESaIS3_EE14_M_insert_nodeEPSt18_Rb_tree_node_baseSB_PSt13_Rb_tree_nodeIS3_E
FNDA:4,_ZNSt8_Rb_treeISsSt4pairIKSs13datosDeSesionESt10_Select1stIS3_ESt4lessISsESaIS3_EE22_M_emplace_hint_uniqueIIRKSt21piecewise_construct_tSt5tupleIIRS1_EESE_IIEEEEESt17_Rb_tree_iteratorIS3_ESt23_Rb_tree_const_iteratorIS3_EDpOT_
FNDA:2,_ZNSt8_Rb_treeISsSt4pairIKSs13datosDeSesionESt10_Select1stIS3_ESt4lessISsESaIS3_EE4findERS1_
FNF:42
FNH:40
DA:131,4
DA:138,4
DA:140,4
DA:174,44
DA:175,44
DA:178,26
DA:179,26
DA:187,0
DA:189,0
DA:190,0
DA:202,0
DA:204,0
DA:205,0
DA:217,17
DA:218,17
DA:221,2
DA:222,2
DA:250,4
DA:251,4
DA:254,4
DA:256,4
DA:356,8
DA:357,8
DA:369,4
DA:370,4
DA:373,4
DA:374,4
DA:401,4
DA:403,4
DA:406,4
DA:407,4
DA:408,4
DA:410,=====
DA:412,=====
DA:413,=====
DA:415,4
DA:419,4
DA:421,4
DA:422,4
DA:423,4
DA:439,4
DA:445,4
DA:447,4
DA:448,4
DA:464,4
DA:466,4
DA:467,4
DA:468,4
DA:469,4
DA:470,4
DA:485,6
DA:486,6
DA:493,2
DA:494,2
DA:501,21
DA:502,21
DA:512,23
DA:513,23
DA:520,31
DA:521,31
DA:524,31
DA:525,31
DA:528,22
DA:529,22
DA:536,12
DA:537,12
DA:544,6
DA:545,6
DA:548,6
DA:549,6
DA:648,4
DA:670,4
DA:671,4
DA:678,12
DA:679,12
DA:682,1
DA:685,1
DA:696,18
DA:697,18
DA:727,2
DA:728,2
DA:878,14
DA:879,14
DA:1119,8
DA:1123,20
DA:1125,4
DA:1126,4
DA:1127,4
DA:1128,4
DA:1130,8
DA:1136,16
DA:1140,58
DA:1141,26
DA:1142,18
DA:1144,8
DA:1145,16
DA:1314,1
DA:1318,1
DA:1319,1
DA:1320,1
DA:1321,2
DA:1323,0
DA:1324,0
DA:1325,0
DA:1327,1
DA:1328,1
DA:1330,1
DA:1331,1
DA:1333,0
DA:1335,0
DA:1336,0
DA:1337,0
DA:1411,4
DA:1415,4
DA:1419,4
DA:1421,3
DA:1422,1
DA:1423,1
DA:1425,1
DA:1427,2
DA:1430,2
DA:1431,2
DA:1432,2
DA:1433,0
DA:1435,0
DA:1436,0
DA:1438,0
DA:1441,0
DA:1443,0
DA:1446,0
DA:1447,0
DA:1448,0
DA:1449,0
DA:1451,0
DA:1452,0
DA:1454,0
DA:1457,0
DA:1461,0
DA:1568,4
DA:1571,2
DA:1572,1
DA:1573,7
DA:1575,4
DA:1576,4
DA:1577,4
DA:1578,4
DA:1666,4
DA:1669,4
DA:1673,4
DA:1675,4
DA:1676,4
DA:1678,0
DA:1679,0
DA:1681,=====
DA:1683,=====
DA:1684,=====
DA:1789,2
DA:1792,2
DA:1793,8
DA:1794,2
DA:1795,10
LF:161
LH:125
end_of_record
SF:/usr/include/c++/4.8/ext/atomicity.h
FN:48,_ZN9__gnu_cxxL18__exchange_and_addEPVii
FN:65,_ZN9__gnu_cxxL25__exchange_and_add_singleEPii
FN:78,_ZN9__gnu_cxxL27__exchange_and_add_dispatchEPii
FNDA:0,_ZN9__gnu_cxxL18__exchange_and_addEPVii
FNDA:0,_ZN9__gnu_cxxL25__exchange_and_add_singleEPii
FNDA:0,_ZN9__gnu_cxxL27__exchange_and_add_dispatchEPii
FNF:3
FNH:0
DA:48,0
DA:49,0
DA:65,0
DA:67,0
DA:68,0
DA:69,0
DA:78,0
DA:81,0
DA:82,0
DA:84,0
LF:10
LH:0
end_of_record
SF:/usr/include/c++/4.8/ext/new_allocator.h
FN:79,_ZN9__gnu_cxx13new_allocatorIcEC2Ev
FN:79,_ZN9__gnu_cxx13new_allocatorISt13_Rb_tree_nodeISt4pairIKSs13datosDeSesionEEEC2Ev
FN:81,_ZN9__gnu_cxx13new_allocatorIcEC2ERKS1_
FN:86,_ZN9__gnu_cxx13new_allocatorISt13_Rb_tree_nodeISt4pairIKSs13datosDeSesionEEED2Ev
FN:86,_ZN9__gnu_cxx13new_allocatorIcED2Ev
FN:99,_ZN9__gnu_cxx13new_allocatorISt13_Rb_tree_nodeISt4pairIKSs13datosDeSesionEEE8allocateEmPKv
FN:109,_ZN9__gnu_cxx13new_allocatorISt13_Rb_tree_nodeISt4pairIKSs13datosDeSesionEEE10deallocateEPS6_m
FN:113,_ZNK9__gnu_cxx13new_allocatorISt13_Rb_tree_nodeISt4pairIKSs13datosDeSesionEEE8max_sizeEv
FN:119,_ZN9__gnu_cxx13new_allocatorISt13_Rb_tree_nodeISt4pairIKSs13datosDeSesionEEE9constructIS6_IRKSt21piecewise_construct_tSt5tupleIIRS3_EESC_IIEEEEEvPT_DpOT0_
FN:124,_ZN9__gnu_cxx13new_allocatorISt13_Rb_tree_nodeISt4pairIKSs13datosDeSesionEEE7destroyIS6_EEvPT_
FNDA:4,_ZN9__gnu_cxx13new_allocatorISt13_Rb_tree_nodeISt4pairIKSs13datosDeSesionEEEC2Ev
FNDA:0,_ZN9__gnu_cxx13new_allocatorIcEC2Ev
FNDA:0,_ZN9__gnu_cxx13new_allocatorIcEC2ERKS1_
FNDA:4,_ZN9__gnu_cxx13new_allocatorISt13_Rb_tree_nodeISt4pairIKSs13datosDeSesionEEED2Ev
FNDA:0,_ZN9__gnu_cxx13new_allocatorIcED2Ev
FNDA:4,_ZN9__gnu_cxx13new_allocatorISt13_Rb_tree_nodeISt4pairIKSs13datosDeSesionEEE8allocateEmPKv
FNDA:4,_ZN9__gnu_cxx13new_allocatorISt13_Rb_tree_nodeISt4pairIKSs13datosDeSesionEEE10deallocateEPS6_m
FNDA:4,_ZNK9__gnu_cxx13new_allocatorISt13_Rb_tree_nodeISt4pairIKSs13datosDeSesionEEE8max_sizeEv
FNDA:4,_ZN9__gnu_cxx13new_allocatorISt13_Rb_tree_nodeISt4pairIKSs13datosDeSesionEEE9constructIS6_IRKSt21piecewise_construct_tSt5tupleIIRS3_EESC_IIEEEEEvPT_DpOT0_
FNDA:4,_ZN9__gnu_cxx13new_allocatorISt13_Rb_tree_nodeISt4pairIKSs13datosDeSesionEEE7destroyIS6_EEvPT_
FNF:10
FNH:7
DA:79,4
DA:81,0
DA:86,4
DA:99,4
DA:101,4
DA:102,0
DA:104,4
DA:109,4
DA:110,4
DA:113,4
DA:114,4
DA:119,4
DA:120,4
DA:124,4
LF:14
LH:12
end_of_record
SF:/usr/include/c++/4.8/iostream
DA:74,4
LF:1
LH:1
end_of_record
SF:/usr/include/c++/4.8/new
FN:109,_ZnwmPv
FN:115,_ZdlPvS_
FNDA:0,_ZnwmPv
FNDA:0,_ZdlPvS_
FNF:2
FNH:0
DA:109,0
DA:110,0
DA:115,0
LF:3
LH:0
end_of_record
SF:/usr/include/c++/4.8/tuple
FN:134,_ZNSt10_Head_baseILm0ERKSsLb0EEC2ES1_
FN:169,_ZNSt10_Head_baseILm0ERKSsLb0EE7_M_headERS2_
FN:197,_ZNSt11_Tuple_implILm1EIEEC2Ev
FN:241,_ZNSt11_Tuple_implILm0EIRKSsEE7_M_headERS2_
FN:247,_ZNSt11_Tuple_implILm0EIRKSsEE7_M_tailERS2_
FN:256,_ZNSt11_Tuple_implILm0EIRKSsEEC2ES1_
FN:269,_ZNSt11_Tuple_implILm0EIRKSsEEC2EOS2_
FN:399,_ZNSt5tupleIIRKSsEEC2ES1_
FN:411,_ZNSt5tupleIIRKSsEEC2EOS2_
FN:744,_ZSt12__get_helperILm0ERKSsIEENSt9__add_refIT0_E4typeERSt11_Tuple_implIXT_EIS3_DpT1_EE
FN:759,_ZSt3getILm0EIRKSsEENSt9__add_refINSt13tuple_elementIXT_ESt5tupleIIDpT0_EEE4typeEE4typeERS7_
FN:1074,_ZNSt4pairIKSs13datosDeSesionEC2IIRS0_EIEEESt21piecewise_construct_tSt5tupleIIDpT_EES6_IIDpT0_EE
FN:1086,_ZNSt4pairIKSs13datosDeSesionEC2IIRS0_EILm0EEIEIEEERSt5tupleIIDpT_EERS5_IIDpT1_EESt12_Index_tupleIIXspT0_EEESE_IIXspT2_EEE
FNDA:0,_ZNSt10_Head_baseILm0ERKSsLb0EEC2ES1_
FNDA:0,_ZNSt10_Head_baseILm0ERKSsLb0EE7_M_headERS2_
FNDA:0,_ZNSt11_Tuple_implILm1EIEEC2Ev
FNDA:0,_ZNSt11_Tuple_implILm0EIRKSsEE7_M_headERS2_
FNDA:0,_ZNSt11_Tuple_implILm0EIRKSsEE7_M_tailERS2_
FNDA:0,_ZNSt11_Tuple_implILm0EIRKSsEEC2ES1_
FNDA:0,_ZNSt11_Tuple_implILm0EIRKSsEEC2EOS2_
FNDA:0,_ZNSt5tupleIIRKSsEEC2ES1_
FNDA:0,_ZNSt5tupleIIRKSsEEC2EOS2_
FNDA:0,_ZSt12__get_helperILm0ERKSsIEENSt9__add_refIT0_E4typeERSt11_Tuple_implIXT_EIS3_DpT1_EE
FNDA:0,_ZSt3getILm0EIRKSsEENSt9__add_refINSt13tuple_elementIXT_ESt5tupleIIDpT0_EEE4typeEE4typeERS7_
FNDA:4,_ZNSt4pairIKSs13datosDeSesionEC2IIRS0_EIEEESt21piecewise_construct_tSt5tupleIIDpT_EES6_IIDpT0_EE
FNDA:4,_ZNSt4pairIKSs13datosDeSesionEC2IIRS0_EILm0EEIEIEEERSt5tupleIIDpT_EERS5_IIDpT1_EESt12_Index_tupleIIXspT0_EEESE_IIXspT2_EEE
FNF:13
FNH:2
DA:134,0
DA:135,0
DA:169,0
DA:197,0
DA:241,0
DA:247,0
DA:256,0
DA:257,0
DA:269,0
DA:272,0
DA:273,0
DA:399,0
DA:400,0
DA:411,0
DA:744,0
DA:745,0
DA:759,0
DA:760,0
DA:1074,4
DA:1079,4
DA:1080,4
DA:1086,4
DA:1089,4
DA:1090,4
DA:1091,4
LF:25
LH:7
end_of_record
SF:/usr/include/x86_64-linux-gnu/c++/4.8/bits/gthr-default.h
FN:247,_ZL18__gthread_active_pv
FNDA:0,_ZL18__gthread_active_pv
FNF:1
FNH:0
DA:247,0
DA:251,0
LF:2
LH:0
end_of_record
TN:
SF:/home/taller2-appserver/Appserver/src/servicios/MensajeHTTP.cpp
FN:4,_ZN11MensajeHTTPC2Ev
FN:8,_ZN11MensajeHTTPC2EP12http_message
FN:16,_ZN11MensajeHTTP14mg_strToStringER6mg_str
FN:21,_ZN11MensajeHTTP13cargarHeadersEP12http_message
FN:30,_ZN11MensajeHTTP13agregarHeaderESsSs
FN:36,_ZN11MensajeHTTP11tieneHeaderESs
FN:40,_ZN11MensajeHTTP9getHeaderESs
FN:50,_ZN11MensajeHTTP15headersToStringEv
FN:62,_ZN11MensajeHTTP7setBodyESs
FN:67,_ZN11MensajeHTTP7getBodyEv
FN:76,_ZN11MensajeHTTPD2Ev
FN:76,_ZN11MensajeHTTPD0Ev
FN:79,_GLOBAL__sub_I__ZN11MensajeHTTPC2Ev
FN:79,_Z41__static_initialization_and_destruction_0ii
FNDA:45,_ZN11MensajeHTTPC2Ev
FNDA:132,_ZN11MensajeHTTPC2EP12http_message
FNDA:1030,_ZN11MensajeHTTP14mg_strToStringER6mg_str
FNDA:132,_ZN11MensajeHTTP13cargarHeadersEP12http_message
FNDA:406,_ZN11MensajeHTTP13agregarHeaderESsSs
FNDA:142,_ZN11MensajeHTTP11tieneHeaderESs
FNDA:120,_ZN11MensajeHTTP9getHeaderESs
FNDA:34,_ZN11MensajeHTTP15headersToStringEv
FNDA:19,_ZN11MensajeHTTP7setBodyESs
FNDA:36,_ZN11MensajeHTTP7getBodyEv
FNDA:0,_ZN11MensajeHTTPD0Ev
FNDA:218,_ZN11MensajeHTTPD2Ev
FNDA:20,_GLOBAL__sub_I__ZN11MensajeHTTPC2Ev
FNDA:20,_Z41__static_initialization_and_destruction_0ii
FNF:14
FNH:13
DA:4,45
DA:6,45
DA:8,133
DA:9,132
DA:10,132
DA:11,131
DA:16,1030
DA:17,1030
DA:21,132
DA:24,475
DA:26,343
DA:28,132
DA:30,406
DA:31,406
DA:32,406
DA:36,142
DA:37,142
DA:40,120
DA:41,120
DA:42,118
DA:45,2
DA:50,34
DA:51,34
DA:52,119
DA:53,85
DA:54,170
DA:55,85
DA:56,85
DA:57,34
DA:62,19
DA:63,19
DA:64,19
DA:65,19
DA:67,36
DA:68,36
DA:76,218
DA:79,278
LF:37
LH:37
end_of_record
SF:/usr/include/c++/4.8/bits/alloc_traits.h
FN:253,_ZNSt16allocator_traitsISaISt13_Rb_tree_nodeISt4pairIKSsSsEEEE12_S_constructIS4_IRKSt21piecewise_construct_tSt5tupleIIRS2_EESB_IIEEEEENSt9enable_ifIXsrNS6_18__construct_helperIT_IDpT0_EEE5valueEvE4typeERS5_PSH_DpOSI_
FN:391,_ZNSt16allocator_traitsISaISt13_Rb_tree_nodeISt4pairIKSsSsEEEE9constructIS4_IRKSt21piecewise_construct_tSt5tupleIIRS2_EESB_IIEEEEEDTcl12_S_constructfp_fp0_spcl7forwardIT0_Efp1_EEERS5_PT_DpOSF_
FNDA:406,_ZNSt16allocator_traitsISaISt13_Rb_tree_nodeISt4pairIKSsSsEEEE12_S_constructIS4_IRKSt21piecewise_construct_tSt5tupleIIRS2_EESB_IIEEEEENSt9enable_ifIXsrNS6_18__construct_helperIT_IDpT0_EEE5valueEvE4typeERS5_PSH_DpOSI_
FNDA:406,_ZNSt16allocator_traitsISaISt13_Rb_tree_nodeISt4pairIKSsSsEEEE9constructIS4_IRKSt21piecewise_construct_tSt5tupleIIRS2_EESB_IIEEEEEDTcl12_S_constructfp_fp0_spcl7forwardIT0_Efp1_EEERS5_PT_DpOSF_
FNF:2
FNH:2
DA:253,406
DA:254,406
DA:391,406
DA:393,406
LF:4
LH:4
end_of_record
SF:/usr/include/c++/4.8/bits/allocator.h
FN:113,_ZNSaISt13_Rb_tree_nodeISt4pairIKSsSsEEEC2Ev
FN:121,_ZNSaISt13_Rb_tree_nodeISt4pairIKSsSsEEED2Ev
FNDA:177,_ZNSaISt13_Rb_tree_nodeISt4pairIKSsSsEEEC2Ev
FNDA:128,_ZNSaISt13_Rb_tree_nodeISt4pairIKSsSsEEED2Ev
FNF:2
FNH:2
DA:113,177
DA:121,128
LF:2
LH:2
end_of_record
SF:/usr/include/c++/4.8/bits/basic_string.h
FN:272,_ZNSs12_Alloc_hiderD2Ev
FN:272,_ZNSs12_Alloc_hiderC2ERKS_
FN:2365,_ZStplIcSt11char_traitsIcESaIcEESbIT_T0_T1_ERKS6_S8_
FN:2430,_ZStplIcSt11char_traitsIcESaIcEESbIT_T0_T1_EOS6_RKS6_
FN:2466,_ZStplIcSt11char_traitsIcESaIcEESbIT_T0_T1_EOS6_PKS3_
FN:2569,_ZStltIcSt11char_traitsIcESaIcEEbRKSbIT_T0_T1_ES8_
FNDA:0,_ZNSs12_Alloc_hiderC2ERKS_
FNDA:0,_ZNSs12_Alloc_hiderD2Ev
FNDA:799,_ZStplIcSt11char_traitsIcESaIcEESbIT_T0_T1_ERKS6_S8_
FNDA:44,_ZStplIcSt11char_traitsIcESaIcEESbIT_T0_T1_EOS6_RKS6_
FNDA:0,_ZStplIcSt11char_traitsIcESaIcEESbIT_T0_T1_EOS6_PKS3_
FNDA:1130,_ZStltIcSt11char_traitsIcESaIcEEbRKSbIT_T0_T1_ES8_
FNF:6
FNH:3
DA:272,0
DA:2365,799
DA:2368,799
DA:2369,799
DA:2370,799
DA:2430,44
DA:2432,44
DA:2466,0
DA:2468,0
DA:2569,1130
DA:2571,1130
LF:11
LH:8
end_of_record
SF:/usr/include/c++/4.8/bits/char_traits.h
FN:254,_ZNSt11char_traitsIcE7compareEPKcS2_m
FN:258,_ZNSt11char_traitsIcE6lengthEPKc
FNDA:0,_ZNSt11char_traitsIcE7compareEPKcS2_m
FNDA:0,_ZNSt11char_traitsIcE6lengthEPKc
FNF:2
FNH:0
DA:254,0
DA:255,0
DA:258,0
DA:259,0
LF:4
LH:0
end_of_record
SF:/usr/include/c++/4.8/bits/move.h
FN:76,_ZSt7forwardIRKSt21piecewise_construct_tEOT_RNSt16remove_referenceIS3_E4typeE
FN:76,_ZSt7forwardIRPSt13_Rb_tree_nodeISt4pairIKSsSsEEEOT_RNSt16remove_referenceIS7_E4typeE
FN:76,_ZSt7forwardISt5tupleIIEEEOT_RNSt16remove_referenceIS2_E4typeE
FN:76,_ZSt7forwardISt5tupleIIRKSsEEEOT_RNSt16remove_referenceIS4_E4typeE
FN:76,_ZSt7forwardIRPSt18_Rb_tree_node_baseEOT_RNSt16remove_referenceIS3_E4typeE
FN:76,_ZSt7forwardIRKSsEOT_RNSt16remove_referenceIS2_E4typeE
FN:101,_ZSt4moveIRSt11_Tuple_implILm1EIEEEONSt16remove_referenceIT_E4typeEOS4_
FN:101,_ZSt4moveIRSsEONSt16remove_referenceIT_E4typeEOS2_
FNDA:516,_ZSt7forwardIRKSsEOT_RNSt16remove_referenceIS2_E4typeE
FNDA:1026,_ZSt7forwardIRPSt13_Rb_tree_nodeISt4pairIKSsSsEEEOT_RNSt16remove_referenceIS7_E4typeE
FNDA:203,_ZSt7forwardIRPSt18_Rb_tree_node_baseEOT_RNSt16remove_referenceIS3_E4typeE
FNDA:828,_ZSt7forwardISt5tupleIIEEEOT_RNSt16remove_referenceIS2_E4typeE
FNDA:2460,_ZSt7forwardISt5tupleIIRKSsEEEOT_RNSt16remove_referenceIS4_E4typeE
FNDA:828,_ZSt7forwardIRKSt21piecewise_construct_tEOT_RNSt16remove_referenceIS3_E4typeE
FNDA:138,_ZSt4moveIRSt11_Tuple_implILm1EIEEEONSt16remove_referenceIT_E4typeEOS4_
FNDA:0,_ZSt4moveIRSsEONSt16remove_referenceIT_E4typeEOS2_
FNF:8
FNH:7
DA:76,5861
DA:77,5861
DA:101,138
DA:102,138
LF:4
LH:4
end_of_record
SF:/usr/include/c++/4.8/bits/stl_algobase.h
FN:193,_ZSt3minImERKT_S2_S2_
FNDA:0,_ZSt3minImERKT_S2_S2_
FNF:1
FNH:0
DA:193,0
DA:198,0
DA:199,0
DA:200,0
LF:4
LH:0
end_of_record
SF:/usr/include/c++/4.8/bits/stl_function.h
FN:234,_ZNKSt4lessISsEclERKSsS2_
FN:494,_ZNKSt10_Select1stISt4pairIKSsSsEEclERKS2_
FNDA:1125,_ZNKSt4lessISsEclERKSsS2_
FNDA:2201,_ZNKSt10_Select1stISt4pairIKSsSsEEclERKS2_
FNF:2
FNH:2
DA:234,1125
DA:235,1125
DA:494,2201
DA:495,2201
LF:4
LH:4
end_of_record
SF:/usr/include/c++/4.8/bits/stl_map.h
FN:96,_ZNSt3mapISsSsSt4lessISsESaISt4pairIKSsSsEEED2Ev
FN:160,_ZNSt3mapISsSsSt4lessISsESaISt4pairIKSsSsEEEC2Ev
FN:320,_ZNSt3mapISsSsSt4lessISsESaISt4pairIKSsSsEEE5beginEv
FN:338,_ZNSt3mapISsSsSt4lessISsESaISt4pairIKSsSsEEE3endEv
FN:456,_ZNSt3mapISsSsSt4lessISsESaISt4pairIKSsSsEEEixERS3_
FN:797,_ZNKSt3mapISsSsSt4lessISsESaISt4pairIKSsSsEEE8key_compEv
FN:821,_ZNSt3mapISsSsSt4lessISsESaISt4pairIKSsSsEEE4findERS3_
FN:863,_ZNSt3mapISsSsSt4lessISsESaISt4pairIKSsSsEEE11lower_boundERS3_
FNDA:219,_ZNSt3mapISsSsSt4lessISsESaISt4pairIKSsSsEEED2Ev
FNDA:177,_ZNSt3mapISsSsSt4lessISsESaISt4pairIKSsSsEEEC2Ev
FNDA:34,_ZNSt3mapISsSsSt4lessISsESaISt4pairIKSsSsEEE5beginEv
FNDA:785,_ZNSt3mapISsSsSt4lessISsESaISt4pairIKSsSsEEE3endEv
FNDA:524,_ZNSt3mapISsSsSt4lessISsESaISt4pairIKSsSsEEEixERS3_
FNDA:212,_ZNKSt3mapISsSsSt4lessISsESaISt4pairIKSsSsEEE8key_compEv
FNDA:142,_ZNSt3mapISsSsSt4lessISsESaISt4pairIKSsSsEEE4findERS3_
FNDA:524,_ZNSt3mapISsSsSt4lessISsESaISt4pairIKSsSsEEE11lower_boundERS3_
FNF:8
FNH:8
DA:96,219
DA:160,177
DA:161,177
DA:320,34
DA:321,34
DA:338,785
DA:339,785
DA:456,524
DA:461,524
DA:463,524
DA:465,406
DA:471,524
DA:797,212
DA:798,212
DA:821,142
DA:822,142
DA:863,524
DA:864,524
LF:18
LH:18
end_of_record
SF:/usr/include/c++/4.8/bits/stl_pair.h
FN:96,_ZNSt4pairIKSsSsED2Ev
FN:133,_ZNSt4pairIPSt18_Rb_tree_node_baseS1_EC2IRS1_vEEOT_RKS1_
FN:138,_ZNSt4pairIPSt18_Rb_tree_node_baseS1_EC2IRS1_vEERKS1_OT_
FN:144,_ZNSt4pairIPSt18_Rb_tree_node_baseS1_EC2IRS1_S4_vEEOT_OT0_
FN:144,_ZNSt4pairIPSt18_Rb_tree_node_baseS1_EC2IRPSt13_Rb_tree_nodeIS_IKSsSsEES9_vEEOT_OT0_
FNDA:6204,_ZNSt4pairIKSsSsED2Ev
FNDA:0,_ZNSt4pairIPSt18_Rb_tree_node_baseS1_EC2IRS1_vEEOT_RKS1_
FNDA:69,_ZNSt4pairIPSt18_Rb_tree_node_baseS1_EC2IRS1_vEERKS1_OT_
FNDA:513,_ZNSt4pairIPSt18_Rb_tree_node_baseS1_EC2IRPSt13_Rb_tree_nodeIS_IKSsSsEES9_vEEOT_OT0_
FNDA:67,_ZNSt4pairIPSt18_Rb_tree_node_baseS1_EC2IRS1_S4_vEEOT_OT0_
FNF:5
FNH:4
DA:96,6204
DA:133,0
DA:134,0
DA:138,69
DA:139,69
DA:144,580
DA:145,580
LF:7
LH:5
end_of_record
SF:/usr/include/c++/4.8/bits/stl_tree.h
FN:131,_ZNSt13_Rb_tree_nodeISt4pairIKSsSsEED2Ev
FN:138,_ZNSt13_Rb_tree_nodeISt4pairIKSsSsEEC2IIRKSt21piecewise_construct_tSt5tupleIIRS1_EES8_IIEEEEEDpOT_
FN:174,_ZNSt17_Rb_tree_iteratorISt4pairIKSsSsEEC2EPSt13_Rb_tree_nodeIS2_E
FN:178,_ZNKSt17_Rb_tree_iteratorISt4pairIKSsSsEEdeEv
FN:187,_ZNSt17_Rb_tree_iteratorISt4pairIKSsSsEEppEv
FN:202,_ZNSt17_Rb_tree_iteratorISt4pairIKSsSsEEmmEv
FN:217,_ZNKSt17_Rb_tree_iteratorISt4pairIKSsSsEEeqERKS3_
FN:221,_ZNKSt17_Rb_tree_iteratorISt4pairIKSsSsEEneERKS3_
FN:250,_ZNSt23_Rb_tree_const_iteratorISt4pairIKSsSsEEC2ERKSt17_Rb_tree_iteratorIS2_E
FN:254,_ZNKSt23_Rb_tree_const_iteratorISt4pairIKSsSsEE13_M_const_castEv
FN:356,_ZNSt8_Rb_treeISsSt4pairIKSsSsESt10_Select1stIS2_ESt4lessISsESaIS2_EE21_M_get_Node_allocatorEv
FN:369,_ZNSt8_Rb_treeISsSt4pairIKSsSsESt10_Select1stIS2_ESt4lessISsESaIS2_EE11_M_get_nodeEv
FN:373,_ZNSt8_Rb_treeISsSt4pairIKSsSsESt10_Select1stIS2_ESt4lessISsESaIS2_EE11_M_put_nodeEPSt13_Rb_tree_nodeIS2_E
FN:401,_ZNSt8_Rb_treeISsSt4pairIKSsSsESt10_Select1stIS2_ESt4lessISsESaIS2_EE14_M_create_nodeIIRKSt21piecewise_construct_tSt5tupleIIRS1_EESD_IIEEEEEPSt13_Rb_tree_nodeIS2_EDpOT_
FN:419,_ZNSt8_Rb_treeISsSt4pairIKSsSsESt10_Select1stIS2_ESt4lessISsESaIS2_EE15_M_destroy_nodeEPSt13_Rb_tree_nodeIS2_E
FN:439,_ZNSt8_Rb_treeISsSt4pairIKSsSsESt10_Select1stIS2_ESt4lessISsESaIS2_EE13_Rb_tree_implIS6_Lb1EED2Ev
FN:445,_ZNSt8_Rb_treeISsSt4pairIKSsSsESt10_Select1stIS2_ESt4lessISsESaIS2_EE13_Rb_tree_implIS6_Lb1EEC2Ev
FN:464,_ZNSt8_Rb_treeISsSt4pairIKSsSsESt10_Select1stIS2_ESt4lessISsESaIS2_EE13_Rb_tree_implIS6_Lb1EE13_M_initializeEv
FN:485,_ZNSt8_Rb_treeISsSt4pairIKSsSsESt10_Select1stIS2_ESt4lessISsESaIS2_EE11_M_leftmostEv
FN:493,_ZNSt8_Rb_treeISsSt4pairIKSsSsESt10_Select1stIS2_ESt4lessISsESaIS2_EE12_M_rightmostEv
FN:501,_ZNSt8_Rb_treeISsSt4pairIKSsSsESt10_Select1stIS2_ESt4lessISsESaIS2_EE8_M_beginEv
FN:512,_ZNSt8_Rb_treeISsSt4pairIKSsSsESt10_Select1stIS2_ESt4lessISsESaIS2_EE6_M_endEv
FN:520,_ZNSt8_Rb_treeISsSt4pairIKSsSsESt10_Select1stIS2_ESt4lessISsESaIS2_EE8_S_valueEPKSt13_Rb_tree_nodeIS2_E
FN:524,_ZNSt8_Rb_treeISsSt4pairIKSsSsESt10_Select1stIS2_ESt4lessISsESaIS2_EE6_S_keyEPKSt13_Rb_tree_nodeIS2_E
FN:528,_ZNSt8_Rb_treeISsSt4pairIKSsSsESt10_Select1stIS2_ESt4lessISsESaIS2_EE7_S_leftEPSt18_Rb_tree_node_base
FN:536,_ZNSt8_Rb_treeISsSt4pairIKSsSsESt10_Select1stIS2_ESt4lessISsESaIS2_EE8_S_rightEPSt18_Rb_tree_node_base
FN:544,_ZNSt8_Rb_treeISsSt4pairIKSsSsESt10_Select1stIS2_ESt4lessISsESaIS2_EE8_S_valueEPKSt18_Rb_tree_node_base
FN:548,_ZNSt8_Rb_treeISsSt4pairIKSsSsESt10_Select1stIS2_ESt4lessISsESaIS2_EE6_S_keyEPKSt18_Rb_tree_node_base
FN:648,_ZNSt8_Rb_treeISsSt4pairIKSsSsESt10_Select1stIS2_ESt4lessISsESaIS2_EEC2Ev
FN:670,_ZNSt8_Rb_treeISsSt4pairIKSsSsESt10_Select1stIS2_ESt4lessISsESaIS2_EED2Ev
FN:678,_ZNKSt8_Rb_treeISsSt4pairIKSsSsESt10_Select1stIS2_ESt4lessISsESaIS2_EE8key_compEv
FN:682,_ZNSt8_Rb_treeISsSt4pairIKSsSsESt10_Select1stIS2_ESt4lessISsESaIS2_EE5beginEv
FN:696,_ZNSt8_Rb_treeISsSt4pairIKSsSsESt10_Select1stIS2_ESt4lessISsESaIS2_EE3endEv
FN:727,_ZNKSt8_Rb_treeISsSt4pairIKSsSsESt10_Select1stIS2_ESt4lessISsESaIS2_EE4sizeEv
FN:878,_ZNSt8_Rb_treeISsSt4pairIKSsSsESt10_Select1stIS2_ESt4lessISsESaIS2_EE11lower_boundERS1_
FN:1119,_ZNSt8_Rb_treeISsSt4pairIKSsSsESt10_Select1stIS2_ESt4lessISsESaIS2_EE8_M_eraseEPSt13_Rb_tree_nodeIS2_E
FN:1136,_ZNSt8_Rb_treeISsSt4pairIKSsSsESt10_Select1stIS2_ESt4lessISsESaIS2_EE14_M_lower_boundEPSt13_Rb_tree_nodeIS2_ESB_RS1_
FN:1314,_ZNSt8_Rb_treeISsSt4pairIKSsSsESt10_Select1stIS2_ESt4lessISsESaIS2_EE24_M_get_insert_unique_posERS1_
FN:1411,_ZNSt8_Rb_treeISsSt4pairIKSsSsESt10_Select1stIS2_ESt4lessISsESaIS2_EE29_M_get_insert_hint_unique_posESt23_Rb_tree_const_iteratorIS2_ERS1_
FN:1568,_ZNSt8_Rb_treeISsSt4pairIKSsSsESt10_Select1stIS2_ESt4lessISsESaIS2_EE14_M_insert_nodeEPSt18_Rb_tree_node_baseSA_PSt13_Rb_tree_nodeIS2_E
FN:1666,_ZNSt8_Rb_treeISsSt4pairIKSsSsESt10_Select1stIS2_ESt4lessISsESaIS2_EE22_M_emplace_hint_uniqueIIRKSt21piecewise_construct_tSt5tupleIIRS1_EESD_IIEEEEESt17_Rb_tree_iteratorIS2_ESt23_Rb_tree_const_iteratorIS2_EDpOT_
FN:1789,_ZNSt8_Rb_treeISsSt4pairIKSsSsESt10_Select1stIS2_ESt4lessISsESaIS2_EE4findERS1_
FNDA:6204,_ZNSt13_Rb_tree_nodeISt4pairIKSsSsEED2Ev
FNDA:406,_ZNSt13_Rb_tree_nodeISt4pairIKSsSsEEC2IIRKSt21piecewise_construct_tSt5tupleIIRS1_EES8_IIEEEEEDpOT_
FNDA:3587,_ZNSt17_Rb_tree_iteratorISt4pairIKSsSsEEC2EPSt13_Rb_tree_nodeIS2_E
FNDA:906,_ZNKSt17_Rb_tree_iteratorISt4pairIKSsSsEEdeEv
FNDA:85,_ZNSt17_Rb_tree_iteratorISt4pairIKSsSsEEppEv
FNDA:38,_ZNSt17_Rb_tree_iteratorISt4pairIKSsSsEEmmEv
FNDA:1179,_ZNKSt17_Rb_tree_iteratorISt4pairIKSsSsEEeqERKS3_
FNDA:261,_ZNKSt17_Rb_tree_iteratorISt4pairIKSsSsEEneERKS3_
FNDA:406,_ZNSt23_Rb_tree_const_iteratorISt4pairIKSsSsEEC2ERKSt17_Rb_tree_iteratorIS2_E
FNDA:526,_ZNKSt23_Rb_tree_const_iteratorISt4pairIKSsSsEE13_M_const_castEv
FNDA:6476,_ZNSt8_Rb_treeISsSt4pairIKSsSsESt10_Select1stIS2_ESt4lessISsESaIS2_EE21_M_get_Node_allocatorEv
FNDA:272,_ZNSt8_Rb_treeISsSt4pairIKSsSsESt10_Select1stIS2_ESt4lessISsESaIS2_EE11_M_get_nodeEv
FNDA:6204,_ZNSt8_Rb_treeISsSt4pairIKSsSsESt10_Select1stIS2_ESt4lessISsESaIS2_EE11_M_put_nodeEPSt13_Rb_tree_nodeIS2_E
FNDA:406,_ZNSt8_Rb_treeISsSt4pairIKSsSsESt10_Select1stIS2_ESt4lessISsESaIS2_EE14_M_create_nodeIIRKSt21piecewise_construct_tSt5tupleIIRS1_EESD_IIEEEEEPSt13_Rb_tree_nodeIS2_EDpOT_
FNDA:6204,_ZNSt8_Rb_treeISsSt4pairIKSsSsESt10_Select1stIS2_ESt4lessISsESaIS2_EE15_M_destroy_nodeEPSt13_Rb_tree_nodeIS2_E
FNDA:128,_ZNSt8_Rb_treeISsSt4pairIKSsSsESt10_Select1stIS2_ESt4lessISsESaIS2_EE13_Rb_tree_implIS6_Lb1EED2Ev
FNDA:177,_ZNSt8_Rb_treeISsSt4pairIKSsSsESt10_Select1stIS2_ESt4lessISsESaIS2_EE13_Rb_tree_implIS6_Lb1EEC2Ev
FNDA:128,_ZNSt8_Rb_treeISsSt4pairIKSsSsESt10_Select1stIS2_ESt4lessISsESaIS2_EE13_Rb_tree_implIS6_Lb1EE13_M_initializeEv
FNDA:48,_ZNSt8_Rb_treeISsSt4pairIKSsSsESt10_Select1stIS2_ESt4lessISsESaIS2_EE11_M_leftmostEv
FNDA:256,_ZNSt8_Rb_treeISsSt4pairIKSsSsESt10_Select1stIS2_ESt4lessISsESaIS2_EE12_M_rightmostEv
FNDA:1411,_ZNSt8_Rb_treeISsSt4pairIKSsSsESt10_Select1stIS2_ESt4lessISsESaIS2_EE8_M_beginEv
FNDA:1516,_ZNSt8_Rb_treeISsSt4pairIKSsSsESt10_Select1stIS2_ESt4lessISsESaIS2_EE6_M_endEv
FNDA:1594,_ZNSt8_Rb_treeISsSt4pairIKSsSsESt10_Select1stIS2_ESt4lessISsESaIS2_EE8_S_valueEPKSt13_Rb_tree_nodeIS2_E
FNDA:1594,_ZNSt8_Rb_treeISsSt4pairIKSsSsESt10_Select1stIS2_ESt4lessISsESaIS2_EE6_S_keyEPKSt13_Rb_tree_nodeIS2_E
FNDA:6348,_ZNSt8_Rb_treeISsSt4pairIKSsSsESt10_Select1stIS2_ESt4lessISsESaIS2_EE7_S_leftEPSt18_Rb_tree_node_base
FNDA:6396,_ZNSt8_Rb_treeISsSt4pairIKSsSsESt10_Select1stIS2_ESt4lessISsESaIS2_EE8_S_rightEPSt18_Rb_tree_node_base
FNDA:607,_ZNSt8_Rb_treeISsSt4pairIKSsSsESt10_Select1stIS2_ESt4lessISsESaIS2_EE8_S_valueEPKSt18_Rb_tree_node_base
FNDA:607,_ZNSt8_Rb_treeISsSt4pairIKSsSsESt10_Select1stIS2_ESt4lessISsESaIS2_EE6_S_keyEPKSt18_Rb_tree_node_base
FNDA:177,_ZNSt8_Rb_treeISsSt4pairIKSsSsESt10_Select1stIS2_ESt4lessISsESaIS2_EEC2Ev
FNDA:219,_ZNSt8_Rb_treeISsSt4pairIKSsSsESt10_Select1stIS2_ESt4lessISsESaIS2_EED2Ev
FNDA:212,_ZNKSt8_Rb_treeISsSt4pairIKSsSsESt10_Select1stIS2_ESt4lessISsESaIS2_EE8key_compEv
FNDA:547,_ZNSt8_Rb_treeISsSt4pairIKSsSsESt10_Select1stIS2_ESt4lessISsESaIS2_EE5beginEv
FNDA:929,_ZNSt8_Rb_treeISsSt4pairIKSsSsESt10_Select1stIS2_ESt4lessISsESaIS2_EE3endEv
FNDA:432,_ZNKSt8_Rb_treeISsSt4pairIKSsSsESt10_Select1stIS2_ESt4lessISsESaIS2_EE4sizeEv
FNDA:524,_ZNSt8_Rb_treeISsSt4pairIKSsSsESt10_Select1stIS2_ESt4lessISsESaIS2_EE11lower_boundERS1_
FNDA:11570,_ZNSt8_Rb_treeISsSt4pairIKSsSsESt10_Select1stIS2_ESt4lessISsESaIS2_EE8_M_eraseEPSt13_Rb_tree_nodeIS2_E
FNDA:666,_ZNSt8_Rb_treeISsSt4pairIKSsSsESt10_Select1stIS2_ESt4lessISsESaIS2_EE14_M_lower_boundEPSt13_Rb_tree_nodeIS2_ESB_RS1_
FNDA:513,_ZNSt8_Rb_treeISsSt4pairIKSsSsESt10_Select1stIS2_ESt4lessISsESaIS2_EE24_M_get_insert_unique_posERS1_
FNDA:526,_ZNSt8_Rb_treeISsSt4pairIKSsSsESt10_Select1stIS2_ESt4lessISsESaIS2_EE29_M_get_insert_hint_unique_posESt23_Rb_tree_const_iteratorIS2_ERS1_
FNDA:406,_ZNSt8_Rb_treeISsSt4pairIKSsSsESt10_Select1stIS2_ESt4lessISsESaIS2_EE14_M_insert_nodeEPSt18_Rb_tree_node_baseSA_PSt13_Rb_tree_nodeIS2_E
FNDA:406,_ZNSt8_Rb_treeISsSt4pairIKSsSsESt10_Select1stIS2_ESt4lessISsESaIS2_EE22_M_emplace_hint_uniqueIIRKSt21piecewise_construct_tSt5tupleIIRS1_EESD_IIEEEEESt17_Rb_tree_iteratorIS2_ESt23_Rb_tree_const_iteratorIS2_EDpOT_
FNDA:142,_ZNSt8_Rb_treeISsSt4pairIKSsSsESt10_Select1stIS2_ESt4lessISsESaIS2_EE4findERS1_
FNF:42
FNH:42
DA:131,6204
DA:138,406
DA:140,406
DA:174,3587
DA:175,3587
DA:178,906
DA:179,906
DA:187,85
DA:189,85
DA:190,85
DA:202,38
DA:204,38
DA:205,38
DA:217,1179
DA:218,1179
DA:221,261
DA:222,261
DA:250,406
DA:251,406
DA:254,526
DA:256,526
DA:356,6476
DA:357,6476
DA:369,272
DA:370,272
DA:373,6204
DA:374,6204
DA:401,406
DA:403,406
DA:406,406
DA:407,406
DA:408,406
DA:410,=====
DA:412,=====
DA:413,=====
DA:415,406
DA:419,6204
DA:421,6204
DA:422,6204
DA:423,6204
DA:439,128
DA:445,177
DA:447,177
DA:448,177
DA:464,128
DA:466,128
DA:467,128
DA:468,128
DA:469,128
DA:470,128
DA:485,48
DA:486,48
DA:493,256
DA:494,256
DA:501,1411
DA:502,1411
DA:512,1516
DA:513,1516
DA:520,1594
DA:521,1594
DA:524,1594
DA:525,1594
DA:528,6348
DA:529,6348
DA:536,6396
DA:537,6396
DA:544,607
DA:545,607
DA:548,607
DA:549,607
DA:648,177
DA:670,219
DA:671,219
DA:678,212
DA:679,212
DA:682,547
DA:685,547
DA:696,929
DA:697,929
DA:727,432
DA:728,432
DA:878,524
DA:879,524
DA:1119,11570
DA:1123,29344
DA:1125,6204
DA:1126,6204
DA:1127,6204
DA:1128,6204
DA:1130,11570
DA:1136,666
DA:1140,2346
DA:1141,1014
DA:1142,457
DA:1144,557
DA:1145,666
DA:1314,513
DA:1318,513
DA:1319,513
DA:1320,513
DA:1321,1026
DA:1323,0
DA:1324,0
DA:1325,0
DA:1327,513
DA:1328,513
DA:1330,513
DA:1331,513
DA:1333,0
DA:1335,0
DA:1336,0
DA:1337,0
DA:1411,526
DA:1415,526
DA:1419,526
DA:1421,591
DA:1422,159
DA:1423,159
DA:1425,273
DA:1427,94
DA:1430,94
DA:1431,94
DA:1432,56
DA:1433,38
DA:1435,38
DA:1436,15
DA:1438,23
DA:1441,0
DA:1443,0
DA:1446,0
DA:1447,0
DA:1448,0
DA:1449,0
DA:1451,0
DA:1452,0
DA:1454,0
DA:1457,0
DA:1461,0
DA:1568,406
DA:1571,327
DA:1572,174
DA:1573,907
DA:1575,406
DA:1576,406
DA:1577,406
DA:1578,406
DA:1666,406
DA:1669,406
DA:1673,406
DA:1675,406
DA:1676,406
DA:1678,0
DA:1679,0
DA:1681,=====
DA:1683,=====
DA:1684,=====
DA:1789,142
DA:1792,142
DA:1793,568
DA:1794,142
DA:1795,710
LF:161
LH:135
end_of_record
SF:/usr/include/c++/4.8/ext/atomicity.h
FN:48,_ZN9__gnu_cxxL18__exchange_and_addEPVii
FN:65,_ZN9__gnu_cxxL25__exchange_and_add_singleEPii
FN:78,_ZN9__gnu_cxxL27__exchange_and_add_dispatchEPii
FNDA:0,_ZN9__gnu_cxxL18__exchange_and_addEPVii
FNDA:0,_ZN9__gnu_cxxL25__exchange_and_add_singleEPii
FNDA:0,_ZN9__gnu_cxxL27__exchange_and_add_dispatchEPii
FNF:3
FNH:0
DA:48,0
DA:49,0
DA:65,0
DA:67,0
DA:68,0
DA:69,0
DA:78,0
DA:81,0
DA:82,0
DA:84,0
LF:10
LH:0
end_of_record
SF:/usr/include/c++/4.8/ext/new_allocator.h
FN:79,_ZN9__gnu_cxx13new_allocatorIcEC2Ev
FN:79,_ZN9__gnu_cxx13new_allocatorISt13_Rb_tree_nodeISt4pairIKSsSsEEEC2Ev
FN:81,_ZN9__gnu_cxx13new_allocatorIcEC2ERKS1_
FN:86,_ZN9__gnu_cxx13new_allocatorISt13_Rb_tree_nodeISt4pairIKSsSsEEED2Ev
FN:86,_ZN9__gnu_cxx13new_allocatorIcED2Ev
FN:99,_ZN9__gnu_cxx13new_allocatorISt13_Rb_tree_nodeISt4pairIKSsSsEEE8allocateEmPKv
FN:109,_ZN9__gnu_cxx13new_allocatorISt13_Rb_tree_nodeISt4pairIKSsSsEEE10deallocateEPS5_m
FN:113,_ZNK9__gnu_cxx13new_allocatorISt13_Rb_tree_nodeISt4pairIKSsSsEEE8max_sizeEv
FN:119,_ZN9__gnu_cxx13new_allocatorISt13_Rb_tree_nodeISt4pairIKSsSsEEE9constructIS5_IRKSt21piecewise_construct_tSt5tupleIIRS3_EESB_IIEEEEEvPT_DpOT0_
FN:124,_ZN9__gnu_cxx13new_allocatorISt13_Rb_tree_nodeISt4pairIKSsSsEEE7destroyIS5_EEvPT_
FNDA:177,_ZN9__gnu_cxx13new_allocatorISt13_Rb_tree_nodeISt4pairIKSsSsEEEC2Ev
FNDA:0,_ZN9__gnu_cxx13new_allocatorIcEC2Ev
FNDA:0,_ZN9__gnu_cxx13new_allocatorIcEC2ERKS1_
FNDA:128,_ZN9__gnu_cxx13new_allocatorISt13_Rb_tree_nodeISt4pairIKSsSsEEED2Ev
FNDA:0,_ZN9__gnu_cxx13new_allocatorIcED2Ev
FNDA:272,_ZN9__gnu_cxx13new_allocatorISt13_Rb_tree_nodeISt4pairIKSsSsEEE8allocateEmPKv
FNDA:6204,_ZN9__gnu_cxx13new_allocatorISt13_Rb_tree_nodeISt4pairIKSsSsEEE10deallocateEPS5_m
FNDA:272,_ZNK9__gnu_cxx13new_allocatorISt13_Rb_tree_nodeISt4pairIKSsSsEEE8max_sizeEv
FNDA:406,_ZN9__gnu_cxx13new_allocatorISt13_Rb_tree_nodeISt4pairIKSsSsEEE9constructIS5_IRKSt21piecewise_construct_tSt5tupleIIRS3_EESB_IIEEEEEvPT_DpOT0_
FNDA:6204,_ZN9__gnu_cxx13new_allocatorISt13_Rb_tree_nodeISt4pairIKSsSsEEE7destroyIS5_EEvPT_
FNF:10
FNH:7
DA:79,177
DA:81,0
DA:86,128
DA:99,272
DA:101,272
DA:102,0
DA:104,272
DA:109,6204
DA:110,6204
DA:113,272
DA:114,272
DA:119,406
DA:120,406
DA:124,6204
LF:14
LH:12
end_of_record
SF:/usr/include/c++/4.8/iostream
DA:74,20
LF:1
LH:1
end_of_record
SF:/usr/include/c++/4.8/new
FN:109,_ZnwmPv
FN:115,_ZdlPvS_
FNDA:0,_ZnwmPv
FNDA:0,_ZdlPvS_
FNF:2
FNH:0
DA:109,0
DA:110,0
DA:115,0
LF:3
LH:0
end_of_record
SF:/usr/include/c++/4.8/tuple
FN:134,_ZNSt10_Head_baseILm0ERKSsLb0EEC2ES1_
FN:169,_ZNSt10_Head_baseILm0ERKSsLb0EE7_M_headERS2_
FN:197,_ZNSt11_Tuple_implILm1EIEEC2Ev
FN:241,_ZNSt11_Tuple_implILm0EIRKSsEE7_M_headERS2_
FN:247,_ZNSt11_Tuple_implILm0EIRKSsEE7_M_tailERS2_
FN:256,_ZNSt11_Tuple_implILm0EIRKSsEEC2ES1_
FN:269,_ZNSt11_Tuple_implILm0EIRKSsEEC2EOS2_
FN:399,_ZNSt5tupleIIRKSsEEC2ES1_
FN:411,_ZNSt5tupleIIRKSsEEC2EOS2_
FN:744,_ZSt12__get_helperILm0ERKSsIEENSt9__add_refIT0_E4typeERSt11_Tuple_implIXT_EIS3_DpT1_EE
FN:759,_ZSt3getILm0EIRKSsEENSt9__add_refINSt13tuple_elementIXT_ESt5tupleIIDpT0_EEE4typeEE4typeERS7_
FN:1074,_ZNSt4pairIKSsSsEC2IIRS0_EIEEESt21piecewise_construct_tSt5tupleIIDpT_EES5_IIDpT0_EE
FN:1086,_ZNSt4pairIKSsSsEC2IIRS0_EILm0EEIEIEEERSt5tupleIIDpT_EERS4_IIDpT1_EESt12_Index_tupleIIXspT0_EEESD_IIXspT2_EEE
FNDA:820,_ZNSt10_Head_baseILm0ERKSsLb0EEC2ES1_
FNDA:820,_ZNSt10_Head_baseILm0ERKSsLb0EE7_M_headERS2_
FNDA:138,_ZNSt11_Tuple_implILm1EIEEC2Ev
FNDA:820,_ZNSt11_Tuple_implILm0EIRKSsEE7_M_headERS2_
FNDA:410,_ZNSt11_Tuple_implILm0EIRKSsEE7_M_tailERS2_
FNDA:410,_ZNSt11_Tuple_implILm0EIRKSsEEC2ES1_
FNDA:410,_ZNSt11_Tuple_implILm0EIRKSsEEC2EOS2_
FNDA:410,_ZNSt5tupleIIRKSsEEC2ES1_
FNDA:410,_ZNSt5tupleIIRKSsEEC2EOS2_
FNDA:410,_ZSt12__get_helperILm0ERKSsIEENSt9__add_refIT0_E4typeERSt11_Tuple_implIXT_EIS3_DpT1_EE
FNDA:410,_ZSt3getILm0EIRKSsEENSt9__add_refINSt13tuple_elementIXT_ESt5tupleIIDpT0_EEE4typeEE4typeERS7_
FNDA:406,_ZNSt4pairIKSsSsEC2IIRS0_EIEEESt21piecewise_construct_tSt5tupleIIDpT_EES5_IIDpT0_EE
FNDA:406,_ZNSt4pairIKSsSsEC2IIRS0_EILm0EEIEIEEERSt5tupleIIDpT_EERS4_IIDpT1_EESt12_Index_tupleIIXspT0_EEESD_IIXspT2_EEE
FNF:13
FNH:13
DA:134,820
DA:135,820
DA:169,820
DA:197,138
DA:241,820
DA:247,410
DA:256,410
DA:257,410
DA:269,410
DA:272,410
DA:273,410
DA:399,410
DA:400,410
DA:411,410
DA:744,410
DA:745,410
DA:759,410
DA:760,410
DA:1074,406
DA:1079,406
DA:1080,406
DA:1086,406
DA:1089,406
DA:1090,406
DA:1091,406
LF:25
LH:25
end_of_record
SF:/usr/include/x86_64-linux-gnu/c++/4.8/bits/gthr-default.h
FN:247,_ZL18__gthread_active_pv
FNDA:0,_ZL18__gthread_active_pv
FNF:1
FNH:0
DA:247,0
DA:251,0
LF:2
LH:0
end_of_record
TN:
SF:/home/taller2-appserver/Appserver/src/servicios/Conversaciones.cpp
FN:5,_ZN14ConversacionesC2ESs
FN:9,_ZN14ConversacionesD0Ev
FN:9,_ZN14ConversacionesD2Ev
FN:14,_ZN14Conversaciones28obtenerTodosLosMensajesEntreESsSs
FN:20,_ZN14Conversaciones33obtenerCantidadMensajesDesdeEntreEiiSsSs
FN:43,_ZN14Conversaciones26armarClaveDeLaConversacionERSsS0_S0_
FN:52,_ZN14Conversaciones19guardarConversacionERSsS0_R8Mensajes
FN:59,_ZN14Conversaciones20agregarMensajeDeParaERSsS0_S0_
FN:68,_GLOBAL__sub_I__ZN14ConversacionesC2ESs
FN:68,_Z41__static_initialization_and_destruction_0ii
FNDA:100,_ZN14ConversacionesC2ESs
FNDA:100,_ZN14ConversacionesD0Ev
FNDA:100,_ZN14ConversacionesD2Ev
FNDA:403,_ZN14Conversaciones28obtenerTodosLosMensajesEntreESsSs
FNDA:113,_ZN14Conversaciones33obtenerCantidadMensajesDesdeEntreEiiSsSs
FNDA:693,_ZN14Conversaciones26armarClaveDeLaConversacionERSsS0_S0_
FNDA:290,_ZN14Conversaciones19guardarConversacionERSsS0_R8Mensajes
FNDA:290,_ZN14Conversaciones20agregarMensajeDeParaERSsS0_S0_
FNDA:20,_GLOBAL__sub_I__ZN14ConversacionesC2ESs
FNDA:20,_Z41__static_initialization_and_destruction_0ii
FNF:10
FNH:10
DA:5,100
DA:6,100
DA:7,100
DA:9,200
DA:10,100
DA:11,200
DA:14,403
DA:15,403
DA:16,403
DA:17,403
DA:20,113
DA:22,113
DA:23,113
DA:25,113
DA:27,113
DA:28,113
DA:29,22
DA:31,380
DA:33,267
DA:36,113
DA:43,693
DA:44,693
DA:45,373
DA:48,320
DA:50,693
DA:52,290
DA:53,290
DA:54,290
DA:55,290
DA:56,290
DA:59,290
DA:64,290
DA:65,290
DA:66,290
DA:68,350
LF:35
LH:35
end_of_record
SF:/usr/include/c++/4.8/bits/basic_string.h
FN:272,_ZNSs12_Alloc_hiderD2Ev
FN:272,_ZNSs12_Alloc_hiderC2ERKS_
FN:2402,_ZStplIcSt11char_traitsIcESaIcEESbIT_T0_T1_ERKS6_PKS3_
FN:2430,_ZStplIcSt11char_traitsIcESaIcEESbIT_T0_T1_EOS6_RKS6_
FN:2569,_ZStltIcSt11char_traitsIcESaIcEEbRKSbIT_T0_T1_ES8_
FNDA:0,_ZNSs12_Alloc_hiderC2ERKS_
FNDA:0,_ZNSs12_Alloc_hiderD2Ev
FNDA:5,_ZStplIcSt11char_traitsIcESaIcEESbIT_T0_T1_ERKS6_PKS3_
FNDA:0,_ZStplIcSt11char_traitsIcESaIcEESbIT_T0_T1_EOS6_RKS6_
FNDA:0,_ZStltIcSt11char_traitsIcESaIcEEbRKSbIT_T0_T1_ES8_
FNF:5
FNH:1
DA:272,0
DA:2402,5
DA:2405,5
DA:2406,5
DA:2407,5
DA:2430,0
DA:2432,0
DA:2569,0
DA:2571,0
LF:9
LH:4
end_of_record
SF:/usr/include/c++/4.8/bits/char_traits.h
FN:254,_ZNSt11char_traitsIcE7compareEPKcS2_m
FN:258,_ZNSt11char_traitsIcE6lengthEPKc
FNDA:0,_ZNSt11char_traitsIcE7compareEPKcS2_m
FNDA:0,_ZNSt11char_traitsIcE6lengthEPKc
FNF:2
FNH:0
DA:254,0
DA:255,0
DA:258,0
DA:259,0
LF:4
LH:0
end_of_record
SF:/usr/include/c++/4.8/bits/move.h
FN:101,_ZSt4moveIRSsEONSt16remove_referenceIT_E4typeEOS2_
FNDA:0,_ZSt4moveIRSsEONSt16remove_referenceIT_E4typeEOS2_
FNF:1
FNH:0
DA:101,0
DA:102,0
LF:2
LH:0
end_of_record
SF:/usr/include/c++/4.8/bits/stl_algobase.h
FN:193,_ZSt3minImERKT_S2_S2_
FNDA:0,_ZSt3minImERKT_S2_S2_
FNF:1
FNH:0
DA:193,0
DA:198,0
DA:199,0
DA:200,0
LF:4
LH:0
end_of_record
SF:/usr/include/c++/4.8/ext/atomicity.h
FN:48,_ZN9__gnu_cxxL18__exchange_and_addEPVii
FN:65,_ZN9__gnu_cxxL25__exchange_and_add_singleEPii
FN:78,_ZN9__gnu_cxxL27__exchange_and_add_dispatchEPii
FNDA:0,_ZN9__gnu_cxxL18__exchange_and_addEPVii
FNDA:0,_ZN9__gnu_cxxL25__exchange_and_add_singleEPii
FNDA:0,_ZN9__gnu_cxxL27__exchange_and_add_dispatchEPii
FNF:3
FNH:0
DA:48,0
DA:49,0
DA:65,0
DA:67,0
DA:68,0
DA:69,0
DA:78,0
DA:81,0
DA:82,0
DA:84,0
LF:10
LH:0
end_of_record
SF:/usr/include/c++/4.8/ext/new_allocator.h
FN:79,_ZN9__gnu_cxx13new_allocatorIcEC2Ev
FN:81,_ZN9__gnu_cxx13new_allocatorIcEC2ERKS1_
FN:86,_ZN9__gnu_cxx13new_allocatorIcED2Ev
FNDA:0,_ZN9__gnu_cxx13new_allocatorIcEC2Ev
FNDA:0,_ZN9__gnu_cxx13new_allocatorIcEC2ERKS1_
FNDA:0,_ZN9__gnu_cxx13new_allocatorIcED2Ev
FNF:3
FNH:0
DA:79,0
DA:81,0
DA:86,0
LF:3
LH:0
end_of_record
SF:/usr/include/c++/4.8/iostream
DA:74,20
LF:1
LH:1
end_of_record
SF:/usr/include/x86_64-linux-gnu/c++/4.8/bits/gthr-default.h
FN:247,_ZL18__gthread_active_pv
FNDA:0,_ZL18__gthread_active_pv
FNF:1
FNH:0
DA:247,0
DA:251,0
LF:2
LH:0
end_of_record
TN:
SF:/home/taller2-appserver/Appserver/src/servicios/FactoryServicios.cpp
FN:3,_ZN16FactoryServiciosC2EP21ManejadorDeConexiones
FN:13,_ZN16FactoryServiciosD0Ev
FN:13,_ZN16FactoryServiciosD2Ev
FN:22,_ZN16FactoryServicios16fabricarServicioE18MensajeHTTPRequest
FN:74,_ZN16FactoryServicios18compararMetodoHTTPER18MensajeHTTPRequestSs
FN:79,_ZN16FactoryServicios15compararUriHTTPER18MensajeHTTPRequestSs
FN:81,_Z41__static_initialization_and_destruction_0ii
FN:81,_GLOBAL__sub_I__ZN16FactoryServiciosC2EP21ManejadorDeConexiones
FNDA:4,_ZN16FactoryServiciosC2EP21ManejadorDeConexiones
FNDA:0,_ZN16FactoryServiciosD0Ev
FNDA:4,_ZN16FactoryServiciosD2Ev
FNDA:18,_ZN16FactoryServicios16fabricarServicioE18MensajeHTTPRequest
FNDA:44,_ZN16FactoryServicios18compararMetodoHTTPER18MensajeHTTPRequestSs
FNDA:15,_ZN16FactoryServicios15compararUriHTTPER18MensajeHTTPRequestSs
FNDA:4,_GLOBAL__sub_I__ZN16FactoryServiciosC2EP21ManejadorDeConexiones
FNDA:4,_Z41__static_initialization_and_destruction_0ii
FNF:8
FNH:7
DA:3,4
DA:4,4
DA:5,4
DA:6,4
DA:7,4
DA:9,4
DA:10,4
DA:11,4
DA:13,4
DA:14,4
DA:15,4
DA:16,4
DA:17,4
DA:18,4
DA:19,4
DA:22,18
DA:25,18
DA:27,18
DA:28,2
DA:32,2
DA:35,16
DA:36,10
DA:39,9
DA:41,1
DA:45,1
DA:47,0
DA:48,0
DA:51,6
DA:52,2
DA:56,2
DA:59,4
DA:60,4
DA:63,18
DA:64,14
DA:65,14
DA:68,4
DA:70,18
DA:74,44
DA:75,44
DA:79,15
DA:80,15
DA:81,12
LF:42
LH:40
end_of_record
SF:/home/taller2-appserver/Appserver/src/servicios/MensajeHTTP.h
FN:11,_ZN11MensajeHTTPC2ERKS_
FNDA:0,_ZN11MensajeHTTPC2ERKS_
FNF:1
FNH:0
DA:11,0
LF:1
LH:0
end_of_record
SF:/home/taller2-appserver/Appserver/src/servicios/MensajeHTTPRequest.h
FN:9,_ZN18MensajeHTTPRequestC2ERKS_
FNDA:0,_ZN18MensajeHTTPRequestC2ERKS_
FNF:1
FNH:0
DA:9,0
LF:1
LH:0
end_of_record
SF:/usr/include/c++/4.8/bits/alloc_traits.h
FN:253,_ZNSt16allocator_traitsISaISt13_Rb_tree_nodeISt4pairIKSsSsEEEE12_S_constructIS4_IRKS3_EEENSt9enable_ifIXsrNS6_18__construct_helperIT_IDpT0_EEE5valueEvE4typeERS5_PSC_DpOSD_
FN:391,_ZNSt16allocator_traitsISaISt13_Rb_tree_nodeISt4pairIKSsSsEEEE9constructIS4_IRKS3_EEEDTcl12_S_constructfp_fp0_spcl7forwardIT0_Efp1_EEERS5_PT_DpOSA_
FNDA:0,_ZNSt16allocator_traitsISaISt13_Rb_tree_nodeISt4pairIKSsSsEEEE12_S_constructIS4_IRKS3_EEENSt9enable_ifIXsrNS6_18__construct_helperIT_IDpT0_EEE5valueEvE4typeERS5_PSC_DpOSD_
FNDA:0,_ZNSt16allocator_traitsISaISt13_Rb_tree_nodeISt4pairIKSsSsEEEE9constructIS4_IRKS3_EEEDTcl12_S_constructfp_fp0_spcl7forwardIT0_Efp1_EEERS5_PT_DpOSA_
FNF:2
FNH:0
DA:253,0
DA:254,0
DA:391,0
DA:393,0
LF:4
LH:0
end_of_record
SF:/usr/include/c++/4.8/bits/allocator.h
FN:115,_ZNSaISt13_Rb_tree_nodeISt4pairIKSsSsEEEC2ERKS4_
FN:121,_ZNSaISt13_Rb_tree_nodeISt4pairIKSsSsEEED2Ev
FNDA:0,_ZNSaISt13_Rb_tree_nodeISt4pairIKSsSsEEEC2ERKS4_
FNDA:0,_ZNSaISt13_Rb_tree_nodeISt4pairIKSsSsEEED2Ev
FNF:2
FNH:0
DA:115,0
DA:116,0
DA:121,0
LF:3
LH:0
end_of_record
SF:/usr/include/c++/4.8/bits/basic_string.h
FN:272,_ZNSs12_Alloc_hiderD2Ev
FN:2493,_ZSteqIcEN9__gnu_cxx11__enable_ifIXsrSt9__is_charIT_E7__valueEbE6__typeERKSbIS3_St11char_traitsIS3_ESaIS3_EESC_
FNDA:0,_ZNSs12_Alloc_hiderD2Ev
FNDA:138,_ZSteqIcEN9__gnu_cxx11__enable_ifIXsrSt9__is_charIT_E7__valueEbE6__typeERKSbIS3_St11char_traitsIS3_ESaIS3_EESC_
FNF:2
FNH:1
DA:272,0
DA:2493,138
DA:2495,138
DA:2497,138
LF:4
LH:3
end_of_record
SF:/usr/include/c++/4.8/bits/char_traits.h
FN:254,_ZNSt11char_traitsIcE7compareEPKcS2_m
FNDA:112,_ZNSt11char_traitsIcE7compareEPKcS2_m
FNF:1
FNH:1
DA:254,112
DA:255,112
LF:2
LH:2
end_of_record
SF:/usr/include/c++/4.8/bits/move.h
FN:76,_ZSt7forwardIRKSt4pairIKSsSsEEOT_RNSt16remove_referenceIS5_E4typeE
FNDA:0,_ZSt7forwardIRKSt4pairIKSsSsEEOT_RNSt16remove_referenceIS5_E4typeE
FNF:1
FNH:0
DA:76,0
DA:77,0
LF:2
LH:0
end_of_record
SF:/usr/include/c++/4.8/bits/stl_map.h
FN:180,_ZNSt3mapISsSsSt4lessISsESaISt4pairIKSsSsEEEC2ERKS6_
FNDA:0,_ZNSt3mapISsSsSt4lessISsESaISt4pairIKSsSsEEEC2ERKS6_
FNF:1
FNH:0
DA:180,0
DA:181,0
LF:2
LH:0
end_of_record
SF:/usr/include/c++/4.8/bits/stl_pair.h
FN:96,_ZNSt4pairIKSsSsED2Ev
FN:127,_ZNSt4pairIKSsSsEC2ERKS1_
FNDA:0,_ZNSt4pairIKSsSsED2Ev
FNDA:0,_ZNSt4pairIKSsSsEC2ERKS1_
FNF:2
FNH:0
DA:96,0
DA:127,0
LF:2
LH:0
end_of_record
SF:/usr/include/c++/4.8/bits/stl_tree.h
FN:102,_ZNSt18_Rb_tree_node_base10_S_minimumEPS_
FN:116,_ZNSt18_Rb_tree_node_base10_S_maximumEPS_
FN:131,_ZNSt13_Rb_tree_nodeISt4pairIKSsSsEED2Ev
FN:138,_ZNSt13_Rb_tree_nodeISt4pairIKSsSsEEC2IIRKS2_EEEDpOT_
FN:356,_ZNSt8_Rb_treeISsSt4pairIKSsSsESt10_Select1stIS2_ESt4lessISsESaIS2_EE21_M_get_Node_allocatorEv
FN:360,_ZNKSt8_Rb_treeISsSt4pairIKSsSsESt10_Select1stIS2_ESt4lessISsESaIS2_EE21_M_get_Node_allocatorEv
FN:369,_ZNSt8_Rb_treeISsSt4pairIKSsSsESt10_Select1stIS2_ESt4lessISsESaIS2_EE11_M_get_nodeEv
FN:373,_ZNSt8_Rb_treeISsSt4pairIKSsSsESt10_Select1stIS2_ESt4lessISsESaIS2_EE11_M_put_nodeEPSt13_Rb_tree_nodeIS2_E
FN:401,_ZNSt8_Rb_treeISsSt4pairIKSsSsESt10_Select1stIS2_ESt4lessISsESaIS2_EE14_M_create_nodeIIRKS2_EEEPSt13_Rb_tree_nodeIS2_EDpOT_
FN:419,_ZNSt8_Rb_treeISsSt4pairIKSsSsESt10_Select1stIS2_ESt4lessISsESaIS2_EE15_M_destroy_nodeEPSt13_Rb_tree_nodeIS2_E
FN:427,_ZNSt8_Rb_treeISsSt4pairIKSsSsESt10_Select1stIS2_ESt4lessISsESaIS2_EE13_M_clone_nodeEPKSt13_Rb_tree_nodeIS2_E
FN:439,_ZNSt8_Rb_treeISsSt4pairIKSsSsESt10_Select1stIS2_ESt4lessISsESaIS2_EE13_Rb_tree_implIS6_Lb1EED2Ev
FN:450,_ZNSt8_Rb_treeISsSt4pairIKSsSsESt10_Select1stIS2_ESt4lessISsESaIS2_EE13_Rb_tree_implIS6_Lb1EEC2ERKS6_RKSaISt13_Rb_tree_nodeIS2_EE
FN:464,_ZNSt8_Rb_treeISsSt4pairIKSsSsESt10_Select1stIS2_ESt4lessISsESaIS2_EE13_Rb_tree_implIS6_Lb1EE13_M_initializeEv
FN:477,_ZNSt8_Rb_treeISsSt4pairIKSsSsESt10_Select1stIS2_ESt4lessISsESaIS2_EE7_M_rootEv
FN:481,_ZNKSt8_Rb_treeISsSt4pairIKSsSsESt10_Select1stIS2_ESt4lessISsESaIS2_EE7_M_rootEv
FN:485,_ZNSt8_Rb_treeISsSt4pairIKSsSsESt10_Select1stIS2_ESt4lessISsESaIS2_EE11_M_leftmostEv
FN:493,_ZNSt8_Rb_treeISsSt4pairIKSsSsESt10_Select1stIS2_ESt4lessISsESaIS2_EE12_M_rightmostEv
FN:505,_ZNKSt8_Rb_treeISsSt4pairIKSsSsESt10_Select1stIS2_ESt4lessISsESaIS2_EE8_M_beginEv
FN:512,_ZNSt8_Rb_treeISsSt4pairIKSsSsESt10_Select1stIS2_ESt4lessISsESaIS2_EE6_M_endEv
FN:528,_ZNSt8_Rb_treeISsSt4pairIKSsSsESt10_Select1stIS2_ESt4lessISsESaIS2_EE7_S_leftEPSt18_Rb_tree_node_base
FN:532,_ZNSt8_Rb_treeISsSt4pairIKSsSsESt10_Select1stIS2_ESt4lessISsESaIS2_EE7_S_leftEPKSt18_Rb_tree_node_base
FN:536,_ZNSt8_Rb_treeISsSt4pairIKSsSsESt10_Select1stIS2_ESt4lessISsESaIS2_EE8_S_rightEPSt18_Rb_tree_node_base
FN:540,_ZNSt8_Rb_treeISsSt4pairIKSsSsESt10_Select1stIS2_ESt4lessISsESaIS2_EE8_S_rightEPKSt18_Rb_tree_node_base
FN:552,_ZNSt8_Rb_treeISsSt4pairIKSsSsESt10_Select1stIS2_ESt4lessISsESaIS2_EE10_S_minimumEPSt18_Rb_tree_node_base
FN:560,_ZNSt8_Rb_treeISsSt4pairIKSsSsESt10_Select1stIS2_ESt4lessISsESaIS2_EE10_S_maximumEPSt18_Rb_tree_node_base
FN:654,_ZNSt8_Rb_treeISsSt4pairIKSsSsESt10_Select1stIS2_ESt4lessISsESaIS2_EEC2ERKS8_
FN:1083,_ZNSt8_Rb_treeISsSt4pairIKSsSsESt10_Select1stIS2_ESt4lessISsESaIS2_EE7_M_copyEPKSt13_Rb_tree_nodeIS2_EPSA_
FN:1119,_ZNSt8_Rb_treeISsSt4pairIKSsSsESt10_Select1stIS2_ESt4lessISsESaIS2_EE8_M_eraseEPSt13_Rb_tree_nodeIS2_E
FNDA:0,_ZNSt18_Rb_tree_node_base10_S_minimumEPS_
FNDA:0,_ZNSt18_Rb_tree_node_base10_S_maximumEPS_
FNDA:0,_ZNSt13_Rb_tree_nodeISt4pairIKSsSsEED2Ev
FNDA:0,_ZNSt13_Rb_tree_nodeISt4pairIKSsSsEEC2IIRKS2_EEEDpOT_
FNDA:0,_ZNSt8_Rb_treeISsSt4pairIKSsSsESt10_Select1stIS2_ESt4lessISsESaIS2_EE21_M_get_Node_allocatorEv
FNDA:0,_ZNKSt8_Rb_treeISsSt4pairIKSsSsESt10_Select1stIS2_ESt4lessISsESaIS2_EE21_M_get_Node_allocatorEv
FNDA:0,_ZNSt8_Rb_treeISsSt4pairIKSsSsESt10_Select1stIS2_ESt4lessISsESaIS2_EE11_M_get_nodeEv
FNDA:0,_ZNSt8_Rb_treeISsSt4pairIKSsSsESt10_Select1stIS2_ESt4lessISsESaIS2_EE11_M_put_nodeEPSt13_Rb_tree_nodeIS2_E
FNDA:0,_ZNSt8_Rb_treeISsSt4pairIKSsSsESt10_Select1stIS2_ESt4lessISsESaIS2_EE14_M_create_nodeIIRKS2_EEEPSt13_Rb_tree_nodeIS2_EDpOT_
FNDA:0,_ZNSt8_Rb_treeISsSt4pairIKSsSsESt10_Select1stIS2_ESt4lessISsESaIS2_EE15_M_destroy_nodeEPSt13_Rb_tree_nodeIS2_E
FNDA:0,_ZNSt8_Rb_treeISsSt4pairIKSsSsESt10_Select1stIS2_ESt4lessISsESaIS2_EE13_M_clone_nodeEPKSt13_Rb_tree_nodeIS2_E
FNDA:0,_ZNSt8_Rb_treeISsSt4pairIKSsSsESt10_Select1stIS2_ESt4lessISsESaIS2_EE13_Rb_tree_implIS6_Lb1EED2Ev
FNDA:0,_ZNSt8_Rb_treeISsSt4pairIKSsSsESt10_Select1stIS2_ESt4lessISsESaIS2_EE13_Rb_tree_implIS6_Lb1EEC2ERKS6_RKSaISt13_Rb_tree_nodeIS2_EE
FNDA:0,_ZNSt8_Rb_treeISsSt4pairIKSsSsESt10_Select1stIS2_ESt4lessISsESaIS2_EE13_Rb_tree_implIS6_Lb1EE13_M_initializeEv
FNDA:0,_ZNSt8_Rb_treeISsSt4pairIKSsSsESt10_Select1stIS2_ESt4lessISsESaIS2_EE7_M_rootEv
FNDA:0,_ZNKSt8_Rb_treeISsSt4pairIKSsSsESt10_Select1stIS2_ESt4lessISsESaIS2_EE7_M_rootEv
FNDA:0,_ZNSt8_Rb_treeISsSt4pairIKSsSsESt10_Select1stIS2_ESt4lessISsESaIS2_EE11_M_leftmostEv
FNDA:0,_ZNSt8_Rb_treeISsSt4pairIKSsSsESt10_Select1stIS2_ESt4lessISsESaIS2_EE12_M_rightmostEv
FNDA:0,_ZNKSt8_Rb_treeISsSt4pairIKSsSsESt10_Select1stIS2_ESt4lessISsESaIS2_EE8_M_beginEv
FNDA:0,_ZNSt8_Rb_treeISsSt4pairIKSsSsESt10_Select1stIS2_ESt4lessISsESaIS2_EE6_M_endEv
FNDA:0,_ZNSt8_Rb_treeISsSt4pairIKSsSsESt10_Select1stIS2_ESt4lessISsESaIS2_EE7_S_leftEPSt18_Rb_tree_node_base
FNDA:0,_ZNSt8_Rb_treeISsSt4pairIKSsSsESt10_Select1stIS2_ESt4lessISsESaIS2_EE7_S_leftEPKSt18_Rb_tree_node_base
FNDA:0,_ZNSt8_Rb_treeISsSt4pairIKSsSsESt10_Select1stIS2_ESt4lessISsESaIS2_EE8_S_rightEPSt18_Rb_tree_node_base
FNDA:0,_ZNSt8_Rb_treeISsSt4pairIKSsSsESt10_Select1stIS2_ESt4lessISsESaIS2_EE8_S_rightEPKSt18_Rb_tree_node_base
FNDA:0,_ZNSt8_Rb_treeISsSt4pairIKSsSsESt10_Select1stIS2_ESt4lessISsESaIS2_EE10_S_minimumEPSt18_Rb_tree_node_base
FNDA:0,_ZNSt8_Rb_treeISsSt4pairIKSsSsESt10_Select1stIS2_ESt4lessISsESaIS2_EE10_S_maximumEPSt18_Rb_tree_node_base
FNDA:0,_ZNSt8_Rb_treeISsSt4pairIKSsSsESt10_Select1stIS2_ESt4lessISsESaIS2_EEC2ERKS8_
FNDA:0,_ZNSt8_Rb_treeISsSt4pairIKSsSsESt10_Select1stIS2_ESt4lessISsESaIS2_EE7_M_copyEPKSt13_Rb_tree_nodeIS2_EPSA_
FNDA:0,_ZNSt8_Rb_treeISsSt4pairIKSsSsESt10_Select1stIS2_ESt4lessISsESaIS2_EE8_M_eraseEPSt13_Rb_tree_nodeIS2_E
FNF:29
FNH:0
DA:102,0
DA:104,0
DA:105,0
DA:116,0
DA:118,0
DA:119,0
DA:131,0
DA:138,0
DA:140,0
DA:356,0
DA:357,0
DA:360,0
DA:361,0
DA:369,0
DA:370,0
DA:373,0
DA:374,0
DA:401,0
DA:403,0
DA:406,0
DA:407,0
DA:408,0
DA:410,=====
DA:412,=====
DA:413,=====
DA:415,0
DA:419,0
DA:421,0
DA:422,0
DA:423,0
DA:427,0
DA:429,0
DA:430,0
DA:431,0
DA:432,0
DA:433,0
DA:439,0
DA:450,0
DA:452,0
DA:453,0
DA:464,0
DA:466,0
DA:467,0
DA:468,0
DA:469,0
DA:470,0
DA:477,0
DA:478,0
DA:481,0
DA:482,0
DA:485,0
DA:486,0
DA:493,0
DA:494,0
DA:505,0
DA:508,0
DA:512,0
DA:513,0
DA:528,0
DA:529,0
DA:532,0
DA:533,0
DA:536,0
DA:537,0
DA:540,0
DA:541,0
DA:552,0
DA:553,0
DA:560,0
DA:561,0
DA:654,0
DA:655,0
DA:657,0
DA:659,0
DA:660,0
DA:661,0
DA:662,0
DA:664,0
DA:1083,0
DA:1087,0
DA:1088,0
DA:1092,0
DA:1093,0
DA:1094,0
DA:1095,0
DA:1097,0
DA:1099,0
DA:1100,0
DA:1101,0
DA:1102,0
DA:1103,0
DA:1104,0
DA:1105,0
DA:1108,=====
DA:1110,=====
DA:1111,=====
DA:1113,0
DA:1119,0
DA:1123,0
DA:1125,0
DA:1126,0
DA:1127,0
DA:1128,0
DA:1130,0
LF:104
LH:0
end_of_record
SF:/usr/include/c++/4.8/ext/atomicity.h
FN:48,_ZN9__gnu_cxxL18__exchange_and_addEPVii
FN:65,_ZN9__gnu_cxxL25__exchange_and_add_singleEPii
FN:78,_ZN9__gnu_cxxL27__exchange_and_add_dispatchEPii
FNDA:0,_ZN9__gnu_cxxL18__exchange_and_addEPVii
FNDA:0,_ZN9__gnu_cxxL25__exchange_and_add_singleEPii
FNDA:0,_ZN9__gnu_cxxL27__exchange_and_add_dispatchEPii
FNF:3
FNH:0
DA:48,0
DA:49,0
DA:65,0
DA:67,0
DA:68,0
DA:69,0
DA:78,0
DA:81,0
DA:82,0
DA:84,0
LF:10
LH:0
end_of_record
SF:/usr/include/c++/4.8/ext/new_allocator.h
FN:79,_ZN9__gnu_cxx13new_allocatorIcEC2Ev
FN:81,_ZN9__gnu_cxx13new_allocatorISt13_Rb_tree_nodeISt4pairIKSsSsEEEC2ERKS6_
FN:81,_ZN9__gnu_cxx13new_allocatorIcEC2ERKS1_
FN:86,_ZN9__gnu_cxx13new_allocatorIcED2Ev
FN:86,_ZN9__gnu_cxx13new_allocatorISt13_Rb_tree_nodeISt4pairIKSsSsEEED2Ev
FN:99,_ZN9__gnu_cxx13new_allocatorISt13_Rb_tree_nodeISt4pairIKSsSsEEE8allocateEmPKv
FN:109,_ZN9__gnu_cxx13new_allocatorISt13_Rb_tree_nodeISt4pairIKSsSsEEE10deallocateEPS5_m
FN:113,_ZNK9__gnu_cxx13new_allocatorISt13_Rb_tree_nodeISt4pairIKSsSsEEE8max_sizeEv
FN:119,_ZN9__gnu_cxx13new_allocatorISt13_Rb_tree_nodeISt4pairIKSsSsEEE9constructIS5_IRKS4_EEEvPT_DpOT0_
FN:124,_ZN9__gnu_cxx13new_allocatorISt13_Rb_tree_nodeISt4pairIKSsSsEEE7destroyIS5_EEvPT_
FNDA:0,_ZN9__gnu_cxx13new_allocatorIcEC2Ev
FNDA:0,_ZN9__gnu_cxx13new_allocatorISt13_Rb_tree_nodeISt4pairIKSsSsEEEC2ERKS6_
FNDA:0,_ZN9__gnu_cxx13new_allocatorIcEC2ERKS1_
FNDA:0,_ZN9__gnu_cxx13new_allocatorISt13_Rb_tree_nodeISt4pairIKSsSsEEED2Ev
FNDA:0,_ZN9__gnu_cxx13new_allocatorIcED2Ev
FNDA:0,_ZN9__gnu_cxx13new_allocatorISt13_Rb_tree_nodeISt4pairIKSsSsEEE8allocateEmPKv
FNDA:0,_ZN9__gnu_cxx13new_allocatorISt13_Rb_tree_nodeISt4pairIKSsSsEEE10deallocateEPS5_m
FNDA:0,_ZNK9__gnu_cxx13new_allocatorISt13_Rb_tree_nodeISt4pairIKSsSsEEE8max_sizeEv
FNDA:0,_ZN9__gnu_cxx13new_allocatorISt13_Rb_tree_nodeISt4pairIKSsSsEEE9constructIS5_IRKS4_EEEvPT_DpOT0_
FNDA:0,_ZN9__gnu_cxx13new_allocatorISt13_Rb_tree_nodeISt4pairIKSsSsEEE7destroyIS5_EEvPT_
FNF:10
FNH:0
DA:79,0
DA:81,0
DA:86,0
DA:99,0
DA:101,0
DA:102,0
DA:104,0
DA:109,0
DA:110,0
DA:113,0
DA:114,0
DA:119,0
DA:120,0
DA:124,0
LF:14
LH:0
end_of_record
SF:/usr/include/c++/4.8/iostream
DA:74,4
LF:1
LH:1
end_of_record
SF:/usr/include/c++/4.8/new
FN:109,_ZnwmPv
FN:115,_ZdlPvS_
FNDA:0,_ZnwmPv
FNDA:0,_ZdlPvS_
FNF:2
FNH:0
DA:109,0
DA:110,0
DA:115,0
LF:3
LH:0
end_of_record
SF:/usr/include/x86_64-linux-gnu/c++/4.8/bits/gthr-default.h
FN:247,_ZL18__gthread_active_pv
FNDA:0,_ZL18__gthread_active_pv
FNF:1
FNH:0
DA:247,0
DA:251,0
LF:2
LH:0
end_of_record
TN:
SF:/home/taller2-appserver/Appserver/src/servicios/ManejadorDeConexiones.cpp
FN:9,_ZN21ManejadorDeConexionesC2Ev
FN:13,_ZN21ManejadorDeConexionesD0Ev
FN:13,_ZN21ManejadorDeConexionesD2Ev
FN:19,_ZN21ManejadorDeConexiones27iniciarConexionComoServidorESsP8Servidor
FN:33,_ZN21ManejadorDeConexiones16escucharMensajesEv
FN:42,_ZN21ManejadorDeConexiones28terminarConexionComoServidorEv
FN:46,_ZN21ManejadorDeConexiones13handlerServerEP13mg_connectioniPv
FN:192,_ZN21ManejadorDeConexiones17enviarMensajeHTTPEP18MensajeHTTPRequestSs
FN:213,_ZN21ManejadorDeConexiones14handlerClienteEP13mg_connectioniPv
FN:270,_GLOBAL__sub_I__ZN21ManejadorDeConexiones6tiempoE
FN:270,_Z41__static_initialization_and_destruction_0ii
FNDA:4,_ZN21ManejadorDeConexionesC2Ev
FNDA:0,_ZN21ManejadorDeConexionesD0Ev
FNDA:4,_ZN21ManejadorDeConexionesD2Ev
FNDA:4,_ZN21ManejadorDeConexiones27iniciarConexionComoServidorESsP8Servidor
FNDA:4,_ZN21ManejadorDeConexiones16escucharMensajesEv
FNDA:4,_ZN21ManejadorDeConexiones28terminarConexionComoServidorEv
FNDA:70,_ZN21ManejadorDeConexiones13handlerServerEP13mg_connectioniPv
FNDA:2,_ZN21ManejadorDeConexiones17enviarMensajeHTTPEP18MensajeHTTPRequestSs
FNDA:12,_ZN21ManejadorDeConexiones14handlerClienteEP13mg_connectioniPv
FNDA:4,_GLOBAL__sub_I__ZN21ManejadorDeConexiones6tiempoE
FNDA:4,_Z41__static_initialization_and_destruction_0ii
FNF:11
FNH:10
DA:9,4
DA:10,4
DA:11,4
DA:13,4
DA:14,4
DA:15,4
DA:19,4
DA:21,4
DA:23,4
DA:25,4
DA:27,4
DA:29,4
DA:30,4
DA:33,4
DA:34,4
DA:36,122
DA:37,114
DA:40,4
DA:42,4
DA:43,4
DA:44,4
DA:46,70
DA:48,70
DA:49,70
DA:55,70
DA:57,70
DA:67,0
DA:74,18
DA:76,18
DA:77,18
DA:80,18
DA:82,18
DA:83,18
DA:84,18
DA:86,18
DA:88,18
DA:91,18
DA:93,16
DA:97,0
DA:110,0
DA:124,16
DA:130,16
DA:136,18
DA:138,68
DA:192,2
DA:193,2
DA:195,4
DA:196,2
DA:197,2
DA:199,2
DA:202,4
DA:203,2
DA:204,2
DA:205,4
DA:213,12
DA:215,12
DA:216,12
DA:219,12
DA:222,2
DA:223,2
DA:233,2
DA:237,2
DA:242,2
DA:245,2
DA:246,2
DA:248,2
DA:250,2
DA:253,2
DA:254,2
DA:256,2
DA:263,2
DA:268,2
DA:270,24
LF:73
LH:70
end_of_record
SF:/usr/include/c++/4.8/bits/basic_string.h
FN:272,_ZNSs12_Alloc_hiderD2Ev
FN:272,_ZNSs12_Alloc_hiderC2ERKS_
FN:2430,_ZStplIcSt11char_traitsIcESaIcEESbIT_T0_T1_EOS6_RKS6_
FN:2466,_ZStplIcSt11char_traitsIcESaIcEESbIT_T0_T1_EOS6_PKS3_
FNDA:0,_ZNSs12_Alloc_hiderC2ERKS_
FNDA:0,_ZNSs12_Alloc_hiderD2Ev
FNDA:0,_ZStplIcSt11char_traitsIcESaIcEESbIT_T0_T1_EOS6_RKS6_
FNDA:0,_ZStplIcSt11char_traitsIcESaIcEESbIT_T0_T1_EOS6_PKS3_
FNF:4
FNH:0
DA:272,0
DA:2430,0
DA:2432,0
DA:2466,0
DA:2468,0
LF:5
LH:0
end_of_record
SF:/usr/include/c++/4.8/bits/char_traits.h
FN:258,_ZNSt11char_traitsIcE6lengthEPKc
FNDA:0,_ZNSt11char_traitsIcE6lengthEPKc
FNF:1
FNH:0
DA:258,0
DA:259,0
LF:2
LH:0
end_of_record
SF:/usr/include/c++/4.8/bits/ios_base.h
FN:163,_ZStorSt12_Ios_IostateS_
FNDA:0,_ZStorSt12_Ios_IostateS_
FNF:1
FNH:0
DA:163,0
DA:164,0
LF:2
LH:0
end_of_record
SF:/usr/include/c++/4.8/bits/move.h
FN:101,_ZSt4moveIRSsEONSt16remove_referenceIT_E4typeEOS2_
FNDA:0,_ZSt4moveIRSsEONSt16remove_referenceIT_E4typeEOS2_
FNF:1
FNH:0
DA:101,0
DA:102,0
LF:2
LH:0
end_of_record
SF:/usr/include/c++/4.8/ext/atomicity.h
FN:48,_ZN9__gnu_cxxL18__exchange_and_addEPVii
FN:65,_ZN9__gnu_cxxL25__exchange_and_add_singleEPii
FN:78,_ZN9__gnu_cxxL27__exchange_and_add_dispatchEPii
FNDA:0,_ZN9__gnu_cxxL18__exchange_and_addEPVii
FNDA:0,_ZN9__gnu_cxxL25__exchange_and_add_singleEPii
FNDA:0,_ZN9__gnu_cxxL27__exchange_and_add_dispatchEPii
FNF:3
FNH:0
DA:48,0
DA:49,0
DA:65,0
DA:67,0
DA:68,0
DA:69,0
DA:78,0
DA:81,0
DA:82,0
DA:84,0
LF:10
LH:0
end_of_record
SF:/usr/include/c++/4.8/ext/new_allocator.h
FN:79,_ZN9__gnu_cxx13new_allocatorIcEC2Ev
FN:81,_ZN9__gnu_cxx13new_allocatorIcEC2ERKS1_
FN:86,_ZN9__gnu_cxx13new_allocatorIcED2Ev
FNDA:0,_ZN9__gnu_cxx13new_allocatorIcEC2Ev
FNDA:0,_ZN9__gnu_cxx13new_allocatorIcEC2ERKS1_
FNDA:0,_ZN9__gnu_cxx13new_allocatorIcED2Ev
FNF:3
FNH:0
DA:79,0
DA:81,0
DA:86,0
LF:3
LH:0
end_of_record
SF:/usr/include/c++/4.8/iostream
DA:74,4
LF:1
LH:1
end_of_record
SF:/usr/include/x86_64-linux-gnu/c++/4.8/bits/gthr-default.h
FN:247,_ZL18__gthread_active_pv
FNDA:0,_ZL18__gthread_active_pv
FNF:1
FNH:0
DA:247,0
DA:251,0
LF:2
LH:0
end_of_record
TN:
SF:/home/taller2-appserver/Appserver/src/servicios/CreatorLogin.cpp
FN:3,_ZN12CreatorLoginC2EP18SesionesDeUsuarios18MensajeHTTPRequestP22CredencialesDeUsuarios
FN:14,_ZN12CreatorLoginD2Ev
FN:14,_ZN12CreatorLoginD0Ev
FN:17,_GLOBAL__sub_I__ZN12CreatorLoginC2EP18SesionesDeUsuarios18MensajeHTTPRequestP22CredencialesDeUsuarios
FN:17,_Z41__static_initialization_and_destruction_0ii
FNDA:9,_ZN12CreatorLoginC2EP18SesionesDeUsuarios18MensajeHTTPRequestP22CredencialesDeUsuarios
FNDA:9,_ZN12CreatorLoginD0Ev
FNDA:9,_ZN12CreatorLoginD2Ev
FNDA:4,_GLOBAL__sub_I__ZN12CreatorLoginC2EP18SesionesDeUsuarios18MensajeHTTPRequestP22CredencialesDeUsuarios
FNDA:4,_Z41__static_initialization_and_destruction_0ii
FNF:5
FNH:5
DA:3,9
DA:5,9
DA:6,9
DA:9,0
DA:12,9
DA:14,18
DA:17,30
LF:7
LH:6
end_of_record
SF:/home/taller2-appserver/Appserver/src/servicios/MensajeHTTP.h
FN:11,_ZN11MensajeHTTPC2ERKS_
FNDA:0,_ZN11MensajeHTTPC2ERKS_
FNF:1
FNH:0
DA:11,0
LF:1
LH:0
end_of_record
SF:/home/taller2-appserver/Appserver/src/servicios/MensajeHTTPRequest.h
FN:9,_ZN18MensajeHTTPRequestC2ERKS_
FNDA:0,_ZN18MensajeHTTPRequestC2ERKS_
FNF:1
FNH:0
DA:9,0
LF:1
LH:0
end_of_record
SF:/usr/include/c++/4.8/bits/alloc_traits.h
FN:253,_ZNSt16allocator_traitsISaISt13_Rb_tree_nodeISt4pairIKSsSsEEEE12_S_constructIS4_IRKS3_EEENSt9enable_ifIXsrNS6_18__construct_helperIT_IDpT0_EEE5valueEvE4typeERS5_PSC_DpOSD_
FN:391,_ZNSt16allocator_traitsISaISt13_Rb_tree_nodeISt4pairIKSsSsEEEE9constructIS4_IRKS3_EEEDTcl12_S_constructfp_fp0_spcl7forwardIT0_Efp1_EEERS5_PT_DpOSA_
FNDA:0,_ZNSt16allocator_traitsISaISt13_Rb_tree_nodeISt4pairIKSsSsEEEE12_S_constructIS4_IRKS3_EEENSt9enable_ifIXsrNS6_18__construct_helperIT_IDpT0_EEE5valueEvE4typeERS5_PSC_DpOSD_
FNDA:0,_ZNSt16allocator_traitsISaISt13_Rb_tree_nodeISt4pairIKSsSsEEEE9constructIS4_IRKS3_EEEDTcl12_S_constructfp_fp0_spcl7forwardIT0_Efp1_EEERS5_PT_DpOSA_
FNF:2
FNH:0
DA:253,0
DA:254,0
DA:391,0
DA:393,0
LF:4
LH:0
end_of_record
SF:/usr/include/c++/4.8/bits/allocator.h
FN:115,_ZNSaISt13_Rb_tree_nodeISt4pairIKSsSsEEEC2ERKS4_
FN:121,_ZNSaISt13_Rb_tree_nodeISt4pairIKSsSsEEED2Ev
FNDA:0,_ZNSaISt13_Rb_tree_nodeISt4pairIKSsSsEEEC2ERKS4_
FNDA:0,_ZNSaISt13_Rb_tree_nodeISt4pairIKSsSsEEED2Ev
FNF:2
FNH:0
DA:115,0
DA:116,0
DA:121,0
LF:3
LH:0
end_of_record
SF:/usr/include/c++/4.8/bits/basic_string.h
FN:272,_ZNSs12_Alloc_hiderD2Ev
FNDA:0,_ZNSs12_Alloc_hiderD2Ev
FNF:1
FNH:0
DA:272,0
LF:1
LH:0
end_of_record
SF:/usr/include/c++/4.8/bits/move.h
FN:76,_ZSt7forwardIRKSt4pairIKSsSsEEOT_RNSt16remove_referenceIS5_E4typeE
FNDA:0,_ZSt7forwardIRKSt4pairIKSsSsEEOT_RNSt16remove_referenceIS5_E4typeE
FNF:1
FNH:0
DA:76,0
DA:77,0
LF:2
LH:0
end_of_record
SF:/usr/include/c++/4.8/bits/stl_map.h
FN:180,_ZNSt3mapISsSsSt4lessISsESaISt4pairIKSsSsEEEC2ERKS6_
FNDA:0,_ZNSt3mapISsSsSt4lessISsESaISt4pairIKSsSsEEEC2ERKS6_
FNF:1
FNH:0
DA:180,0
DA:181,0
LF:2
LH:0
end_of_record
SF:/usr/include/c++/4.8/bits/stl_pair.h
FN:96,_ZNSt4pairIKSsSsED2Ev
FN:127,_ZNSt4pairIKSsSsEC2ERKS1_
FNDA:0,_ZNSt4pairIKSsSsED2Ev
FNDA:0,_ZNSt4pairIKSsSsEC2ERKS1_
FNF:2
FNH:0
DA:96,0
DA:127,0
LF:2
LH:0
end_of_record
SF:/usr/include/c++/4.8/bits/stl_tree.h
FN:102,_ZNSt18_Rb_tree_node_base10_S_minimumEPS_
FN:116,_ZNSt18_Rb_tree_node_base10_S_maximumEPS_
FN:131,_ZNSt13_Rb_tree_nodeISt4pairIKSsSsEED2Ev
FN:138,_ZNSt13_Rb_tree_nodeISt4pairIKSsSsEEC2IIRKS2_EEEDpOT_
FN:356,_ZNSt8_Rb_treeISsSt4pairIKSsSsESt10_Select1stIS2_ESt4lessISsESaIS2_EE21_M_get_Node_allocatorEv
FN:360,_ZNKSt8_Rb_treeISsSt4pairIKSsSsESt10_Select1stIS2_ESt4lessISsESaIS2_EE21_M_get_Node_allocatorEv
FN:369,_ZNSt8_Rb_treeISsSt4pairIKSsSsESt10_Select1stIS2_ESt4lessISsESaIS2_EE11_M_get_nodeEv
FN:373,_ZNSt8_Rb_treeISsSt4pairIKSsSsESt10_Select1stIS2_ESt4lessISsESaIS2_EE11_M_put_nodeEPSt13_Rb_tree_nodeIS2_E
FN:401,_ZNSt8_Rb_treeISsSt4pairIKSsSsESt10_Select1stIS2_ESt4lessISsESaIS2_EE14_M_create_nodeIIRKS2_EEEPSt13_Rb_tree_nodeIS2_EDpOT_
FN:419,_ZNSt8_Rb_treeISsSt4pairIKSsSsESt10_Select1stIS2_ESt4lessISsESaIS2_EE15_M_destroy_nodeEPSt13_Rb_tree_nodeIS2_E
FN:427,_ZNSt8_Rb_treeISsSt4pairIKSsSsESt10_Select1stIS2_ESt4lessISsESaIS2_EE13_M_clone_nodeEPKSt13_Rb_tree_nodeIS2_E
FN:439,_ZNSt8_Rb_treeISsSt4pairIKSsSsESt10_Select1stIS2_ESt4lessISsESaIS2_EE13_Rb_tree_implIS6_Lb1EED2Ev
FN:450,_ZNSt8_Rb_treeISsSt4pairIKSsSsESt10_Select1stIS2_ESt4lessISsESaIS2_EE13_Rb_tree_implIS6_Lb1EEC2ERKS6_RKSaISt13_Rb_tree_nodeIS2_EE
FN:464,_ZNSt8_Rb_treeISsSt4pairIKSsSsESt10_Select1stIS2_ESt4lessISsESaIS2_EE13_Rb_tree_implIS6_Lb1EE13_M_initializeEv
FN:477,_ZNSt8_Rb_treeISsSt4pairIKSsSsESt10_Select1stIS2_ESt4lessISsESaIS2_EE7_M_rootEv
FN:481,_ZNKSt8_Rb_treeISsSt4pairIKSsSsESt10_Select1stIS2_ESt4lessISsESaIS2_EE7_M_rootEv
FN:485,_ZNSt8_Rb_treeISsSt4pairIKSsSsESt10_Select1stIS2_ESt4lessISsESaIS2_EE11_M_leftmostEv
FN:493,_ZNSt8_Rb_treeISsSt4pairIKSsSsESt10_Select1stIS2_ESt4lessISsESaIS2_EE12_M_rightmostEv
FN:505,_ZNKSt8_Rb_treeISsSt4pairIKSsSsESt10_Select1stIS2_ESt4lessISsESaIS2_EE8_M_beginEv
FN:512,_ZNSt8_Rb_treeISsSt4pairIKSsSsESt10_Select1stIS2_ESt4lessISsESaIS2_EE6_M_endEv
FN:528,_ZNSt8_Rb_treeISsSt4pairIKSsSsESt10_Select1stIS2_ESt4lessISsESaIS2_EE7_S_leftEPSt18_Rb_tree_node_base
FN:532,_ZNSt8_Rb_treeISsSt4pairIKSsSsESt10_Select1stIS2_ESt4lessISsESaIS2_EE7_S_leftEPKSt18_Rb_tree_node_base
FN:536,_ZNSt8_Rb_treeISsSt4pairIKSsSsESt10_Select1stIS2_ESt4lessISsESaIS2_EE8_S_rightEPSt18_Rb_tree_node_base
FN:540,_ZNSt8_Rb_treeISsSt4pairIKSsSsESt10_Select1stIS2_ESt4lessISsESaIS2_EE8_S_rightEPKSt18_Rb_tree_node_base
FN:552,_ZNSt8_Rb_treeISsSt4pairIKSsSsESt10_Select1stIS2_ESt4lessISsESaIS2_EE10_S_minimumEPSt18_Rb_tree_node_base
FN:560,_ZNSt8_Rb_treeISsSt4pairIKSsSsESt10_Select1stIS2_ESt4lessISsESaIS2_EE10_S_maximumEPSt18_Rb_tree_node_base
FN:654,_ZNSt8_Rb_treeISsSt4pairIKSsSsESt10_Select1stIS2_ESt4lessISsESaIS2_EEC2ERKS8_
FN:1083,_ZNSt8_Rb_treeISsSt4pairIKSsSsESt10_Select1stIS2_ESt4lessISsESaIS2_EE7_M_copyEPKSt13_Rb_tree_nodeIS2_EPSA_
FN:1119,_ZNSt8_Rb_treeISsSt4pairIKSsSsESt10_Select1stIS2_ESt4lessISsESaIS2_EE8_M_eraseEPSt13_Rb_tree_nodeIS2_E
FNDA:0,_ZNSt18_Rb_tree_node_base10_S_minimumEPS_
FNDA:0,_ZNSt18_Rb_tree_node_base10_S_maximumEPS_
FNDA:0,_ZNSt13_Rb_tree_nodeISt4pairIKSsSsEED2Ev
FNDA:0,_ZNSt13_Rb_tree_nodeISt4pairIKSsSsEEC2IIRKS2_EEEDpOT_
FNDA:0,_ZNSt8_Rb_treeISsSt4pairIKSsSsESt10_Select1stIS2_ESt4lessISsESaIS2_EE21_M_get_Node_allocatorEv
FNDA:0,_ZNKSt8_Rb_treeISsSt4pairIKSsSsESt10_Select1stIS2_ESt4lessISsESaIS2_EE21_M_get_Node_allocatorEv
FNDA:0,_ZNSt8_Rb_treeISsSt4pairIKSsSsESt10_Select1stIS2_ESt4lessISsESaIS2_EE11_M_get_nodeEv
FNDA:0,_ZNSt8_Rb_treeISsSt4pairIKSsSsESt10_Select1stIS2_ESt4lessISsESaIS2_EE11_M_put_nodeEPSt13_Rb_tree_nodeIS2_E
FNDA:0,_ZNSt8_Rb_treeISsSt4pairIKSsSsESt10_Select1stIS2_ESt4lessISsESaIS2_EE14_M_create_nodeIIRKS2_EEEPSt13_Rb_tree_nodeIS2_EDpOT_
FNDA:0,_ZNSt8_Rb_treeISsSt4pairIKSsSsESt10_Select1stIS2_ESt4lessISsESaIS2_EE15_M_destroy_nodeEPSt13_Rb_tree_nodeIS2_E
FNDA:0,_ZNSt8_Rb_treeISsSt4pairIKSsSsESt10_Select1stIS2_ESt4lessISsESaIS2_EE13_M_clone_nodeEPKSt13_Rb_tree_nodeIS2_E
FNDA:0,_ZNSt8_Rb_treeISsSt4pairIKSsSsESt10_Select1stIS2_ESt4lessISsESaIS2_EE13_Rb_tree_implIS6_Lb1EED2Ev
FNDA:0,_ZNSt8_Rb_treeISsSt4pairIKSsSsESt10_Select1stIS2_ESt4lessISsESaIS2_EE13_Rb_tree_implIS6_Lb1EEC2ERKS6_RKSaISt13_Rb_tree_nodeIS2_EE
FNDA:0,_ZNSt8_Rb_treeISsSt4pairIKSsSsESt10_Select1stIS2_ESt4lessISsESaIS2_EE13_Rb_tree_implIS6_Lb1EE13_M_initializeEv
FNDA:0,_ZNSt8_Rb_treeISsSt4pairIKSsSsESt10_Select1stIS2_ESt4lessISsESaIS2_EE7_M_rootEv
FNDA:0,_ZNKSt8_Rb_treeISsSt4pairIKSsSsESt10_Select1stIS2_ESt4lessISsESaIS2_EE7_M_rootEv
FNDA:0,_ZNSt8_Rb_treeISsSt4pairIKSsSsESt10_Select1stIS2_ESt4lessISsESaIS2_EE11_M_leftmostEv
FNDA:0,_ZNSt8_Rb_treeISsSt4pairIKSsSsESt10_Select1stIS2_ESt4lessISsESaIS2_EE12_M_rightmostEv
FNDA:0,_ZNKSt8_Rb_treeISsSt4pairIKSsSsESt10_Select1stIS2_ESt4lessISsESaIS2_EE8_M_beginEv
FNDA:0,_ZNSt8_Rb_treeISsSt4pairIKSsSsESt10_Select1stIS2_ESt4lessISsESaIS2_EE6_M_endEv
FNDA:0,_ZNSt8_Rb_treeISsSt4pairIKSsSsESt10_Select1stIS2_ESt4lessISsESaIS2_EE7_S_leftEPSt18_Rb_tree_node_base
FNDA:0,_ZNSt8_Rb_treeISsSt4pairIKSsSsESt10_Select1stIS2_ESt4lessISsESaIS2_EE7_S_leftEPKSt18_Rb_tree_node_base
FNDA:0,_ZNSt8_Rb_treeISsSt4pairIKSsSsESt10_Select1stIS2_ESt4lessISsESaIS2_EE8_S_rightEPSt18_Rb_tree_node_base
FNDA:0,_ZNSt8_Rb_treeISsSt4pairIKSsSsESt10_Select1stIS2_ESt4lessISsESaIS2_EE8_S_rightEPKSt18_Rb_tree_node_base
FNDA:0,_ZNSt8_Rb_treeISsSt4pairIKSsSsESt10_Select1stIS2_ESt4lessISsESaIS2_EE10_S_minimumEPSt18_Rb_tree_node_base
FNDA:0,_ZNSt8_Rb_treeISsSt4pairIKSsSsESt10_Select1stIS2_ESt4lessISsESaIS2_EE10_S_maximumEPSt18_Rb_tree_node_base
FNDA:0,_ZNSt8_Rb_treeISsSt4pairIKSsSsESt10_Select1stIS2_ESt4lessISsESaIS2_EEC2ERKS8_
FNDA:0,_ZNSt8_Rb_treeISsSt4pairIKSsSsESt10_Select1stIS2_ESt4lessISsESaIS2_EE7_M_copyEPKSt13_Rb_tree_nodeIS2_EPSA_
FNDA:0,_ZNSt8_Rb_treeISsSt4pairIKSsSsESt10_Select1stIS2_ESt4lessISsESaIS2_EE8_M_eraseEPSt13_Rb_tree_nodeIS2_E
FNF:29
FNH:0
DA:102,0
DA:104,0
DA:105,0
DA:116,0
DA:118,0
DA:119,0
DA:131,0
DA:138,0
DA:140,0
DA:356,0
DA:357,0
DA:360,0
DA:361,0
DA:369,0
DA:370,0
DA:373,0
DA:374,0
DA:401,0
DA:403,0
DA:406,0
DA:407,0
DA:408,0
DA:410,=====
DA:412,=====
DA:413,=====
DA:415,0
DA:419,0
DA:421,0
DA:422,0
DA:423,0
DA:427,0
DA:429,0
DA:430,0
DA:431,0
DA:432,0
DA:433,0
DA:439,0
DA:450,0
DA:452,0
DA:453,0
DA:464,0
DA:466,0
DA:467,0
DA:468,0
DA:469,0
DA:470,0
DA:477,0
DA:478,0
DA:481,0
DA:482,0
DA:485,0
DA:486,0
DA:493,0
DA:494,0
DA:505,0
DA:508,0
DA:512,0
DA:513,0
DA:528,0
DA:529,0
DA:532,0
DA:533,0
DA:536,0
DA:537,0
DA:540,0
DA:541,0
DA:552,0
DA:553,0
DA:560,0
DA:561,0
DA:654,0
DA:655,0
DA:657,0
DA:659,0
DA:660,0
DA:661,0
DA:662,0
DA:664,0
DA:1083,0
DA:1087,0
DA:1088,0
DA:1092,0
DA:1093,0
DA:1094,0
DA:1095,0
DA:1097,0
DA:1099,0
DA:1100,0
DA:1101,0
DA:1102,0
DA:1103,0
DA:1104,0
DA:1105,0
DA:1108,=====
DA:1110,=====
DA:1111,=====
DA:1113,0
DA:1119,0
DA:1123,0
DA:1125,0
DA:1126,0
DA:1127,0
DA:1128,0
DA:1130,0
LF:104
LH:0
end_of_record
SF:/usr/include/c++/4.8/ext/atomicity.h
FN:48,_ZN9__gnu_cxxL18__exchange_and_addEPVii
FN:65,_ZN9__gnu_cxxL25__exchange_and_add_singleEPii
FN:78,_ZN9__gnu_cxxL27__exchange_and_add_dispatchEPii
FNDA:0,_ZN9__gnu_cxxL18__exchange_and_addEPVii
FNDA:0,_ZN9__gnu_cxxL25__exchange_and_add_singleEPii
FNDA:0,_ZN9__gnu_cxxL27__exchange_and_add_dispatchEPii
FNF:3
FNH:0
DA:48,0
DA:49,0
DA:65,0
DA:67,0
DA:68,0
DA:69,0
DA:78,0
DA:81,0
DA:82,0
DA:84,0
LF:10
LH:0
end_of_record
SF:/usr/include/c++/4.8/ext/new_allocator.h
FN:79,_ZN9__gnu_cxx13new_allocatorIcEC2Ev
FN:81,_ZN9__gnu_cxx13new_allocatorISt13_Rb_tree_nodeISt4pairIKSsSsEEEC2ERKS6_
FN:81,_ZN9__gnu_cxx13new_allocatorIcEC2ERKS1_
FN:86,_ZN9__gnu_cxx13new_allocatorIcED2Ev
FN:86,_ZN9__gnu_cxx13new_allocatorISt13_Rb_tree_nodeISt4pairIKSsSsEEED2Ev
FN:99,_ZN9__gnu_cxx13new_allocatorISt13_Rb_tree_nodeISt4pairIKSsSsEEE8allocateEmPKv
FN:109,_ZN9__gnu_cxx13new_allocatorISt13_Rb_tree_nodeISt4pairIKSsSsEEE10deallocateEPS5_m
FN:113,_ZNK9__gnu_cxx13new_allocatorISt13_Rb_tree_nodeISt4pairIKSsSsEEE8max_sizeEv
FN:119,_ZN9__gnu_cxx13new_allocatorISt13_Rb_tree_nodeISt4pairIKSsSsEEE9constructIS5_IRKS4_EEEvPT_DpOT0_
FN:124,_ZN9__gnu_cxx13new_allocatorISt13_Rb_tree_nodeISt4pairIKSsSsEEE7destroyIS5_EEvPT_
FNDA:0,_ZN9__gnu_cxx13new_allocatorIcEC2Ev
FNDA:0,_ZN9__gnu_cxx13new_allocatorISt13_Rb_tree_nodeISt4pairIKSsSsEEEC2ERKS6_
FNDA:0,_ZN9__gnu_cxx13new_allocatorIcEC2ERKS1_
FNDA:0,_ZN9__gnu_cxx13new_allocatorISt13_Rb_tree_nodeISt4pairIKSsSsEEED2Ev
FNDA:0,_ZN9__gnu_cxx13new_allocatorIcED2Ev
FNDA:0,_ZN9__gnu_cxx13new_allocatorISt13_Rb_tree_nodeISt4pairIKSsSsEEE8allocateEmPKv
FNDA:0,_ZN9__gnu_cxx13new_allocatorISt13_Rb_tree_nodeISt4pairIKSsSsEEE10deallocateEPS5_m
FNDA:0,_ZNK9__gnu_cxx13new_allocatorISt13_Rb_tree_nodeISt4pairIKSsSsEEE8max_sizeEv
FNDA:0,_ZN9__gnu_cxx13new_allocatorISt13_Rb_tree_nodeISt4pairIKSsSsEEE9constructIS5_IRKS4_EEEvPT_DpOT0_
FNDA:0,_ZN9__gnu_cxx13new_allocatorISt13_Rb_tree_nodeISt4pairIKSsSsEEE7destroyIS5_EEvPT_
FNF:10
FNH:0
DA:79,0
DA:81,0
DA:86,0
DA:99,0
DA:101,0
DA:102,0
DA:104,0
DA:109,0
DA:110,0
DA:113,0
DA:114,0
DA:119,0
DA:120,0
DA:124,0
LF:14
LH:0
end_of_record
SF:/usr/include/c++/4.8/iostream
DA:74,4
LF:1
LH:1
end_of_record
SF:/usr/include/c++/4.8/new
FN:109,_ZnwmPv
FN:115,_ZdlPvS_
FNDA:0,_ZnwmPv
FNDA:0,_ZdlPvS_
FNF:2
FNH:0
DA:109,0
DA:110,0
DA:115,0
LF:3
LH:0
end_of_record
SF:/usr/include/x86_64-linux-gnu/c++/4.8/bits/gthr-default.h
FN:247,_ZL18__gthread_active_pv
FNDA:0,_ZL18__gthread_active_pv
FNF:1
FNH:0
DA:247,0
DA:251,0
LF:2
LH:0
end_of_record
TN:
SF:/home/taller2-appserver/Appserver/src/servicios/CreatorServicio.cpp
FN:3,_ZN15CreatorServicioC2Ev
FN:8,_ZN15CreatorServicioD2Ev
FN:8,_ZN15CreatorServicioD0Ev
FN:13,_ZN15CreatorServicio11getServicioEv
FN:15,_Z41__static_initialization_and_destruction_0ii
FN:15,_GLOBAL__sub_I__ZN15CreatorServicioC2Ev
FNDA:14,_ZN15CreatorServicioC2Ev
FNDA:0,_ZN15CreatorServicioD0Ev
FNDA:14,_ZN15CreatorServicioD2Ev
FNDA:14,_ZN15CreatorServicio11getServicioEv
FNDA:4,_GLOBAL__sub_I__ZN15CreatorServicioC2Ev
FNDA:4,_Z41__static_initialization_and_destruction_0ii
FNF:6
FNH:5
DA:3,14
DA:6,14
DA:8,14
DA:11,14
DA:13,14
DA:14,14
DA:15,12
LF:7
LH:7
end_of_record
SF:/usr/include/c++/4.8/iostream
DA:74,4
LF:1
LH:1
end_of_record
TN:
SF:/home/taller2-appserver/Appserver/src/servicios/MensajeHTTP.h
FN:11,_ZN11MensajeHTTPaSERKS_
FNDA:0,_ZN11MensajeHTTPaSERKS_
FNF:1
FNH:0
DA:11,0
LF:1
LH:0
end_of_record
SF:/home/taller2-appserver/Appserver/src/servicios/MensajeHTTPRequest.h
FN:9,_ZN18MensajeHTTPRequestaSERKS_
FNDA:0,_ZN18MensajeHTTPRequestaSERKS_
FNF:1
FNH:0
DA:9,0
LF:1
LH:0
end_of_record
SF:/home/taller2-appserver/Appserver/src/servicios/servicioRegistro.cpp
FN:13,_ZN16servicioRegistroC2EP14SharedDataBase18MensajeHTTPRequestP22CredencialesDeUsuarios
FN:24,_ZN16servicioRegistro15atenderRegistroEv
FN:41,_ZN16servicioRegistro16realizarRegistroESsSs
FN:105,_ZN16servicioRegistro22agregarInteresAlJarrayESsSsR9JsonArray
FN:113,_ZN16servicioRegistro20crearMensajeParaAltaESs
FN:179,_ZN16servicioRegistroD0Ev
FN:179,_ZN16servicioRegistroD2Ev
FN:182,_GLOBAL__sub_I__ZN16servicioRegistroC2EP14SharedDataBase18MensajeHTTPRequestP22CredencialesDeUsuarios
FN:182,_Z41__static_initialization_and_destruction_0ii
FNDA:2,_ZN16servicioRegistroC2EP14SharedDataBase18MensajeHTTPRequestP22CredencialesDeUsuarios
FNDA:2,_ZN16servicioRegistro15atenderRegistroEv
FNDA:0,_ZN16servicioRegistro16realizarRegistroESsSs
FNDA:0,_ZN16servicioRegistro22agregarInteresAlJarrayESsSsR9JsonArray
FNDA:0,_ZN16servicioRegistro20crearMensajeParaAltaESs
FNDA:2,_ZN16servicioRegistroD0Ev
FNDA:2,_ZN16servicioRegistroD2Ev
FNDA:4,_GLOBAL__sub_I__ZN16servicioRegistroC2EP14SharedDataBase18MensajeHTTPRequestP22CredencialesDeUsuarios
FNDA:4,_Z41__static_initialization_and_destruction_0ii
FNF:9
FNH:6
DA:13,2
DA:14,2
DA:15,2
DA:16,2
DA:19,2
DA:20,2
DA:21,2
DA:24,2
DA:26,2
DA:27,4
DA:29,2
DA:31,2
DA:32,2
DA:33,2
DA:37,0
DA:38,2
DA:39,2
DA:41,0
DA:58,0
DA:78,0
DA:79,0
DA:80,0
DA:81,0
DA:82,0
DA:87,0
DA:88,0
DA:89,0
DA:91,0
DA:93,0
DA:105,0
DA:106,0
DA:107,0
DA:108,0
DA:109,0
DA:110,0
DA:113,0
DA:120,0
DA:121,0
DA:122,0
DA:123,0
DA:125,0
DA:126,0
DA:128,0
DA:129,0
DA:130,0
DA:132,0
DA:133,0
DA:134,0
DA:135,0
DA:137,0
DA:138,0
DA:139,0
DA:141,0
DA:167,0
DA:174,0
DA:175,0
DA:179,4
DA:182,16
LF:58
LH:18
end_of_record
SF:/usr/include/c++/4.8/bits/alloc_traits.h
FN:253,_ZNSt16allocator_traitsISaISt13_Rb_tree_nodeISt4pairIKSsSsEEEE12_S_constructIS4_IRKS3_EEENSt9enable_ifIXsrNS6_18__construct_helperIT_IDpT0_EEE5valueEvE4typeERS5_PSC_DpOSD_
FN:391,_ZNSt16allocator_traitsISaISt13_Rb_tree_nodeISt4pairIKSsSsEEEE9constructIS4_IRKS3_EEEDTcl12_S_constructfp_fp0_spcl7forwardIT0_Efp1_EEERS5_PT_DpOSA_
FNDA:0,_ZNSt16allocator_traitsISaISt13_Rb_tree_nodeISt4pairIKSsSsEEEE12_S_constructIS4_IRKS3_EEENSt9enable_ifIXsrNS6_18__construct_helperIT_IDpT0_EEE5valueEvE4typeERS5_PSC_DpOSD_
FNDA:0,_ZNSt16allocator_traitsISaISt13_Rb_tree_nodeISt4pairIKSsSsEEEE9constructIS4_IRKS3_EEEDTcl12_S_constructfp_fp0_spcl7forwardIT0_Efp1_EEERS5_PT_DpOSA_
FNF:2
FNH:0
DA:253,0
DA:254,0
DA:391,0
DA:393,0
LF:4
LH:0
end_of_record
SF:/usr/include/c++/4.8/bits/basic_string.h
FN:272,_ZNSs12_Alloc_hiderD2Ev
FN:2402,_ZStplIcSt11char_traitsIcESaIcEESbIT_T0_T1_ERKS6_PKS3_
FNDA:0,_ZNSs12_Alloc_hiderD2Ev
FNDA:0,_ZStplIcSt11char_traitsIcESaIcEESbIT_T0_T1_ERKS6_PKS3_
FNF:2
FNH:0
DA:272,0
DA:2402,0
DA:2405,0
DA:2406,0
DA:2407,0
LF:5
LH:0
end_of_record
SF:/usr/include/c++/4.8/bits/char_traits.h
FN:258,_ZNSt11char_traitsIcE6lengthEPKc
FNDA:0,_ZNSt11char_traitsIcE6lengthEPKc
FNF:1
FNH:0
DA:258,0
DA:259,0
LF:2
LH:0
end_of_record
SF:/usr/include/c++/4.8/bits/ios_base.h
FN:163,_ZStorSt12_Ios_IostateS_
FNDA:0,_ZStorSt12_Ios_IostateS_
FNF:1
FNH:0
DA:163,0
DA:164,0
LF:2
LH:0
end_of_record
SF:/usr/include/c++/4.8/bits/move.h
FN:76,_ZSt7forwardIRKSt4pairIKSsSsEEOT_RNSt16remove_referenceIS5_E4typeE
FNDA:0,_ZSt7forwardIRKSt4pairIKSsSsEEOT_RNSt16remove_referenceIS5_E4typeE
FNF:1
FNH:0
DA:76,0
DA:77,0
LF:2
LH:0
end_of_record
SF:/usr/include/c++/4.8/bits/stl_map.h
FN:264,_ZNSt3mapISsSsSt4lessISsESaISt4pairIKSsSsEEEaSERKS6_
FNDA:0,_ZNSt3mapISsSsSt4lessISsESaISt4pairIKSsSsEEEaSERKS6_
FNF:1
FNH:0
DA:264,0
DA:266,0
DA:267,0
LF:3
LH:0
end_of_record
SF:/usr/include/c++/4.8/bits/stl_pair.h
FN:96,_ZNSt4pairIKSsSsED2Ev
FN:127,_ZNSt4pairIKSsSsEC2ERKS1_
FNDA:0,_ZNSt4pairIKSsSsED2Ev
FNDA:0,_ZNSt4pairIKSsSsEC2ERKS1_
FNF:2
FNH:0
DA:96,0
DA:127,0
LF:2
LH:0
end_of_record
SF:/usr/include/c++/4.8/bits/stl_tree.h
FN:102,_ZNSt18_Rb_tree_node_base10_S_minimumEPS_
FN:116,_ZNSt18_Rb_tree_node_base10_S_maximumEPS_
FN:131,_ZNSt13_Rb_tree_nodeISt4pairIKSsSsEED2Ev
FN:138,_ZNSt13_Rb_tree_nodeISt4pairIKSsSsEEC2IIRKS2_EEEDpOT_
FN:356,_ZNSt8_Rb_treeISsSt4pairIKSsSsESt10_Select1stIS2_ESt4lessISsESaIS2_EE21_M_get_Node_allocatorEv
FN:369,_ZNSt8_Rb_treeISsSt4pairIKSsSsESt10_Select1stIS2_ESt4lessISsESaIS2_EE11_M_get_nodeEv
FN:373,_ZNSt8_Rb_treeISsSt4pairIKSsSsESt10_Select1stIS2_ESt4lessISsESaIS2_EE11_M_put_nodeEPSt13_Rb_tree_nodeIS2_E
FN:401,_ZNSt8_Rb_treeISsSt4pairIKSsSsESt10_Select1stIS2_ESt4lessISsESaIS2_EE14_M_create_nodeIIRKS2_EEEPSt13_Rb_tree_nodeIS2_EDpOT_
FN:419,_ZNSt8_Rb_treeISsSt4pairIKSsSsESt10_Select1stIS2_ESt4lessISsESaIS2_EE15_M_destroy_nodeEPSt13_Rb_tree_nodeIS2_E
FN:427,_ZNSt8_Rb_treeISsSt4pairIKSsSsESt10_Select1stIS2_ESt4lessISsESaIS2_EE13_M_clone_nodeEPKSt13_Rb_tree_nodeIS2_E
FN:477,_ZNSt8_Rb_treeISsSt4pairIKSsSsESt10_Select1stIS2_ESt4lessISsESaIS2_EE7_M_rootEv
FN:481,_ZNKSt8_Rb_treeISsSt4pairIKSsSsESt10_Select1stIS2_ESt4lessISsESaIS2_EE7_M_rootEv
FN:485,_ZNSt8_Rb_treeISsSt4pairIKSsSsESt10_Select1stIS2_ESt4lessISsESaIS2_EE11_M_leftmostEv
FN:493,_ZNSt8_Rb_treeISsSt4pairIKSsSsESt10_Select1stIS2_ESt4lessISsESaIS2_EE12_M_rightmostEv
FN:501,_ZNSt8_Rb_treeISsSt4pairIKSsSsESt10_Select1stIS2_ESt4lessISsESaIS2_EE8_M_beginEv
FN:505,_ZNKSt8_Rb_treeISsSt4pairIKSsSsESt10_Select1stIS2_ESt4lessISsESaIS2_EE8_M_beginEv
FN:512,_ZNSt8_Rb_treeISsSt4pairIKSsSsESt10_Select1stIS2_ESt4lessISsESaIS2_EE6_M_endEv
FN:528,_ZNSt8_Rb_treeISsSt4pairIKSsSsESt10_Select1stIS2_ESt4lessISsESaIS2_EE7_S_leftEPSt18_Rb_tree_node_base
FN:532,_ZNSt8_Rb_treeISsSt4pairIKSsSsESt10_Select1stIS2_ESt4lessISsESaIS2_EE7_S_leftEPKSt18_Rb_tree_node_base
FN:536,_ZNSt8_Rb_treeISsSt4pairIKSsSsESt10_Select1stIS2_ESt4lessISsESaIS2_EE8_S_rightEPSt18_Rb_tree_node_base
FN:540,_ZNSt8_Rb_treeISsSt4pairIKSsSsESt10_Select1stIS2_ESt4lessISsESaIS2_EE8_S_rightEPKSt18_Rb_tree_node_base
FN:552,_ZNSt8_Rb_treeISsSt4pairIKSsSsESt10_Select1stIS2_ESt4lessISsESaIS2_EE10_S_minimumEPSt18_Rb_tree_node_base
FN:560,_ZNSt8_Rb_treeISsSt4pairIKSsSsESt10_Select1stIS2_ESt4lessISsESaIS2_EE10_S_maximumEPSt18_Rb_tree_node_base
FN:858,_ZNSt8_Rb_treeISsSt4pairIKSsSsESt10_Select1stIS2_ESt4lessISsESaIS2_EE5clearEv
FN:987,_ZNSt8_Rb_treeISsSt4pairIKSsSsESt10_Select1stIS2_ESt4lessISsESaIS2_EEaSERKS8_
FN:1083,_ZNSt8_Rb_treeISsSt4pairIKSsSsESt10_Select1stIS2_ESt4lessISsESaIS2_EE7_M_copyEPKSt13_Rb_tree_nodeIS2_EPSA_
FN:1119,_ZNSt8_Rb_treeISsSt4pairIKSsSsESt10_Select1stIS2_ESt4lessISsESaIS2_EE8_M_eraseEPSt13_Rb_tree_nodeIS2_E
FNDA:0,_ZNSt18_Rb_tree_node_base10_S_minimumEPS_
FNDA:0,_ZNSt18_Rb_tree_node_base10_S_maximumEPS_
FNDA:0,_ZNSt13_Rb_tree_nodeISt4pairIKSsSsEED2Ev
FNDA:0,_ZNSt13_Rb_tree_nodeISt4pairIKSsSsEEC2IIRKS2_EEEDpOT_
FNDA:0,_ZNSt8_Rb_treeISsSt4pairIKSsSsESt10_Select1stIS2_ESt4lessISsESaIS2_EE21_M_get_Node_allocatorEv
FNDA:0,_ZNSt8_Rb_treeISsSt4pairIKSsSsESt10_Select1stIS2_ESt4lessISsESaIS2_EE11_M_get_nodeEv
FNDA:0,_ZNSt8_Rb_treeISsSt4pairIKSsSsESt10_Select1stIS2_ESt4lessISsESaIS2_EE11_M_put_nodeEPSt13_Rb_tree_nodeIS2_E
FNDA:0,_ZNSt8_Rb_treeISsSt4pairIKSsSsESt10_Select1stIS2_ESt4lessISsESaIS2_EE14_M_create_nodeIIRKS2_EEEPSt13_Rb_tree_nodeIS2_EDpOT_
FNDA:0,_ZNSt8_Rb_treeISsSt4pairIKSsSsESt10_Select1stIS2_ESt4lessISsESaIS2_EE15_M_destroy_nodeEPSt13_Rb_tree_nodeIS2_E
FNDA:0,_ZNSt8_Rb_treeISsSt4pairIKSsSsESt10_Select1stIS2_ESt4lessISsESaIS2_EE13_M_clone_nodeEPKSt13_Rb_tree_nodeIS2_E
FNDA:0,_ZNSt8_Rb_treeISsSt4pairIKSsSsESt10_Select1stIS2_ESt4lessISsESaIS2_EE7_M_rootEv
FNDA:0,_ZNKSt8_Rb_treeISsSt4pairIKSsSsESt10_Select1stIS2_ESt4lessISsESaIS2_EE7_M_rootEv
FNDA:0,_ZNSt8_Rb_treeISsSt4pairIKSsSsESt10_Select1stIS2_ESt4lessISsESaIS2_EE11_M_leftmostEv
FNDA:0,_ZNSt8_Rb_treeISsSt4pairIKSsSsESt10_Select1stIS2_ESt4lessISsESaIS2_EE12_M_rightmostEv
FNDA:0,_ZNSt8_Rb_treeISsSt4pairIKSsSsESt10_Select1stIS2_ESt4lessISsESaIS2_EE8_M_beginEv
FNDA:0,_ZNKSt8_Rb_treeISsSt4pairIKSsSsESt10_Select1stIS2_ESt4lessISsESaIS2_EE8_M_beginEv
FNDA:0,_ZNSt8_Rb_treeISsSt4pairIKSsSsESt10_Select1stIS2_ESt4lessISsESaIS2_EE6_M_endEv
FNDA:0,_ZNSt8_Rb_treeISsSt4pairIKSsSsESt10_Select1stIS2_ESt4lessISsESaIS2_EE7_S_leftEPSt18_Rb_tree_node_base
FNDA:0,_ZNSt8_Rb_treeISsSt4pairIKSsSsESt10_Select1stIS2_ESt4lessISsESaIS2_EE7_S_leftEPKSt18_Rb_tree_node_base
FNDA:0,_ZNSt8_Rb_treeISsSt4pairIKSsSsESt10_Select1stIS2_ESt4lessISsESaIS2_EE8_S_rightEPSt18_Rb_tree_node_base
FNDA:0,_ZNSt8_Rb_treeISsSt4pairIKSsSsESt10_Select1stIS2_ESt4lessISsESaIS2_EE8_S_rightEPKSt18_Rb_tree_node_base
FNDA:0,_ZNSt8_Rb_treeISsSt4pairIKSsSsESt10_Select1stIS2_ESt4lessISsESaIS2_EE10_S_minimumEPSt18_Rb_tree_node_base
FNDA:0,_ZNSt8_Rb_treeISsSt4pairIKSsSsESt10_Select1stIS2_ESt4lessISsESaIS2_EE10_S_maximumEPSt18_Rb_tree_node_base
FNDA:0,_ZNSt8_Rb_treeISsSt4pairIKSsSsESt10_Select1stIS2_ESt4lessISsESaIS2_EE5clearEv
FNDA:0,_ZNSt8_Rb_treeISsSt4pairIKSsSsESt10_Select1stIS2_ESt4lessISsESaIS2_EEaSERKS8_
FNDA:0,_ZNSt8_Rb_treeISsSt4pairIKSsSsESt10_Select1stIS2_ESt4lessISsESaIS2_EE7_M_copyEPKSt13_Rb_tree_nodeIS2_EPSA_
FNDA:0,_ZNSt8_Rb_treeISsSt4pairIKSsSsESt10_Select1stIS2_ESt4lessISsESaIS2_EE8_M_eraseEPSt13_Rb_tree_nodeIS2_E
FNF:27
FNH:0
DA:102,0
DA:104,0
DA:105,0
DA:116,0
DA:118,0
DA:119,0
DA:131,0
DA:138,0
DA:140,0
DA:356,0
DA:357,0
DA:369,0
DA:370,0
DA:373,0
DA:374,0
DA:401,0
DA:403,0
DA:406,0
DA:407,0
DA:408,0
DA:410,=====
DA:412,=====
DA:413,=====
DA:415,0
DA:419,0
DA:421,0
DA:422,0
DA:423,0
DA:427,0
DA:429,0
DA:430,0
DA:431,0
DA:432,0
DA:433,0
DA:477,0
DA:478,0
DA:481,0
DA:482,0
DA:485,0
DA:486,0
DA:493,0
DA:494,0
DA:501,0
DA:502,0
DA:505,0
DA:508,0
DA:512,0
DA:513,0
DA:528,0
DA:529,0
DA:532,0
DA:533,0
DA:536,0
DA:537,0
DA:540,0
DA:541,0
DA:552,0
DA:553,0
DA:560,0
DA:561,0
DA:858,0
DA:860,0
DA:861,0
DA:862,0
DA:863,0
DA:864,0
DA:865,0
DA:987,0
DA:990,0
DA:993,0
DA:995,0
DA:997,0
DA:998,0
DA:999,0
DA:1000,0
DA:1003,0
DA:1083,0
DA:1087,0
DA:1088,0
DA:1092,0
DA:1093,0
DA:1094,0
DA:1095,0
DA:1097,0
DA:1099,0
DA:1100,0
DA:1101,0
DA:1102,0
DA:1103,0
DA:1104,0
DA:1105,0
DA:1108,=====
DA:1110,=====
DA:1111,=====
DA:1113,0
DA:1119,0
DA:1123,0
DA:1125,0
DA:1126,0
DA:1127,0
DA:1128,0
DA:1130,0
LF:102
LH:0
end_of_record
SF:/usr/include/c++/4.8/ext/atomicity.h
FN:48,_ZN9__gnu_cxxL18__exchange_and_addEPVii
FN:65,_ZN9__gnu_cxxL25__exchange_and_add_singleEPii
FN:78,_ZN9__gnu_cxxL27__exchange_and_add_dispatchEPii
FNDA:0,_ZN9__gnu_cxxL18__exchange_and_addEPVii
FNDA:0,_ZN9__gnu_cxxL25__exchange_and_add_singleEPii
FNDA:0,_ZN9__gnu_cxxL27__exchange_and_add_dispatchEPii
FNF:3
FNH:0
DA:48,0
DA:49,0
DA:65,0
DA:67,0
DA:68,0
DA:69,0
DA:78,0
DA:81,0
DA:82,0
DA:84,0
LF:10
LH:0
end_of_record
SF:/usr/include/c++/4.8/ext/new_allocator.h
FN:79,_ZN9__gnu_cxx13new_allocatorIcEC2Ev
FN:81,_ZN9__gnu_cxx13new_allocatorIcEC2ERKS1_
FN:86,_ZN9__gnu_cxx13new_allocatorIcED2Ev
FN:99,_ZN9__gnu_cxx13new_allocatorISt13_Rb_tree_nodeISt4pairIKSsSsEEE8allocateEmPKv
FN:109,_ZN9__gnu_cxx13new_allocatorISt13_Rb_tree_nodeISt4pairIKSsSsEEE10deallocateEPS5_m
FN:113,_ZNK9__gnu_cxx13new_allocatorISt13_Rb_tree_nodeISt4pairIKSsSsEEE8max_sizeEv
FN:119,_ZN9__gnu_cxx13new_allocatorISt13_Rb_tree_nodeISt4pairIKSsSsEEE9constructIS5_IRKS4_EEEvPT_DpOT0_
FN:124,_ZN9__gnu_cxx13new_allocatorISt13_Rb_tree_nodeISt4pairIKSsSsEEE7destroyIS5_EEvPT_
FNDA:0,_ZN9__gnu_cxx13new_allocatorIcEC2Ev
FNDA:0,_ZN9__gnu_cxx13new_allocatorIcEC2ERKS1_
FNDA:0,_ZN9__gnu_cxx13new_allocatorIcED2Ev
FNDA:0,_ZN9__gnu_cxx13new_allocatorISt13_Rb_tree_nodeISt4pairIKSsSsEEE8allocateEmPKv
FNDA:0,_ZN9__gnu_cxx13new_allocatorISt13_Rb_tree_nodeISt4pairIKSsSsEEE10deallocateEPS5_m
FNDA:0,_ZNK9__gnu_cxx13new_allocatorISt13_Rb_tree_nodeISt4pairIKSsSsEEE8max_sizeEv
FNDA:0,_ZN9__gnu_cxx13new_allocatorISt13_Rb_tree_nodeISt4pairIKSsSsEEE9constructIS5_IRKS4_EEEvPT_DpOT0_
FNDA:0,_ZN9__gnu_cxx13new_allocatorISt13_Rb_tree_nodeISt4pairIKSsSsEEE7destroyIS5_EEvPT_
FNF:8
FNH:0
DA:79,0
DA:81,0
DA:86,0
DA:99,0
DA:101,0
DA:102,0
DA:104,0
DA:109,0
DA:110,0
DA:113,0
DA:114,0
DA:119,0
DA:120,0
DA:124,0
LF:14
LH:0
end_of_record
SF:/usr/include/c++/4.8/iostream
DA:74,4
LF:1
LH:1
end_of_record
SF:/usr/include/c++/4.8/new
FN:109,_ZnwmPv
FN:115,_ZdlPvS_
FNDA:0,_ZnwmPv
FNDA:0,_ZdlPvS_
FNF:2
FNH:0
DA:109,0
DA:110,0
DA:115,0
LF:3
LH:0
end_of_record
SF:/usr/include/x86_64-linux-gnu/c++/4.8/bits/gthr-default.h
FN:247,_ZL18__gthread_active_pv
FNDA:0,_ZL18__gthread_active_pv
FNF:1
FNH:0
DA:247,0
DA:251,0
LF:2
LH:0
end_of_record
TN:
SF:/home/taller2-appserver/Appserver/src/servicios/JsonArray.cpp
FN:3,_ZN9JsonArrayC2Ev
FN:7,_ZN9JsonArrayC2ESs
FN:13,_ZN9JsonArrayixEi
FN:18,_ZN9JsonArray7agregarER9JsonValor
FN:22,_ZN9JsonArray7agregarERSs
FN:25,_ZN9JsonArray7agregarERi
FN:30,_ZN9JsonArrayD2Ev
FN:30,_ZN9JsonArrayD0Ev
FNDA:628,_ZN9JsonArrayC2Ev
FNDA:403,_ZN9JsonArrayC2ESs
FNDA:1200,_ZN9JsonArrayixEi
FNDA:573,_ZN9JsonArray7agregarER9JsonValor
FNDA:192,_ZN9JsonArray7agregarERSs
FNDA:96,_ZN9JsonArray7agregarERi
FNDA:0,_ZN9JsonArrayD0Ev
FNDA:1031,_ZN9JsonArrayD2Ev
FNF:8
FNH:7
DA:3,628
DA:4,628
DA:5,628
DA:7,403
DA:9,403
DA:13,1200
DA:14,1200
DA:18,573
DA:19,573
DA:20,573
DA:22,192
DA:23,192
DA:24,192
DA:25,96
DA:26,96
DA:27,96
DA:30,1031
DA:33,1031
LF:18
LH:18
end_of_record
SF:/usr/include/c++/4.8/bits/basic_string.h
FN:272,_ZNSs12_Alloc_hiderD2Ev
FNDA:0,_ZNSs12_Alloc_hiderD2Ev
FNF:1
FNH:0
DA:272,0
LF:1
LH:0
end_of_record
SF:/usr/include/c++/4.8/ext/atomicity.h
FN:48,_ZN9__gnu_cxxL18__exchange_and_addEPVii
FN:65,_ZN9__gnu_cxxL25__exchange_and_add_singleEPii
FN:78,_ZN9__gnu_cxxL27__exchange_and_add_dispatchEPii
FNDA:0,_ZN9__gnu_cxxL18__exchange_and_addEPVii
FNDA:0,_ZN9__gnu_cxxL25__exchange_and_add_singleEPii
FNDA:0,_ZN9__gnu_cxxL27__exchange_and_add_dispatchEPii
FNF:3
FNH:0
DA:48,0
DA:49,0
DA:65,0
DA:67,0
DA:68,0
DA:69,0
DA:78,0
DA:81,0
DA:82,0
DA:84,0
LF:10
LH:0
end_of_record
SF:/usr/include/c++/4.8/ext/new_allocator.h
FN:81,_ZN9__gnu_cxx13new_allocatorIcEC2ERKS1_
FN:86,_ZN9__gnu_cxx13new_allocatorIcED2Ev
FNDA:0,_ZN9__gnu_cxx13new_allocatorIcEC2ERKS1_
FNDA:0,_ZN9__gnu_cxx13new_allocatorIcED2Ev
FNF:2
FNH:0
DA:81,0
DA:86,0
LF:2
LH:0
end_of_record
SF:/usr/include/x86_64-linux-gnu/c++/4.8/bits/gthr-default.h
FN:247,_ZL18__gthread_active_pv
FNDA:0,_ZL18__gthread_active_pv
FNF:1
FNH:0
DA:247,0
DA:251,0
LF:2
LH:0
end_of_record
TN:
SF:/home/taller2-appserver/Appserver/src/servicios/RespuestaDelRegistro.cpp
FN:3,_ZN20RespuestaDelRegistroC2Ev
FN:8,_ZN20RespuestaDelRegistroD2Ev
FN:8,_ZN20RespuestaDelRegistroD0Ev
FN:12,_ZN20RespuestaDelRegistro28setRespuestaUsuarioExistenteEv
FN:17,_ZN20RespuestaDelRegistro32setRespuestaErrorDelSharedServerEv
FN:22,_ZN20RespuestaDelRegistro28setRespuestaRegistroCorrectoEv
FN:25,_GLOBAL__sub_I__ZN20RespuestaDelRegistroC2Ev
FN:25,_Z41__static_initialization_and_destruction_0ii
FNDA:2,_ZN20RespuestaDelRegistroC2Ev
FNDA:2,_ZN20RespuestaDelRegistroD0Ev
FNDA:2,_ZN20RespuestaDelRegistroD2Ev
FNDA:2,_ZN20RespuestaDelRegistro28setRespuestaUsuarioExistenteEv
FNDA:0,_ZN20RespuestaDelRegistro32setRespuestaErrorDelSharedServerEv
FNDA:0,_ZN20RespuestaDelRegistro28setRespuestaRegistroCorrectoEv
FNDA:5,_GLOBAL__sub_I__ZN20RespuestaDelRegistroC2Ev
FNDA:5,_Z41__static_initialization_and_destruction_0ii
FNF:8
FNH:6
DA:3,2
DA:6,2
DA:8,4
DA:11,4
DA:12,2
DA:13,2
DA:14,2
DA:15,2
DA:17,0
DA:18,0
DA:19,0
DA:20,0
DA:22,0
DA:23,0
DA:24,0
DA:25,15
LF:16
LH:9
end_of_record
SF:/usr/include/c++/4.8/bits/basic_string.h
FN:272,_ZNSs12_Alloc_hiderD2Ev
FNDA:0,_ZNSs12_Alloc_hiderD2Ev
FNF:1
FNH:0
DA:272,0
LF:1
LH:0
end_of_record
SF:/usr/include/c++/4.8/ext/atomicity.h
FN:48,_ZN9__gnu_cxxL18__exchange_and_addEPVii
FN:65,_ZN9__gnu_cxxL25__exchange_and_add_singleEPii
FN:78,_ZN9__gnu_cxxL27__exchange_and_add_dispatchEPii
FNDA:0,_ZN9__gnu_cxxL18__exchange_and_addEPVii
FNDA:0,_ZN9__gnu_cxxL25__exchange_and_add_singleEPii
FNDA:0,_ZN9__gnu_cxxL27__exchange_and_add_dispatchEPii
FNF:3
FNH:0
DA:48,0
DA:49,0
DA:65,0
DA:67,0
DA:68,0
DA:69,0
DA:78,0
DA:81,0
DA:82,0
DA:84,0
LF:10
LH:0
end_of_record
SF:/usr/include/c++/4.8/ext/new_allocator.h
FN:79,_ZN9__gnu_cxx13new_allocatorIcEC2Ev
FN:81,_ZN9__gnu_cxx13new_allocatorIcEC2ERKS1_
FN:86,_ZN9__gnu_cxx13new_allocatorIcED2Ev
FNDA:0,_ZN9__gnu_cxx13new_allocatorIcEC2Ev
FNDA:0,_ZN9__gnu_cxx13new_allocatorIcEC2ERKS1_
FNDA:0,_ZN9__gnu_cxx13new_allocatorIcED2Ev
FNF:3
FNH:0
DA:79,0
DA:81,0
DA:86,0
LF:3
LH:0
end_of_record
SF:/usr/include/c++/4.8/iostream
DA:74,5
LF:1
LH:1
end_of_record
SF:/usr/include/x86_64-linux-gnu/c++/4.8/bits/gthr-default.h
FN:247,_ZL18__gthread_active_pv
FNDA:0,_ZL18__gthread_active_pv
FNF:1
FNH:0
DA:247,0
DA:251,0
LF:2
LH:0
end_of_record
TN:
SF:/home/taller2-appserver/Appserver/src/servicios/CreatorChat.cpp
FN:3,_ZN11CreatorChatC2EP9MensajeroP18MensajeHTTPRequestP18SesionesDeUsuariosP14Conversaciones
FN:20,_ZN11CreatorChatD2Ev
FN:20,_ZN11CreatorChatD0Ev
FN:23,_Z41__static_initialization_and_destruction_0ii
FN:23,_GLOBAL__sub_I__ZN11CreatorChatC2EP9MensajeroP18MensajeHTTPRequestP18SesionesDeUsuariosP14Conversaciones
FNDA:2,_ZN11CreatorChatC2EP9MensajeroP18MensajeHTTPRequestP18SesionesDeUsuariosP14Conversaciones
FNDA:2,_ZN11CreatorChatD0Ev
FNDA:2,_ZN11CreatorChatD2Ev
FNDA:4,_GLOBAL__sub_I__ZN11CreatorChatC2EP9MensajeroP18MensajeHTTPRequestP18SesionesDeUsuariosP14Conversaciones
FNDA:4,_Z41__static_initialization_and_destruction_0ii
FNF:5
FNH:5
DA:3,2
DA:5,2
DA:6,4
DA:7,4
DA:12,2
DA:17,2
DA:18,2
DA:20,4
DA:23,16
LF:9
LH:9
end_of_record
SF:/usr/include/c++/4.8/bits/basic_string.h
FN:272,_ZNSs12_Alloc_hiderD2Ev
FNDA:0,_ZNSs12_Alloc_hiderD2Ev
FNF:1
FNH:0
DA:272,0
LF:1
LH:0
end_of_record
SF:/usr/include/c++/4.8/ext/atomicity.h
FN:48,_ZN9__gnu_cxxL18__exchange_and_addEPVii
FN:65,_ZN9__gnu_cxxL25__exchange_and_add_singleEPii
FN:78,_ZN9__gnu_cxxL27__exchange_and_add_dispatchEPii
FNDA:0,_ZN9__gnu_cxxL18__exchange_and_addEPVii
FNDA:0,_ZN9__gnu_cxxL25__exchange_and_add_singleEPii
FNDA:0,_ZN9__gnu_cxxL27__exchange_and_add_dispatchEPii
FNF:3
FNH:0
DA:48,0
DA:49,0
DA:65,0
DA:67,0
DA:68,0
DA:69,0
DA:78,0
DA:81,0
DA:82,0
DA:84,0
LF:10
LH:0
end_of_record
SF:/usr/include/c++/4.8/ext/new_allocator.h
FN:79,_ZN9__gnu_cxx13new_allocatorIcEC2Ev
FN:81,_ZN9__gnu_cxx13new_allocatorIcEC2ERKS1_
FN:86,_ZN9__gnu_cxx13new_allocatorIcED2Ev
FNDA:0,_ZN9__gnu_cxx13new_allocatorIcEC2Ev
FNDA:0,_ZN9__gnu_cxx13new_allocatorIcEC2ERKS1_
FNDA:0,_ZN9__gnu_cxx13new_allocatorIcED2Ev
FNF:3
FNH:0
DA:79,0
DA:81,0
DA:86,0
LF:3
LH:0
end_of_record
SF:/usr/include/c++/4.8/iostream
DA:74,4
LF:1
LH:1
end_of_record
SF:/usr/include/x86_64-linux-gnu/c++/4.8/bits/gthr-default.h
FN:247,_ZL18__gthread_active_pv
FNDA:0,_ZL18__gthread_active_pv
FNF:1
FNH:0
DA:247,0
DA:251,0
LF:2
LH:0
end_of_record
TN:
SF:/home/taller2-appserver/Appserver/src/servicios/JsonArray.h
FN:8,_ZN9JsonArrayaSERKS_
FNDA:403,_ZN9JsonArrayaSERKS_
FNF:1
FNH:1
DA:8,403
LF:1
LH:1
end_of_record
SF:/home/taller2-appserver/Appserver/src/servicios/JsonValor.h
FN:10,_ZN9JsonValoraSERKS_
FNDA:403,_ZN9JsonValoraSERKS_
FNF:1
FNH:1
DA:10,403
LF:1
LH:1
end_of_record
SF:/home/taller2-appserver/Appserver/src/servicios/Mensajes.cpp
FN:5,_ZN8MensajesC2Ev
FN:20,_ZN8MensajesC2ESs
FN:24,_ZN8MensajesD0Ev
FN:24,_ZN8MensajesD2Ev
FN:29,_ZN8Mensajes12indiceValidoEi
FN:33,_ZN8Mensajes9getEmisorEi
FN:49,_ZN8Mensajes10getMensajeEi
FN:69,_ZN8Mensajes8toStringEv
FN:73,_ZN8Mensajes10getTamanioEv
FN:77,_ZN8Mensajes14agregarMensajeESsSs
FNDA:113,_ZN8MensajesC2Ev
FNDA:403,_ZN8MensajesC2ESs
FNDA:0,_ZN8MensajesD0Ev
FNDA:516,_ZN8MensajesD2Ev
FNDA:1148,_ZN8Mensajes12indiceValidoEi
FNDA:587,_ZN8Mensajes9getEmisorEi
FNDA:561,_ZN8Mensajes10getMensajeEi
FNDA:291,_ZN8Mensajes8toStringEv
FNDA:113,_ZN8Mensajes10getTamanioEv
FNDA:557,_ZN8Mensajes14agregarMensajeESsSs
FNF:10
FNH:9
DA:5,113
DA:18,113
DA:20,403
DA:21,403
DA:22,403
DA:24,516
DA:26,516
DA:29,1148
DA:30,1148
DA:33,587
DA:34,587
DA:35,587
DA:36,533
DA:37,533
DA:38,1066
DA:40,533
DA:41,1066
DA:45,54
DA:49,561
DA:50,561
DA:51,561
DA:52,507
DA:53,507
DA:55,1014
DA:57,507
DA:58,1014
DA:64,54
DA:69,291
DA:70,291
DA:73,113
DA:74,113
DA:77,557
DA:78,557
DA:79,557
DA:80,557
DA:81,557
DA:82,557
LF:37
LH:37
end_of_record
SF:/usr/include/c++/4.8/bits/basic_string.h
FN:272,_ZNSs12_Alloc_hiderD2Ev
FN:272,_ZNSs12_Alloc_hiderC2ERKS_
FNDA:0,_ZNSs12_Alloc_hiderC2ERKS_
FNDA:0,_ZNSs12_Alloc_hiderD2Ev
FNF:2
FNH:0
DA:272,0
LF:1
LH:0
end_of_record
SF:/usr/include/c++/4.8/ext/atomicity.h
FN:48,_ZN9__gnu_cxxL18__exchange_and_addEPVii
FN:65,_ZN9__gnu_cxxL25__exchange_and_add_singleEPii
FN:78,_ZN9__gnu_cxxL27__exchange_and_add_dispatchEPii
FNDA:0,_ZN9__gnu_cxxL18__exchange_and_addEPVii
FNDA:0,_ZN9__gnu_cxxL25__exchange_and_add_singleEPii
FNDA:0,_ZN9__gnu_cxxL27__exchange_and_add_dispatchEPii
FNF:3
FNH:0
DA:48,0
DA:49,0
DA:65,0
DA:67,0
DA:68,0
DA:69,0
DA:78,0
DA:81,0
DA:82,0
DA:84,0
LF:10
LH:0
end_of_record
SF:/usr/include/c++/4.8/ext/new_allocator.h
FN:79,_ZN9__gnu_cxx13new_allocatorIcEC2Ev
FN:81,_ZN9__gnu_cxx13new_allocatorIcEC2ERKS1_
FN:86,_ZN9__gnu_cxx13new_allocatorIcED2Ev
FNDA:0,_ZN9__gnu_cxx13new_allocatorIcEC2Ev
FNDA:0,_ZN9__gnu_cxx13new_allocatorIcEC2ERKS1_
FNDA:0,_ZN9__gnu_cxx13new_allocatorIcED2Ev
FNF:3
FNH:0
DA:79,0
DA:81,0
DA:86,0
LF:3
LH:0
end_of_record
SF:/usr/include/x86_64-linux-gnu/c++/4.8/bits/gthr-default.h
FN:247,_ZL18__gthread_active_pv
FNDA:0,_ZL18__gthread_active_pv
FNF:1
FNH:0
DA:247,0
DA:251,0
LF:2
LH:0
end_of_record
TN:
SF:/home/taller2-appserver/Appserver/src/servicios/MensajeHTTPReply.cpp
FN:3,_ZN16MensajeHTTPReplyC2Ev
FN:7,_ZN16MensajeHTTPReplyC2EP12http_message
FN:12,_ZN16MensajeHTTPReply9setCodigoEi
FN:16,_ZN16MensajeHTTPReply9getCodigoEv
FN:20,_ZN16MensajeHTTPReply18getMensajeDeEstadoEv
FN:24,_ZN16MensajeHTTPReply18setMensajeDeEstadoESs
FN:29,_ZN16MensajeHTTPReply8toStringEv
FN:47,_ZN16MensajeHTTPReplyD2Ev
FN:47,_ZN16MensajeHTTPReplyD0Ev
FN:50,_GLOBAL__sub_I__ZN16MensajeHTTPReplyC2Ev
FN:50,_Z41__static_initialization_and_destruction_0ii
FNDA:16,_ZN16MensajeHTTPReplyC2Ev
FNDA:50,_ZN16MensajeHTTPReplyC2EP12http_message
FNDA:14,_ZN16MensajeHTTPReply9setCodigoEi
FNDA:34,_ZN16MensajeHTTPReply9getCodigoEv
FNDA:32,_ZN16MensajeHTTPReply18getMensajeDeEstadoEv
FNDA:14,_ZN16MensajeHTTPReply18setMensajeDeEstadoESs
FNDA:16,_ZN16MensajeHTTPReply8toStringEv
FNDA:48,_ZN16MensajeHTTPReplyD0Ev
FNDA:68,_ZN16MensajeHTTPReplyD2Ev
FNDA:21,_GLOBAL__sub_I__ZN16MensajeHTTPReplyC2Ev
FNDA:21,_Z41__static_initialization_and_destruction_0ii
FNF:11
FNH:11
DA:3,16
DA:5,16
DA:7,50
DA:8,50
DA:9,50
DA:10,50
DA:12,14
DA:13,14
DA:14,14
DA:16,34
DA:17,34
DA:20,32
DA:21,32
DA:24,14
DA:25,14
DA:26,14
DA:29,16
DA:30,16
DA:47,116
DA:50,179
LF:20
LH:20
end_of_record
SF:/usr/include/c++/4.8/bits/basic_string.h
FN:272,_ZNSs12_Alloc_hiderD2Ev
FN:272,_ZNSs12_Alloc_hiderC2ERKS_
FN:2442,_ZStplIcSt11char_traitsIcESaIcEESbIT_T0_T1_EOS6_S7_
FN:2454,_ZStplIcSt11char_traitsIcESaIcEESbIT_T0_T1_EPKS3_OS6_
FN:2466,_ZStplIcSt11char_traitsIcESaIcEESbIT_T0_T1_EOS6_PKS3_
FNDA:0,_ZNSs12_Alloc_hiderC2ERKS_
FNDA:0,_ZNSs12_Alloc_hiderD2Ev
FNDA:0,_ZStplIcSt11char_traitsIcESaIcEESbIT_T0_T1_EOS6_S7_
FNDA:0,_ZStplIcSt11char_traitsIcESaIcEESbIT_T0_T1_EPKS3_OS6_
FNDA:0,_ZStplIcSt11char_traitsIcESaIcEESbIT_T0_T1_EOS6_PKS3_
FNF:5
FNH:0
DA:272,0
DA:2442,0
DA:2445,0
DA:2446,0
DA:2447,0
DA:2448,0
DA:2449,0
DA:2454,0
DA:2456,0
DA:2466,0
DA:2468,0
LF:11
LH:0
end_of_record
SF:/usr/include/c++/4.8/bits/char_traits.h
FN:258,_ZNSt11char_traitsIcE6lengthEPKc
FNDA:0,_ZNSt11char_traitsIcE6lengthEPKc
FNF:1
FNH:0
DA:258,0
DA:259,0
LF:2
LH:0
end_of_record
SF:/usr/include/c++/4.8/bits/move.h
FN:101,_ZSt4moveIRSsEONSt16remove_referenceIT_E4typeEOS2_
FNDA:0,_ZSt4moveIRSsEONSt16remove_referenceIT_E4typeEOS2_
FNF:1
FNH:0
DA:101,0
DA:102,0
LF:2
LH:0
end_of_record
SF:/usr/include/c++/4.8/ext/atomicity.h
FN:48,_ZN9__gnu_cxxL18__exchange_and_addEPVii
FN:65,_ZN9__gnu_cxxL25__exchange_and_add_singleEPii
FN:78,_ZN9__gnu_cxxL27__exchange_and_add_dispatchEPii
FNDA:0,_ZN9__gnu_cxxL18__exchange_and_addEPVii
FNDA:0,_ZN9__gnu_cxxL25__exchange_and_add_singleEPii
FNDA:0,_ZN9__gnu_cxxL27__exchange_and_add_dispatchEPii
FNF:3
FNH:0
DA:48,0
DA:49,0
DA:65,0
DA:67,0
DA:68,0
DA:69,0
DA:78,0
DA:81,0
DA:82,0
DA:84,0
LF:10
LH:0
end_of_record
SF:/usr/include/c++/4.8/ext/new_allocator.h
FN:79,_ZN9__gnu_cxx13new_allocatorIcEC2Ev
FN:81,_ZN9__gnu_cxx13new_allocatorIcEC2ERKS1_
FN:86,_ZN9__gnu_cxx13new_allocatorIcED2Ev
FNDA:0,_ZN9__gnu_cxx13new_allocatorIcEC2Ev
FNDA:0,_ZN9__gnu_cxx13new_allocatorIcEC2ERKS1_
FNDA:0,_ZN9__gnu_cxx13new_allocatorIcED2Ev
FNF:3
FNH:0
DA:79,0
DA:81,0
DA:86,0
LF:3
LH:0
end_of_record
SF:/usr/include/c++/4.8/iostream
DA:74,21
LF:1
LH:1
end_of_record
SF:/usr/include/x86_64-linux-gnu/c++/4.8/bits/gthr-default.h
FN:247,_ZL18__gthread_active_pv
FNDA:0,_ZL18__gthread_active_pv
FNF:1
FNH:0
DA:247,0
DA:251,0
LF:2
LH:0
end_of_record
TN:
SF:/home/taller2-appserver/Appserver/src/servicios/MensajeHTTPRequestGCM.cpp
FN:3,_ZN21MensajeHTTPRequestGCMC2Ev
FN:11,_ZN21MensajeHTTPRequestGCMD0Ev
FN:11,_ZN21MensajeHTTPRequestGCMD2Ev
FN:14,_GLOBAL__sub_I__ZN21MensajeHTTPRequestGCMC2Ev
FN:14,_Z41__static_initialization_and_destruction_0ii
FNDA:2,_ZN21MensajeHTTPRequestGCMC2Ev
FNDA:0,_ZN21MensajeHTTPRequestGCMD0Ev
FNDA:2,_ZN21MensajeHTTPRequestGCMD2Ev
FNDA:4,_GLOBAL__sub_I__ZN21MensajeHTTPRequestGCMC2Ev
FNDA:4,_Z41__static_initialization_and_destruction_0ii
FNF:5
FNH:4
DA:3,2
DA:4,2
DA:5,2
DA:6,2
DA:7,2
DA:8,2
DA:9,2
DA:11,2
DA:14,14
LF:9
LH:9
end_of_record
SF:/usr/include/c++/4.8/bits/basic_string.h
FN:272,_ZNSs12_Alloc_hiderD2Ev
FNDA:0,_ZNSs12_Alloc_hiderD2Ev
FNF:1
FNH:0
DA:272,0
LF:1
LH:0
end_of_record
SF:/usr/include/c++/4.8/ext/atomicity.h
FN:48,_ZN9__gnu_cxxL18__exchange_and_addEPVii
FN:65,_ZN9__gnu_cxxL25__exchange_and_add_singleEPii
FN:78,_ZN9__gnu_cxxL27__exchange_and_add_dispatchEPii
FNDA:0,_ZN9__gnu_cxxL18__exchange_and_addEPVii
FNDA:0,_ZN9__gnu_cxxL25__exchange_and_add_singleEPii
FNDA:0,_ZN9__gnu_cxxL27__exchange_and_add_dispatchEPii
FNF:3
FNH:0
DA:48,0
DA:49,0
DA:65,0
DA:67,0
DA:68,0
DA:69,0
DA:78,0
DA:81,0
DA:82,0
DA:84,0
LF:10
LH:0
end_of_record
SF:/usr/include/c++/4.8/ext/new_allocator.h
FN:79,_ZN9__gnu_cxx13new_allocatorIcEC2Ev
FN:81,_ZN9__gnu_cxx13new_allocatorIcEC2ERKS1_
FN:86,_ZN9__gnu_cxx13new_allocatorIcED2Ev
FNDA:0,_ZN9__gnu_cxx13new_allocatorIcEC2Ev
FNDA:0,_ZN9__gnu_cxx13new_allocatorIcEC2ERKS1_
FNDA:0,_ZN9__gnu_cxx13new_allocatorIcED2Ev
FNF:3
FNH:0
DA:79,0
DA:81,0
DA:86,0
LF:3
LH:0
end_of_record
SF:/usr/include/c++/4.8/iostream
DA:74,4
LF:1
LH:1
end_of_record
SF:/usr/include/x86_64-linux-gnu/c++/4.8/bits/gthr-default.h
FN:247,_ZL18__gthread_active_pv
FNDA:0,_ZL18__gthread_active_pv
FNF:1
FNH:0
DA:247,0
DA:251,0
LF:2
LH:0
end_of_record
TN:
SF:/home/taller2-appserver/Appserver/src/external/rocksdb/options.h
FN:150,_ZN7rocksdb6DbPathD2Ev
FN:160,_ZN7rocksdb19ColumnFamilyOptionsD2Ev
FN:805,_ZN7rocksdb9DBOptionsD2Ev
FN:1310,_ZN7rocksdb7OptionsD2Ev
FN:1312,_ZN7rocksdb7OptionsC2Ev
FN:1486,_ZN7rocksdb12WriteOptionsC2Ev
FNDA:202,_ZN7rocksdb6DbPathD2Ev
FNDA:2424,_ZN7rocksdb19ColumnFamilyOptionsD2Ev
FNDA:1414,_ZN7rocksdb9DBOptionsD2Ev
FNDA:202,_ZN7rocksdb7OptionsD2Ev
FNDA:202,_ZN7rocksdb7OptionsC2Ev
FNDA:300,_ZN7rocksdb12WriteOptionsC2Ev
FNF:6
FNH:6
DA:150,202
DA:160,2424
DA:805,1414
DA:1310,202
DA:1312,202
DA:1486,300
DA:1490,300
LF:7
LH:7
end_of_record
SF:/home/taller2-appserver/Appserver/src/external/rocksdb/slice.h
FN:40,_ZN7rocksdb5SliceC2ERKSs
FNDA:1213,_ZN7rocksdb5SliceC2ERKSs
FNF:1
FNH:1
DA:40,1213
LF:1
LH:1
end_of_record
SF:/home/taller2-appserver/Appserver/src/external/rocksdb/status.h
FN:29,_ZN7rocksdb6StatusD2Ev
FN:64,_ZNK7rocksdb6Status4codeEv
FN:162,_ZNK7rocksdb6Status10IsNotFoundEv
FNDA:1115,_ZN7rocksdb6StatusD2Ev
FNDA:171,_ZNK7rocksdb6Status4codeEv
FNDA:171,_ZNK7rocksdb6Status10IsNotFoundEv
FNF:3
FNH:3
DA:29,1115
DA:64,171
DA:162,171
LF:3
LH:3
end_of_record
SF:/home/taller2-appserver/Appserver/src/servicios/BaseDeDatos.cpp
FN:5,_Z41__static_initialization_and_destruction_0ii
FN:7,_ZN11BaseDeDatosC2ESs
FN:16,_ZN11BaseDeDatosD0Ev
FN:16,_ZN11BaseDeDatosD2Ev
FN:21,_ZN11BaseDeDatos3putESsSs
FN:25,_ZN11BaseDeDatos3getESs
FN:32,_ZN11BaseDeDatos6existeESs
FN:36,_GLOBAL__sub_I_VALOR_DE_CLAVE_NO_ENCONTRADA
FNDA:202,_ZN11BaseDeDatosC2ESs
FNDA:202,_ZN11BaseDeDatosD0Ev
FNDA:202,_ZN11BaseDeDatosD2Ev
FNDA:300,_ZN11BaseDeDatos3putESsSs
FNDA:442,_ZN11BaseDeDatos3getESs
FNDA:171,_ZN11BaseDeDatos6existeESs
FNDA:21,_GLOBAL__sub_I_VALOR_DE_CLAVE_NO_ENCONTRADA
FNDA:21,_Z41__static_initialization_and_destruction_0ii
FNF:8
FNH:8
DA:5,21
DA:7,202
DA:9,202
DA:10,202
DA:13,202
DA:14,202
DA:16,404
DA:17,202
DA:18,404
DA:21,300
DA:22,300
DA:23,300
DA:25,442
DA:27,442
DA:28,442
DA:29,442
DA:32,171
DA:33,171
DA:34,342
DA:35,342
DA:36,63
LF:21
LH:21
end_of_record
SF:/usr/include/c++/4.8/bits/allocator.h
FN:121,_ZNSaIN7rocksdb6DbPathEED2Ev
FN:121,_ZNSaISt10shared_ptrIN7rocksdb31TablePropertiesCollectorFactoryEEED2Ev
FN:121,_ZNSaIN7rocksdb15CompressionTypeEED2Ev
FN:121,_ZNSaIiED2Ev
FN:121,_ZNSaISt10shared_ptrIN7rocksdb13EventListenerEEED2Ev
FNDA:2424,_ZNSaISt10shared_ptrIN7rocksdb31TablePropertiesCollectorFactoryEEED2Ev
FNDA:2520,_ZNSaIiED2Ev
FNDA:2424,_ZNSaIN7rocksdb15CompressionTypeEED2Ev
FNDA:1414,_ZNSaISt10shared_ptrIN7rocksdb13EventListenerEEED2Ev
FNDA:1414,_ZNSaIN7rocksdb6DbPathEED2Ev
FNF:5
FNH:5
DA:121,10196
LF:1
LH:1
end_of_record
SF:/usr/include/c++/4.8/bits/basic_string.h
FN:272,_ZNSs12_Alloc_hiderD2Ev
FNDA:0,_ZNSs12_Alloc_hiderD2Ev
FNF:1
FNH:0
DA:272,0
LF:1
LH:0
end_of_record
SF:/usr/include/c++/4.8/bits/move.h
FN:47,_ZSt11__addressofIN7rocksdb6DbPathEEPT_RS2_
FN:47,_ZSt11__addressofISt10shared_ptrIN7rocksdb31TablePropertiesCollectorFactoryEEEPT_RS4_
FN:47,_ZSt11__addressofISt10shared_ptrIN7rocksdb13EventListenerEEEPT_RS4_
FNDA:0,_ZSt11__addressofISt10shared_ptrIN7rocksdb31TablePropertiesCollectorFactoryEEEPT_RS4_
FNDA:0,_ZSt11__addressofISt10shared_ptrIN7rocksdb13EventListenerEEEPT_RS4_
FNDA:202,_ZSt11__addressofIN7rocksdb6DbPathEEPT_RS2_
FNF:3
FNH:1
DA:47,202
DA:50,202
LF:2
LH:2
end_of_record
SF:/usr/include/c++/4.8/bits/shared_ptr.h
FN:93,_ZNSt10shared_ptrIN7rocksdb23CompactionFilterFactoryEED2Ev
FN:93,_ZNSt10shared_ptrIN7rocksdb13EventListenerEED2Ev
FN:93,_ZNSt10shared_ptrIN7rocksdb13MergeOperatorEED2Ev
FN:93,_ZNSt10shared_ptrIN7rocksdb18MemTableRepFactoryEED2Ev
FN:93,_ZNSt10shared_ptrIN7rocksdb10StatisticsEED2Ev
FN:93,_ZNSt10shared_ptrIN7rocksdb5CacheEED2Ev
FN:93,_ZNSt10shared_ptrIN7rocksdb11RateLimiterEED2Ev
FN:93,_ZNSt10shared_ptrIN7rocksdb31TablePropertiesCollectorFactoryEED2Ev
FN:93,_ZNSt10shared_ptrIN7rocksdb14SstFileManagerEED2Ev
FN:93,_ZNSt10shared_ptrIN7rocksdb12TableFactoryEED2Ev
FN:93,_ZNSt10shared_ptrIKN7rocksdb14SliceTransformEED2Ev
FN:93,_ZNSt10shared_ptrIN7rocksdb6LoggerEED2Ev
FNDA:0,_ZNSt10shared_ptrIN7rocksdb31TablePropertiesCollectorFactoryEED2Ev
FNDA:0,_ZNSt10shared_ptrIN7rocksdb13EventListenerEED2Ev
FNDA:2424,_ZNSt10shared_ptrIN7rocksdb12TableFactoryEED2Ev
FNDA:2424,_ZNSt10shared_ptrIN7rocksdb18MemTableRepFactoryEED2Ev
FNDA:2424,_ZNSt10shared_ptrIKN7rocksdb14SliceTransformEED2Ev
FNDA:2424,_ZNSt10shared_ptrIN7rocksdb23CompactionFilterFactoryEED2Ev
FNDA:2424,_ZNSt10shared_ptrIN7rocksdb13MergeOperatorEED2Ev
FNDA:1414,_ZNSt10shared_ptrIN7rocksdb5CacheEED2Ev
FNDA:1414,_ZNSt10shared_ptrIN7rocksdb10StatisticsEED2Ev
FNDA:1414,_ZNSt10shared_ptrIN7rocksdb6LoggerEED2Ev
FNDA:1414,_ZNSt10shared_ptrIN7rocksdb14SstFileManagerEED2Ev
FNDA:1414,_ZNSt10shared_ptrIN7rocksdb11RateLimiterEED2Ev
FNF:12
FNH:10
DA:93,19190
LF:1
LH:1
end_of_record
SF:/usr/include/c++/4.8/bits/shared_ptr_base.h
FN:137,_ZNSt16_Sp_counted_baseILN9__gnu_cxx12_Lock_policyE2EE10_M_releaseEv
FN:543,_ZNSt14__shared_countILN9__gnu_cxx12_Lock_policyE2EED2Ev
FN:781,_ZNSt12__shared_ptrIN7rocksdb13EventListenerELN9__gnu_cxx12_Lock_policyE2EED2Ev
FN:781,_ZNSt12__shared_ptrIN7rocksdb12TableFactoryELN9__gnu_cxx12_Lock_policyE2EED2Ev
FN:781,_ZNSt12__shared_ptrIKN7rocksdb14SliceTransformELN9__gnu_cxx12_Lock_policyE2EED2Ev
FN:781,_ZNSt12__shared_ptrIN7rocksdb23CompactionFilterFactoryELN9__gnu_cxx12_Lock_policyE2EED2Ev
FN:781,_ZNSt12__shared_ptrIN7rocksdb31TablePropertiesCollectorFactoryELN9__gnu_cxx12_Lock_policyE2EED2Ev
FN:781,_ZNSt12__shared_ptrIN7rocksdb18MemTableRepFactoryELN9__gnu_cxx12_Lock_policyE2EED2Ev
FN:781,_ZNSt12__shared_ptrIN7rocksdb14SstFileManagerELN9__gnu_cxx12_Lock_policyE2EED2Ev
FN:781,_ZNSt12__shared_ptrIN7rocksdb11RateLimiterELN9__gnu_cxx12_Lock_policyE2EED2Ev
FN:781,_ZNSt12__shared_ptrIN7rocksdb13MergeOperatorELN9__gnu_cxx12_Lock_policyE2EED2Ev
FN:781,_ZNSt12__shared_ptrIN7rocksdb6LoggerELN9__gnu_cxx12_Lock_policyE2EED2Ev
FN:781,_ZNSt12__shared_ptrIN7rocksdb5CacheELN9__gnu_cxx12_Lock_policyE2EED2Ev
FN:781,_ZNSt12__shared_ptrIN7rocksdb10StatisticsELN9__gnu_cxx12_Lock_policyE2EED2Ev
FNDA:7093,_ZNSt16_Sp_counted_baseILN9__gnu_cxx12_Lock_policyE2EE10_M_releaseEv
FNDA:19190,_ZNSt14__shared_countILN9__gnu_cxx12_Lock_policyE2EED2Ev
FNDA:0,_ZNSt12__shared_ptrIN7rocksdb31TablePropertiesCollectorFactoryELN9__gnu_cxx12_Lock_policyE2EED2Ev
FNDA:0,_ZNSt12__shared_ptrIN7rocksdb13EventListenerELN9__gnu_cxx12_Lock_policyE2EED2Ev
FNDA:2424,_ZNSt12__shared_ptrIN7rocksdb12TableFactoryELN9__gnu_cxx12_Lock_policyE2EED2Ev
FNDA:2424,_ZNSt12__shared_ptrIN7rocksdb18MemTableRepFactoryELN9__gnu_cxx12_Lock_policyE2EED2Ev
FNDA:2424,_ZNSt12__shared_ptrIKN7rocksdb14SliceTransformELN9__gnu_cxx12_Lock_policyE2EED2Ev
FNDA:2424,_ZNSt12__shared_ptrIN7rocksdb23CompactionFilterFactoryELN9__gnu_cxx12_Lock_policyE2EED2Ev
FNDA:2424,_ZNSt12__shared_ptrIN7rocksdb13MergeOperatorELN9__gnu_cxx12_Lock_policyE2EED2Ev
FNDA:1414,_ZNSt12__shared_ptrIN7rocksdb5CacheELN9__gnu_cxx12_Lock_policyE2EED2Ev
FNDA:1414,_ZNSt12__shared_ptrIN7rocksdb10StatisticsELN9__gnu_cxx12_Lock_policyE2EED2Ev
FNDA:1414,_ZNSt12__shared_ptrIN7rocksdb6LoggerELN9__gnu_cxx12_Lock_policyE2EED2Ev
FNDA:1414,_ZNSt12__shared_ptrIN7rocksdb14SstFileManagerELN9__gnu_cxx12_Lock_policyE2EED2Ev
FNDA:1414,_ZNSt12__shared_ptrIN7rocksdb11RateLimiterELN9__gnu_cxx12_Lock_policyE2EED2Ev
FNF:14
FNH:12
DA:137,7093
DA:141,7093
DA:144,1212
DA:157,1212
DA:158,1212
DA:161,1212
DA:164,7093
DA:543,19190
DA:545,19190
DA:546,4646
DA:547,19190
DA:781,19190
LF:12
LH:12
end_of_record
SF:/usr/include/c++/4.8/bits/stl_construct.h
FN:92,_ZSt8_DestroyIN7rocksdb6DbPathEEvPT_
FN:92,_ZSt8_DestroyISt10shared_ptrIN7rocksdb31TablePropertiesCollectorFactoryEEEvPT_
FN:92,_ZSt8_DestroyISt10shared_ptrIN7rocksdb13EventListenerEEEvPT_
FN:100,_ZNSt12_Destroy_auxILb0EE9__destroyIPSt10shared_ptrIN7rocksdb13EventListenerEEEEvT_S7_
FN:100,_ZNSt12_Destroy_auxILb0EE9__destroyIPN7rocksdb6DbPathEEEvT_S5_
FN:100,_ZNSt12_Destroy_auxILb0EE9__destroyIPSt10shared_ptrIN7rocksdb31TablePropertiesCollectorFactoryEEEEvT_S7_
FN:112,_ZNSt12_Destroy_auxILb1EE9__destroyIPiEEvT_S3_
FN:112,_ZNSt12_Destroy_auxILb1EE9__destroyIPN7rocksdb15CompressionTypeEEEvT_S5_
FN:122,_ZSt8_DestroyIPiEvT_S1_
FN:122,_ZSt8_DestroyIPN7rocksdb15CompressionTypeEEvT_S3_
FN:122,_ZSt8_DestroyIPN7rocksdb6DbPathEEvT_S3_
FN:122,_ZSt8_DestroyIPSt10shared_ptrIN7rocksdb31TablePropertiesCollectorFactoryEEEvT_S5_
FN:122,_ZSt8_DestroyIPSt10shared_ptrIN7rocksdb13EventListenerEEEvT_S5_
FN:148,_ZSt8_DestroyIPN7rocksdb15CompressionTypeES1_EvT_S3_RSaIT0_E
FN:148,_ZSt8_DestroyIPiiEvT_S1_RSaIT0_E
FN:148,_ZSt8_DestroyIPSt10shared_ptrIN7rocksdb13EventListenerEES3_EvT_S5_RSaIT0_E
FN:148,_ZSt8_DestroyIPSt10shared_ptrIN7rocksdb31TablePropertiesCollectorFactoryEES3_EvT_S5_RSaIT0_E
FN:148,_ZSt8_DestroyIPN7rocksdb6DbPathES1_EvT_S3_RSaIT0_E
FNDA:0,_ZSt8_DestroyISt10shared_ptrIN7rocksdb31TablePropertiesCollectorFactoryEEEvPT_
FNDA:0,_ZSt8_DestroyISt10shared_ptrIN7rocksdb13EventListenerEEEvPT_
FNDA:202,_ZSt8_DestroyIN7rocksdb6DbPathEEvPT_
FNDA:2424,_ZNSt12_Destroy_auxILb0EE9__destroyIPSt10shared_ptrIN7rocksdb31TablePropertiesCollectorFactoryEEEEvT_S7_
FNDA:1414,_ZNSt12_Destroy_auxILb0EE9__destroyIPSt10shared_ptrIN7rocksdb13EventListenerEEEEvT_S7_
FNDA:1414,_ZNSt12_Destroy_auxILb0EE9__destroyIPN7rocksdb6DbPathEEEvT_S5_
FNDA:2872,_ZNSt12_Destroy_auxILb1EE9__destroyIPiEEvT_S3_
FNDA:2424,_ZNSt12_Destroy_auxILb1EE9__destroyIPN7rocksdb15CompressionTypeEEEvT_S5_
FNDA:2424,_ZSt8_DestroyIPSt10shared_ptrIN7rocksdb31TablePropertiesCollectorFactoryEEEvT_S5_
FNDA:2872,_ZSt8_DestroyIPiEvT_S1_
FNDA:2424,_ZSt8_DestroyIPN7rocksdb15CompressionTypeEEvT_S3_
FNDA:1414,_ZSt8_DestroyIPSt10shared_ptrIN7rocksdb13EventListenerEEEvT_S5_
FNDA:1414,_ZSt8_DestroyIPN7rocksdb6DbPathEEvT_S3_
FNDA:2424,_ZSt8_DestroyIPSt10shared_ptrIN7rocksdb31TablePropertiesCollectorFactoryEES3_EvT_S5_RSaIT0_E
FNDA:2872,_ZSt8_DestroyIPiiEvT_S1_RSaIT0_E
FNDA:2424,_ZSt8_DestroyIPN7rocksdb15CompressionTypeES1_EvT_S3_RSaIT0_E
FNDA:1414,_ZSt8_DestroyIPSt10shared_ptrIN7rocksdb13EventListenerEES3_EvT_S5_RSaIT0_E
FNDA:1414,_ZSt8_DestroyIPN7rocksdb6DbPathES1_EvT_S3_RSaIT0_E
FNF:18
FNH:16
DA:92,202
DA:93,202
DA:100,5252
DA:102,5454
DA:103,202
DA:104,5252
DA:112,5296
DA:122,10548
DA:126,10548
DA:128,10548
DA:148,10548
DA:151,10548
DA:152,10548
LF:13
LH:13
end_of_record
SF:/usr/include/c++/4.8/bits/stl_vector.h
FN:79,_ZNSt12_Vector_baseIiSaIiEE12_Vector_implD2Ev
FN:79,_ZNSt12_Vector_baseISt10shared_ptrIN7rocksdb31TablePropertiesCollectorFactoryEESaIS3_EE12_Vector_implD2Ev
FN:79,_ZNSt12_Vector_baseIN7rocksdb15CompressionTypeESaIS1_EE12_Vector_implD2Ev
FN:79,_ZNSt12_Vector_baseIN7rocksdb6DbPathESaIS1_EE12_Vector_implD2Ev
FN:79,_ZNSt12_Vector_baseISt10shared_ptrIN7rocksdb13EventListenerEESaIS3_EE12_Vector_implD2Ev
FN:113,_ZNSt12_Vector_baseISt10shared_ptrIN7rocksdb13EventListenerEESaIS3_EE19_M_get_Tp_allocatorEv
FN:113,_ZNSt12_Vector_baseIiSaIiEE19_M_get_Tp_allocatorEv
FN:113,_ZNSt12_Vector_baseISt10shared_ptrIN7rocksdb31TablePropertiesCollectorFactoryEESaIS3_EE19_M_get_Tp_allocatorEv
FN:113,_ZNSt12_Vector_baseIN7rocksdb6DbPathESaIS1_EE19_M_get_Tp_allocatorEv
FN:113,_ZNSt12_Vector_baseIN7rocksdb15CompressionTypeESaIS1_EE19_M_get_Tp_allocatorEv
FN:159,_ZNSt12_Vector_baseISt10shared_ptrIN7rocksdb13EventListenerEESaIS3_EED2Ev
FN:159,_ZNSt12_Vector_baseIN7rocksdb15CompressionTypeESaIS1_EED2Ev
FN:159,_ZNSt12_Vector_baseIiSaIiEED2Ev
FN:159,_ZNSt12_Vector_baseIN7rocksdb6DbPathESaIS1_EED2Ev
FN:159,_ZNSt12_Vector_baseISt10shared_ptrIN7rocksdb31TablePropertiesCollectorFactoryEESaIS3_EED2Ev
FN:171,_ZNSt12_Vector_baseIiSaIiEE13_M_deallocateEPim
FN:171,_ZNSt12_Vector_baseIN7rocksdb6DbPathESaIS1_EE13_M_deallocateEPS1_m
FN:171,_ZNSt12_Vector_baseISt10shared_ptrIN7rocksdb31TablePropertiesCollectorFactoryEESaIS3_EE13_M_deallocateEPS3_m
FN:171,_ZNSt12_Vector_baseISt10shared_ptrIN7rocksdb13EventListenerEESaIS3_EE13_M_deallocateEPS3_m
FN:171,_ZNSt12_Vector_baseIN7rocksdb15CompressionTypeESaIS1_EE13_M_deallocateEPS1_m
FN:414,_ZNSt6vectorIiSaIiEED2Ev
FN:414,_ZNSt6vectorIN7rocksdb6DbPathESaIS1_EED2Ev
FN:414,_ZNSt6vectorISt10shared_ptrIN7rocksdb13EventListenerEESaIS3_EED2Ev
FN:414,_ZNSt6vectorIN7rocksdb15CompressionTypeESaIS1_EED2Ev
FN:414,_ZNSt6vectorISt10shared_ptrIN7rocksdb31TablePropertiesCollectorFactoryEESaIS3_EED2Ev
FNDA:2424,_ZNSt12_Vector_baseISt10shared_ptrIN7rocksdb31TablePropertiesCollectorFactoryEESaIS3_EE12_Vector_implD2Ev
FNDA:2520,_ZNSt12_Vector_baseIiSaIiEE12_Vector_implD2Ev
FNDA:2424,_ZNSt12_Vector_baseIN7rocksdb15CompressionTypeESaIS1_EE12_Vector_implD2Ev
FNDA:1414,_ZNSt12_Vector_baseISt10shared_ptrIN7rocksdb13EventListenerEESaIS3_EE12_Vector_implD2Ev
FNDA:1414,_ZNSt12_Vector_baseIN7rocksdb6DbPathESaIS1_EE12_Vector_implD2Ev
FNDA:2424,_ZNSt12_Vector_baseISt10shared_ptrIN7rocksdb31TablePropertiesCollectorFactoryEESaIS3_EE19_M_get_Tp_allocatorEv
FNDA:3576,_ZNSt12_Vector_baseIiSaIiEE19_M_get_Tp_allocatorEv
FNDA:2424,_ZNSt12_Vector_baseIN7rocksdb15CompressionTypeESaIS1_EE19_M_get_Tp_allocatorEv
FNDA:1414,_ZNSt12_Vector_baseISt10shared_ptrIN7rocksdb13EventListenerEESaIS3_EE19_M_get_Tp_allocatorEv
FNDA:1414,_ZNSt12_Vector_baseIN7rocksdb6DbPathESaIS1_EE19_M_get_Tp_allocatorEv
FNDA:2424,_ZNSt12_Vector_baseISt10shared_ptrIN7rocksdb31TablePropertiesCollectorFactoryEESaIS3_EED2Ev
FNDA:2520,_ZNSt12_Vector_baseIiSaIiEED2Ev
FNDA:2424,_ZNSt12_Vector_baseIN7rocksdb15CompressionTypeESaIS1_EED2Ev
FNDA:1414,_ZNSt12_Vector_baseISt10shared_ptrIN7rocksdb13EventListenerEESaIS3_EED2Ev
FNDA:1414,_ZNSt12_Vector_baseIN7rocksdb6DbPathESaIS1_EED2Ev
FNDA:2424,_ZNSt12_Vector_baseISt10shared_ptrIN7rocksdb31TablePropertiesCollectorFactoryEESaIS3_EE13_M_deallocateEPS3_m
FNDA:2872,_ZNSt12_Vector_baseIiSaIiEE13_M_deallocateEPim
FNDA:2424,_ZNSt12_Vector_baseIN7rocksdb15CompressionTypeESaIS1_EE13_M_deallocateEPS1_m
FNDA:1414,_ZNSt12_Vector_baseISt10shared_ptrIN7rocksdb13EventListenerEESaIS3_EE13_M_deallocateEPS3_m
FNDA:1414,_ZNSt12_Vector_baseIN7rocksdb6DbPathESaIS1_EE13_M_deallocateEPS1_m
FNDA:2424,_ZNSt6vectorISt10shared_ptrIN7rocksdb31TablePropertiesCollectorFactoryEESaIS3_EED2Ev
FNDA:2520,_ZNSt6vectorIiSaIiEED2Ev
FNDA:2424,_ZNSt6vectorIN7rocksdb15CompressionTypeESaIS1_EED2Ev
FNDA:1414,_ZNSt6vectorISt10shared_ptrIN7rocksdb13EventListenerEESaIS3_EED2Ev
FNDA:1414,_ZNSt6vectorIN7rocksdb6DbPathESaIS1_EED2Ev
FNF:25
FNH:25
DA:79,10196
DA:113,11252
DA:114,11252
DA:159,10196
DA:160,10196
DA:161,20392
DA:171,10548
DA:173,10548
DA:174,2776
DA:175,10548
DA:414,10196
DA:415,10196
DA:416,20392
LF:13
LH:13
end_of_record
SF:/usr/include/c++/4.8/ext/atomicity.h
FN:48,_ZN9__gnu_cxxL18__exchange_and_addEPVii
FN:65,_ZN9__gnu_cxxL25__exchange_and_add_singleEPii
FN:78,_ZN9__gnu_cxxL27__exchange_and_add_dispatchEPii
FNDA:8305,_ZN9__gnu_cxxL18__exchange_and_addEPVii
FNDA:0,_ZN9__gnu_cxxL25__exchange_and_add_singleEPii
FNDA:8305,_ZN9__gnu_cxxL27__exchange_and_add_dispatchEPii
FNF:3
FNH:2
DA:48,8305
DA:49,8305
DA:65,0
DA:67,0
DA:68,0
DA:69,0
DA:78,8305
DA:81,8305
DA:82,8305
DA:84,0
LF:10
LH:5
end_of_record
SF:/usr/include/c++/4.8/ext/new_allocator.h
FN:79,_ZN9__gnu_cxx13new_allocatorIcEC2Ev
FN:81,_ZN9__gnu_cxx13new_allocatorIcEC2ERKS1_
FN:86,_ZN9__gnu_cxx13new_allocatorIcED2Ev
FN:86,_ZN9__gnu_cxx13new_allocatorISt10shared_ptrIN7rocksdb31TablePropertiesCollectorFactoryEEED2Ev
FN:86,_ZN9__gnu_cxx13new_allocatorIN7rocksdb15CompressionTypeEED2Ev
FN:86,_ZN9__gnu_cxx13new_allocatorIN7rocksdb6DbPathEED2Ev
FN:86,_ZN9__gnu_cxx13new_allocatorISt10shared_ptrIN7rocksdb13EventListenerEEED2Ev
FN:86,_ZN9__gnu_cxx13new_allocatorIiED2Ev
FN:109,_ZN9__gnu_cxx13new_allocatorISt10shared_ptrIN7rocksdb31TablePropertiesCollectorFactoryEEE10deallocateEPS4_m
FN:109,_ZN9__gnu_cxx13new_allocatorIN7rocksdb6DbPathEE10deallocateEPS2_m
FN:109,_ZN9__gnu_cxx13new_allocatorISt10shared_ptrIN7rocksdb13EventListenerEEE10deallocateEPS4_m
FN:109,_ZN9__gnu_cxx13new_allocatorIiE10deallocateEPim
FN:109,_ZN9__gnu_cxx13new_allocatorIN7rocksdb15CompressionTypeEE10deallocateEPS2_m
FNDA:0,_ZN9__gnu_cxx13new_allocatorIcEC2Ev
FNDA:0,_ZN9__gnu_cxx13new_allocatorIcEC2ERKS1_
FNDA:2424,_ZN9__gnu_cxx13new_allocatorISt10shared_ptrIN7rocksdb31TablePropertiesCollectorFactoryEEED2Ev
FNDA:2520,_ZN9__gnu_cxx13new_allocatorIiED2Ev
FNDA:2424,_ZN9__gnu_cxx13new_allocatorIN7rocksdb15CompressionTypeEED2Ev
FNDA:1414,_ZN9__gnu_cxx13new_allocatorISt10shared_ptrIN7rocksdb13EventListenerEEED2Ev
FNDA:1414,_ZN9__gnu_cxx13new_allocatorIN7rocksdb6DbPathEED2Ev
FNDA:0,_ZN9__gnu_cxx13new_allocatorIcED2Ev
FNDA:0,_ZN9__gnu_cxx13new_allocatorISt10shared_ptrIN7rocksdb31TablePropertiesCollectorFactoryEEE10deallocateEPS4_m
FNDA:2574,_ZN9__gnu_cxx13new_allocatorIiE10deallocateEPim
FNDA:0,_ZN9__gnu_cxx13new_allocatorIN7rocksdb15CompressionTypeEE10deallocateEPS2_m
FNDA:0,_ZN9__gnu_cxx13new_allocatorISt10shared_ptrIN7rocksdb13EventListenerEEE10deallocateEPS4_m
FNDA:202,_ZN9__gnu_cxx13new_allocatorIN7rocksdb6DbPathEE10deallocateEPS2_m
FNF:13
FNH:7
DA:79,0
DA:81,0
DA:86,10196
DA:109,2776
DA:110,2776
LF:5
LH:3
end_of_record
SF:/usr/include/x86_64-linux-gnu/c++/4.8/bits/gthr-default.h
FN:247,_ZL18__gthread_active_pv
FNDA:8305,_ZL18__gthread_active_pv
FNF:1
FNH:1
DA:247,8305
DA:251,8305
LF:2
LH:2
end_of_record
TN:
SF:/home/taller2-appserver/Appserver/src/servicios/ServicioInexistente.cpp
FN:3,_ZN19ServicioInexistenteC2Ev
FN:7,_ZN19ServicioInexistenteD0Ev
FN:7,_ZN19ServicioInexistenteD2Ev
FN:10,_Z41__static_initialization_and_destruction_0ii
FN:10,_GLOBAL__sub_I__ZN19ServicioInexistenteC2Ev
FNDA:0,_ZN19ServicioInexistenteC2Ev
FNDA:0,_ZN19ServicioInexistenteD0Ev
FNDA:0,_ZN19ServicioInexistenteD2Ev
FNDA:4,_GLOBAL__sub_I__ZN19ServicioInexistenteC2Ev
FNDA:4,_Z41__static_initialization_and_destruction_0ii
FNF:5
FNH:2
DA:3,0
DA:4,0
DA:5,0
DA:7,0
DA:10,12
LF:5
LH:1
end_of_record
SF:/usr/include/c++/4.8/iostream
DA:74,4
LF:1
LH:1
end_of_record
TN:
SF:/home/taller2-appserver/Appserver/src/servicios/RespuestaDelChat.cpp
FN:3,_ZN16RespuestaDelChatC2Ev
FN:8,_ZN16RespuestaDelChatD2Ev
FN:8,_ZN16RespuestaDelChatD0Ev
FN:14,_ZN16RespuestaDelChat15setRespuestaGCMEv
FN:18,_Z41__static_initialization_and_destruction_0ii
FN:18,_GLOBAL__sub_I__ZN16RespuestaDelChatC2Ev
FNDA:2,_ZN16RespuestaDelChatC2Ev
FNDA:2,_ZN16RespuestaDelChatD0Ev
FNDA:2,_ZN16RespuestaDelChatD2Ev
FNDA:2,_ZN16RespuestaDelChat15setRespuestaGCMEv
FNDA:4,_GLOBAL__sub_I__ZN16RespuestaDelChatC2Ev
FNDA:4,_Z41__static_initialization_and_destruction_0ii
FNF:6
FNH:6
DA:3,2
DA:6,2
DA:8,4
DA:11,4
DA:14,2
DA:16,2
DA:17,2
DA:18,14
LF:8
LH:8
end_of_record
SF:/usr/include/c++/4.8/bits/basic_string.h
FN:272,_ZNSs12_Alloc_hiderD2Ev
FNDA:0,_ZNSs12_Alloc_hiderD2Ev
FNF:1
FNH:0
DA:272,0
LF:1
LH:0
end_of_record
SF:/usr/include/c++/4.8/ext/atomicity.h
FN:48,_ZN9__gnu_cxxL18__exchange_and_addEPVii
FN:65,_ZN9__gnu_cxxL25__exchange_and_add_singleEPii
FN:78,_ZN9__gnu_cxxL27__exchange_and_add_dispatchEPii
FNDA:0,_ZN9__gnu_cxxL18__exchange_and_addEPVii
FNDA:0,_ZN9__gnu_cxxL25__exchange_and_add_singleEPii
FNDA:0,_ZN9__gnu_cxxL27__exchange_and_add_dispatchEPii
FNF:3
FNH:0
DA:48,0
DA:49,0
DA:65,0
DA:67,0
DA:68,0
DA:69,0
DA:78,0
DA:81,0
DA:82,0
DA:84,0
LF:10
LH:0
end_of_record
SF:/usr/include/c++/4.8/ext/new_allocator.h
FN:79,_ZN9__gnu_cxx13new_allocatorIcEC2Ev
FN:81,_ZN9__gnu_cxx13new_allocatorIcEC2ERKS1_
FN:86,_ZN9__gnu_cxx13new_allocatorIcED2Ev
FNDA:0,_ZN9__gnu_cxx13new_allocatorIcEC2Ev
FNDA:0,_ZN9__gnu_cxx13new_allocatorIcEC2ERKS1_
FNDA:0,_ZN9__gnu_cxx13new_allocatorIcED2Ev
FNF:3
FNH:0
DA:79,0
DA:81,0
DA:86,0
LF:3
LH:0
end_of_record
SF:/usr/include/c++/4.8/iostream
DA:74,4
LF:1
LH:1
end_of_record
SF:/usr/include/x86_64-linux-gnu/c++/4.8/bits/gthr-default.h
FN:247,_ZL18__gthread_active_pv
FNDA:0,_ZL18__gthread_active_pv
FNF:1
FNH:0
DA:247,0
DA:251,0
LF:2
LH:0
end_of_record
TN:
SF:/home/taller2-appserver/Appserver/src/servicios/SharedDataBase.cpp
FN:3,_ZN14SharedDataBaseC2EP21ManejadorDeConexiones
FN:7,_ZN14SharedDataBaseD2Ev
FN:7,_ZN14SharedDataBaseD0Ev
FN:12,_ZN14SharedDataBase16registrarUsuarioESs
FN:34,_Z41__static_initialization_and_destruction_0ii
FN:34,_GLOBAL__sub_I__ZN14SharedDataBaseC2EP21ManejadorDeConexiones
FNDA:4,_ZN14SharedDataBaseC2EP21ManejadorDeConexiones
FNDA:4,_ZN14SharedDataBaseD0Ev
FNDA:4,_ZN14SharedDataBaseD2Ev
FNDA:0,_ZN14SharedDataBase16registrarUsuarioESs
FNDA:4,_GLOBAL__sub_I__ZN14SharedDataBaseC2EP21ManejadorDeConexiones
FNDA:4,_Z41__static_initialization_and_destruction_0ii
FNF:6
FNH:5
DA:3,4
DA:4,4
DA:5,4
DA:7,8
DA:10,8
DA:12,0
DA:13,0
DA:14,0
DA:15,0
DA:16,0
DA:17,0
DA:18,0
DA:20,0
DA:25,0
DA:34,12
LF:15
LH:6
end_of_record
SF:/usr/include/c++/4.8/bits/basic_string.h
FN:272,_ZNSs12_Alloc_hiderD2Ev
FNDA:0,_ZNSs12_Alloc_hiderD2Ev
FNF:1
FNH:0
DA:272,0
LF:1
LH:0
end_of_record
SF:/usr/include/c++/4.8/ext/atomicity.h
FN:48,_ZN9__gnu_cxxL18__exchange_and_addEPVii
FN:65,_ZN9__gnu_cxxL25__exchange_and_add_singleEPii
FN:78,_ZN9__gnu_cxxL27__exchange_and_add_dispatchEPii
FNDA:0,_ZN9__gnu_cxxL18__exchange_and_addEPVii
FNDA:0,_ZN9__gnu_cxxL25__exchange_and_add_singleEPii
FNDA:0,_ZN9__gnu_cxxL27__exchange_and_add_dispatchEPii
FNF:3
FNH:0
DA:48,0
DA:49,0
DA:65,0
DA:67,0
DA:68,0
DA:69,0
DA:78,0
DA:81,0
DA:82,0
DA:84,0
LF:10
LH:0
end_of_record
SF:/usr/include/c++/4.8/ext/new_allocator.h
FN:79,_ZN9__gnu_cxx13new_allocatorIcEC2Ev
FN:81,_ZN9__gnu_cxx13new_allocatorIcEC2ERKS1_
FN:86,_ZN9__gnu_cxx13new_allocatorIcED2Ev
FNDA:0,_ZN9__gnu_cxx13new_allocatorIcEC2Ev
FNDA:0,_ZN9__gnu_cxx13new_allocatorIcEC2ERKS1_
FNDA:0,_ZN9__gnu_cxx13new_allocatorIcED2Ev
FNF:3
FNH:0
DA:79,0
DA:81,0
DA:86,0
LF:3
LH:0
end_of_record
SF:/usr/include/c++/4.8/iostream
DA:74,4
LF:1
LH:1
end_of_record
SF:/usr/include/x86_64-linux-gnu/c++/4.8/bits/gthr-default.h
FN:247,_ZL18__gthread_active_pv
FNDA:0,_ZL18__gthread_active_pv
FNF:1
FNH:0
DA:247,0
DA:251,0
LF:2
LH:0
end_of_record
TN:
SF:/home/taller2-appserver/Appserver/src/servicios/CreatorServicioMensajes.cpp
FN:3,_ZN23CreatorServicioMensajesC2EP18MensajeHTTPRequestP18SesionesDeUsuariosP14Conversaciones
FN:22,_ZN23CreatorServicioMensajesD0Ev
FN:22,_ZN23CreatorServicioMensajesD2Ev
FN:25,_GLOBAL__sub_I__ZN23CreatorServicioMensajesC2EP18MensajeHTTPRequestP18SesionesDeUsuariosP14Conversaciones
FN:25,_Z41__static_initialization_and_destruction_0ii
FNDA:1,_ZN23CreatorServicioMensajesC2EP18MensajeHTTPRequestP18SesionesDeUsuariosP14Conversaciones
FNDA:1,_ZN23CreatorServicioMensajesD0Ev
FNDA:1,_ZN23CreatorServicioMensajesD2Ev
FNDA:4,_GLOBAL__sub_I__ZN23CreatorServicioMensajesC2EP18MensajeHTTPRequestP18SesionesDeUsuariosP14Conversaciones
FNDA:4,_Z41__static_initialization_and_destruction_0ii
FNF:5
FNH:5
DA:3,1
DA:5,1
DA:6,2
DA:7,2
DA:8,2
DA:9,2
DA:13,1
DA:18,1
DA:20,1
DA:22,2
DA:25,14
LF:11
LH:11
end_of_record
SF:/usr/include/c++/4.8/bits/basic_string.h
FN:272,_ZNSs12_Alloc_hiderD2Ev
FNDA:0,_ZNSs12_Alloc_hiderD2Ev
FNF:1
FNH:0
DA:272,0
LF:1
LH:0
end_of_record
SF:/usr/include/c++/4.8/ext/atomicity.h
FN:48,_ZN9__gnu_cxxL18__exchange_and_addEPVii
FN:65,_ZN9__gnu_cxxL25__exchange_and_add_singleEPii
FN:78,_ZN9__gnu_cxxL27__exchange_and_add_dispatchEPii
FNDA:0,_ZN9__gnu_cxxL18__exchange_and_addEPVii
FNDA:0,_ZN9__gnu_cxxL25__exchange_and_add_singleEPii
FNDA:0,_ZN9__gnu_cxxL27__exchange_and_add_dispatchEPii
FNF:3
FNH:0
DA:48,0
DA:49,0
DA:65,0
DA:67,0
DA:68,0
DA:69,0
DA:78,0
DA:81,0
DA:82,0
DA:84,0
LF:10
LH:0
end_of_record
SF:/usr/include/c++/4.8/ext/new_allocator.h
FN:79,_ZN9__gnu_cxx13new_allocatorIcEC2Ev
FN:81,_ZN9__gnu_cxx13new_allocatorIcEC2ERKS1_
FN:86,_ZN9__gnu_cxx13new_allocatorIcED2Ev
FNDA:0,_ZN9__gnu_cxx13new_allocatorIcEC2Ev
FNDA:0,_ZN9__gnu_cxx13new_allocatorIcEC2ERKS1_
FNDA:0,_ZN9__gnu_cxx13new_allocatorIcED2Ev
FNF:3
FNH:0
DA:79,0
DA:81,0
DA:86,0
LF:3
LH:0
end_of_record
SF:/usr/include/c++/4.8/iostream
DA:74,4
LF:1
LH:1
end_of_record
SF:/usr/include/x86_64-linux-gnu/c++/4.8/bits/gthr-default.h
FN:247,_ZL18__gthread_active_pv
FNDA:0,_ZL18__gthread_active_pv
FNF:1
FNH:0
DA:247,0
DA:251,0
LF:2
LH:0
end_of_record
TN:
SF:/home/taller2-appserver/Appserver/src/servicios/Mensajero.cpp
FN:3,_ZN9MensajeroC2EP21ManejadorDeConexionesP18SesionesDeUsuarios
FN:9,_ZN9MensajeroD2Ev
FN:9,_ZN9MensajeroD0Ev
FN:15,_ZN9Mensajero13enviarMensajeESsSsSs
FN:50,_Z41__static_initialization_and_destruction_0ii
FN:50,_GLOBAL__sub_I__ZN9MensajeroC2EP21ManejadorDeConexionesP18SesionesDeUsuarios
FNDA:4,_ZN9MensajeroC2EP21ManejadorDeConexionesP18SesionesDeUsuarios
FNDA:4,_ZN9MensajeroD0Ev
FNDA:4,_ZN9MensajeroD2Ev
FNDA:2,_ZN9Mensajero13enviarMensajeESsSsSs
FNDA:4,_GLOBAL__sub_I__ZN9MensajeroC2EP21ManejadorDeConexionesP18SesionesDeUsuarios
FNDA:4,_Z41__static_initialization_and_destruction_0ii
FNF:6
FNH:6
DA:3,4
DA:4,4
DA:5,4
DA:7,4
DA:9,8
DA:12,8
DA:15,2
DA:17,2
DA:21,4
DA:24,2
DA:25,2
DA:27,4
DA:32,4
DA:34,2
DA:35,2
DA:40,2
DA:42,4
DA:45,2
DA:48,4
DA:50,12
LF:20
LH:20
end_of_record
SF:/usr/include/c++/4.8/bits/basic_string.h
FN:272,_ZNSs12_Alloc_hiderD2Ev
FNDA:0,_ZNSs12_Alloc_hiderD2Ev
FNF:1
FNH:0
DA:272,0
LF:1
LH:0
end_of_record
SF:/usr/include/c++/4.8/bits/char_traits.h
FN:258,_ZNSt11char_traitsIcE6lengthEPKc
FNDA:0,_ZNSt11char_traitsIcE6lengthEPKc
FNF:1
FNH:0
DA:258,0
DA:259,0
LF:2
LH:0
end_of_record
SF:/usr/include/c++/4.8/bits/ios_base.h
FN:163,_ZStorSt12_Ios_IostateS_
FNDA:0,_ZStorSt12_Ios_IostateS_
FNF:1
FNH:0
DA:163,0
DA:164,0
LF:2
LH:0
end_of_record
SF:/usr/include/c++/4.8/ext/atomicity.h
FN:48,_ZN9__gnu_cxxL18__exchange_and_addEPVii
FN:65,_ZN9__gnu_cxxL25__exchange_and_add_singleEPii
FN:78,_ZN9__gnu_cxxL27__exchange_and_add_dispatchEPii
FNDA:0,_ZN9__gnu_cxxL18__exchange_and_addEPVii
FNDA:0,_ZN9__gnu_cxxL25__exchange_and_add_singleEPii
FNDA:0,_ZN9__gnu_cxxL27__exchange_and_add_dispatchEPii
FNF:3
FNH:0
DA:48,0
DA:49,0
DA:65,0
DA:67,0
DA:68,0
DA:69,0
DA:78,0
DA:81,0
DA:82,0
DA:84,0
LF:10
LH:0
end_of_record
SF:/usr/include/c++/4.8/ext/new_allocator.h
FN:79,_ZN9__gnu_cxx13new_allocatorIcEC2Ev
FN:81,_ZN9__gnu_cxx13new_allocatorIcEC2ERKS1_
FN:86,_ZN9__gnu_cxx13new_allocatorIcED2Ev
FNDA:0,_ZN9__gnu_cxx13new_allocatorIcEC2Ev
FNDA:0,_ZN9__gnu_cxx13new_allocatorIcEC2ERKS1_
FNDA:0,_ZN9__gnu_cxx13new_allocatorIcED2Ev
FNF:3
FNH:0
DA:79,0
DA:81,0
DA:86,0
LF:3
LH:0
end_of_record
SF:/usr/include/c++/4.8/iostream
DA:74,4
LF:1
LH:1
end_of_record
SF:/usr/include/x86_64-linux-gnu/c++/4.8/bits/gthr-default.h
FN:247,_ZL18__gthread_active_pv
FNDA:0,_ZL18__gthread_active_pv
FNF:1
FNH:0
DA:247,0
DA:251,0
LF:2
LH:0
end_of_record
TN:
SF:/home/taller2-appserver/Appserver/src/servicios/RespuestaServicioInexistente.cpp
FN:3,_ZN28RespuestaServicioInexistenteC2Ev
FN:8,_ZN28RespuestaServicioInexistenteD2Ev
FN:8,_ZN28RespuestaServicioInexistenteD0Ev
FN:11,_Z41__static_initialization_and_destruction_0ii
FN:11,_GLOBAL__sub_I__ZN28RespuestaServicioInexistenteC2Ev
FNDA:0,_ZN28RespuestaServicioInexistenteC2Ev
FNDA:0,_ZN28RespuestaServicioInexistenteD0Ev
FNDA:0,_ZN28RespuestaServicioInexistenteD2Ev
FNDA:4,_GLOBAL__sub_I__ZN28RespuestaServicioInexistenteC2Ev
FNDA:4,_Z41__static_initialization_and_destruction_0ii
FNF:5
FNH:2
DA:3,0
DA:4,0
DA:5,0
DA:6,0
DA:8,0
DA:11,12
LF:6
LH:1
end_of_record
SF:/usr/include/c++/4.8/bits/basic_string.h
FN:272,_ZNSs12_Alloc_hiderD2Ev
FNDA:0,_ZNSs12_Alloc_hiderD2Ev
FNF:1
FNH:0
DA:272,0
LF:1
LH:0
end_of_record
SF:/usr/include/c++/4.8/ext/atomicity.h
FN:48,_ZN9__gnu_cxxL18__exchange_and_addEPVii
FN:65,_ZN9__gnu_cxxL25__exchange_and_add_singleEPii
FN:78,_ZN9__gnu_cxxL27__exchange_and_add_dispatchEPii
FNDA:0,_ZN9__gnu_cxxL18__exchange_and_addEPVii
FNDA:0,_ZN9__gnu_cxxL25__exchange_and_add_singleEPii
FNDA:0,_ZN9__gnu_cxxL27__exchange_and_add_dispatchEPii
FNF:3
FNH:0
DA:48,0
DA:49,0
DA:65,0
DA:67,0
DA:68,0
DA:69,0
DA:78,0
DA:81,0
DA:82,0
DA:84,0
LF:10
LH:0
end_of_record
SF:/usr/include/c++/4.8/ext/new_allocator.h
FN:79,_ZN9__gnu_cxx13new_allocatorIcEC2Ev
FN:81,_ZN9__gnu_cxx13new_allocatorIcEC2ERKS1_
FN:86,_ZN9__gnu_cxx13new_allocatorIcED2Ev
FNDA:0,_ZN9__gnu_cxx13new_allocatorIcEC2Ev
FNDA:0,_ZN9__gnu_cxx13new_allocatorIcEC2ERKS1_
FNDA:0,_ZN9__gnu_cxx13new_allocatorIcED2Ev
FNF:3
FNH:0
DA:79,0
DA:81,0
DA:86,0
LF:3
LH:0
end_of_record
SF:/usr/include/c++/4.8/iostream
DA:74,4
LF:1
LH:1
end_of_record
SF:/usr/include/x86_64-linux-gnu/c++/4.8/bits/gthr-default.h
FN:247,_ZL18__gthread_active_pv
FNDA:0,_ZL18__gthread_active_pv
FNF:1
FNH:0
DA:247,0
DA:251,0
LF:2
LH:0
end_of_record
TN:
SF:/home/taller2-appserver/Appserver/src/servicios/ServicioChat.cpp
FN:3,_ZN12ServicioChatC2EP9MensajeroP18MensajeHTTPRequestP18SesionesDeUsuariosP14Conversaciones
FN:13,_ZN12ServicioChat11atenderChatEv
FN:64,_ZN12ServicioChatD0Ev
FN:64,_ZN12ServicioChatD2Ev
FN:67,_GLOBAL__sub_I__ZN12ServicioChatC2EP9MensajeroP18MensajeHTTPRequestP18SesionesDeUsuariosP14Conversaciones
FN:67,_Z41__static_initialization_and_destruction_0ii
FNDA:2,_ZN12ServicioChatC2EP9MensajeroP18MensajeHTTPRequestP18SesionesDeUsuariosP14Conversaciones
FNDA:2,_ZN12ServicioChat11atenderChatEv
FNDA:2,_ZN12ServicioChatD0Ev
FNDA:2,_ZN12ServicioChatD2Ev
FNDA:4,_GLOBAL__sub_I__ZN12ServicioChatC2EP9MensajeroP18MensajeHTTPRequestP18SesionesDeUsuariosP14Conversaciones
FNDA:4,_Z41__static_initialization_and_destruction_0ii
FNF:6
FNH:6
DA:3,2
DA:4,2
DA:5,2
DA:7,2
DA:9,2
DA:10,2
DA:13,2
DA:14,2
DA:22,4
DA:23,4
DA:31,2
DA:38,2
DA:46,2
DA:47,2
DA:48,4
DA:60,2
DA:64,4
DA:67,16
LF:18
LH:18
end_of_record
SF:/usr/include/c++/4.8/bits/basic_string.h
FN:272,_ZNSs12_Alloc_hiderD2Ev
FNDA:0,_ZNSs12_Alloc_hiderD2Ev
FNF:1
FNH:0
DA:272,0
LF:1
LH:0
end_of_record
SF:/usr/include/c++/4.8/ext/atomicity.h
FN:48,_ZN9__gnu_cxxL18__exchange_and_addEPVii
FN:65,_ZN9__gnu_cxxL25__exchange_and_add_singleEPii
FN:78,_ZN9__gnu_cxxL27__exchange_and_add_dispatchEPii
FNDA:0,_ZN9__gnu_cxxL18__exchange_and_addEPVii
FNDA:0,_ZN9__gnu_cxxL25__exchange_and_add_singleEPii
FNDA:0,_ZN9__gnu_cxxL27__exchange_and_add_dispatchEPii
FNF:3
FNH:0
DA:48,0
DA:49,0
DA:65,0
DA:67,0
DA:68,0
DA:69,0
DA:78,0
DA:81,0
DA:82,0
DA:84,0
LF:10
LH:0
end_of_record
SF:/usr/include/c++/4.8/ext/new_allocator.h
FN:79,_ZN9__gnu_cxx13new_allocatorIcEC2Ev
FN:81,_ZN9__gnu_cxx13new_allocatorIcEC2ERKS1_
FN:86,_ZN9__gnu_cxx13new_allocatorIcED2Ev
FNDA:0,_ZN9__gnu_cxx13new_allocatorIcEC2Ev
FNDA:0,_ZN9__gnu_cxx13new_allocatorIcEC2ERKS1_
FNDA:0,_ZN9__gnu_cxx13new_allocatorIcED2Ev
FNF:3
FNH:0
DA:79,0
DA:81,0
DA:86,0
LF:3
LH:0
end_of_record
SF:/usr/include/c++/4.8/iostream
DA:74,4
LF:1
LH:1
end_of_record
SF:/usr/include/x86_64-linux-gnu/c++/4.8/bits/gthr-default.h
FN:247,_ZL18__gthread_active_pv
FNDA:0,_ZL18__gthread_active_pv
FNF:1
FNH:0
DA:247,0
DA:251,0
LF:2
LH:0
end_of_record
TN:
SF:/home/taller2-appserver/Appserver/src/servicios/ServicioMensajes.cpp
FN:3,_ZN16ServicioMensajesC2EP18MensajeHTTPRequestP18SesionesDeUsuariosP14Conversaciones
FN:11,_ZN16ServicioMensajesD2Ev
FN:11,_ZN16ServicioMensajesD0Ev
FN:16,_ZN16ServicioMensajes15atenderMensajesEv
FN:46,_GLOBAL__sub_I__ZN16ServicioMensajesC2EP18MensajeHTTPRequestP18SesionesDeUsuariosP14Conversaciones
FN:46,_Z41__static_initialization_and_destruction_0ii
FNDA:1,_ZN16ServicioMensajesC2EP18MensajeHTTPRequestP18SesionesDeUsuariosP14Conversaciones
FNDA:1,_ZN16ServicioMensajesD0Ev
FNDA:1,_ZN16ServicioMensajesD2Ev
FNDA:1,_ZN16ServicioMensajes15atenderMensajesEv
FNDA:4,_GLOBAL__sub_I__ZN16ServicioMensajesC2EP18MensajeHTTPRequestP18SesionesDeUsuariosP14Conversaciones
FNDA:4,_Z41__static_initialization_and_destruction_0ii
FNF:6
FNH:6
DA:3,1
DA:4,1
DA:6,1
DA:8,1
DA:9,1
DA:11,2
DA:13,2
DA:16,1
DA:17,1
DA:18,2
DA:25,2
DA:26,2
DA:27,2
DA:29,2
DA:33,1
DA:34,1
DA:35,2
DA:46,13
LF:18
LH:18
end_of_record
SF:/usr/include/c++/4.8/bits/basic_string.h
FN:272,_ZNSs12_Alloc_hiderD2Ev
FNDA:0,_ZNSs12_Alloc_hiderD2Ev
FNF:1
FNH:0
DA:272,0
LF:1
LH:0
end_of_record
SF:/usr/include/c++/4.8/ext/atomicity.h
FN:48,_ZN9__gnu_cxxL18__exchange_and_addEPVii
FN:65,_ZN9__gnu_cxxL25__exchange_and_add_singleEPii
FN:78,_ZN9__gnu_cxxL27__exchange_and_add_dispatchEPii
FNDA:0,_ZN9__gnu_cxxL18__exchange_and_addEPVii
FNDA:0,_ZN9__gnu_cxxL25__exchange_and_add_singleEPii
FNDA:0,_ZN9__gnu_cxxL27__exchange_and_add_dispatchEPii
FNF:3
FNH:0
DA:48,0
DA:49,0
DA:65,0
DA:67,0
DA:68,0
DA:69,0
DA:78,0
DA:81,0
DA:82,0
DA:84,0
LF:10
LH:0
end_of_record
SF:/usr/include/c++/4.8/ext/new_allocator.h
FN:79,_ZN9__gnu_cxx13new_allocatorIcEC2Ev
FN:81,_ZN9__gnu_cxx13new_allocatorIcEC2ERKS1_
FN:86,_ZN9__gnu_cxx13new_allocatorIcED2Ev
FNDA:0,_ZN9__gnu_cxx13new_allocatorIcEC2Ev
FNDA:0,_ZN9__gnu_cxx13new_allocatorIcEC2ERKS1_
FNDA:0,_ZN9__gnu_cxx13new_allocatorIcED2Ev
FNF:3
FNH:0
DA:79,0
DA:81,0
DA:86,0
LF:3
LH:0
end_of_record
SF:/usr/include/c++/4.8/iostream
DA:74,4
LF:1
LH:1
end_of_record
SF:/usr/include/x86_64-linux-gnu/c++/4.8/bits/gthr-default.h
FN:247,_ZL18__gthread_active_pv
FNDA:0,_ZL18__gthread_active_pv
FNF:1
FNH:0
DA:247,0
DA:251,0
LF:2
LH:0
end_of_record
TN:
SF:/home/taller2-appserver/Appserver/src/servicios/CreatorRegistro.cpp
FN:3,_ZN15CreatorRegistroC2EP14SharedDataBase18MensajeHTTPRequestP22CredencialesDeUsuarios
FN:13,_ZN15CreatorRegistroD0Ev
FN:13,_ZN15CreatorRegistroD2Ev
FN:16,_Z41__static_initialization_and_destruction_0ii
FN:16,_GLOBAL__sub_I__ZN15CreatorRegistroC2EP14SharedDataBase18MensajeHTTPRequestP22CredencialesDeUsuarios
FNDA:2,_ZN15CreatorRegistroC2EP14SharedDataBase18MensajeHTTPRequestP22CredencialesDeUsuarios
FNDA:2,_ZN15CreatorRegistroD0Ev
FNDA:2,_ZN15CreatorRegistroD2Ev
FNDA:4,_GLOBAL__sub_I__ZN15CreatorRegistroC2EP14SharedDataBase18MensajeHTTPRequestP22CredencialesDeUsuarios
FNDA:4,_Z41__static_initialization_and_destruction_0ii
FNF:5
FNH:5
DA:3,2
DA:5,2
DA:6,2
DA:9,0
DA:11,2
DA:13,4
DA:16,16
LF:7
LH:6
end_of_record
SF:/home/taller2-appserver/Appserver/src/servicios/MensajeHTTP.h
FN:11,_ZN11MensajeHTTPC2ERKS_
FNDA:0,_ZN11MensajeHTTPC2ERKS_
FNF:1
FNH:0
DA:11,0
LF:1
LH:0
end_of_record
SF:/home/taller2-appserver/Appserver/src/servicios/MensajeHTTPRequest.h
FN:9,_ZN18MensajeHTTPRequestC2ERKS_
FNDA:0,_ZN18MensajeHTTPRequestC2ERKS_
FNF:1
FNH:0
DA:9,0
LF:1
LH:0
end_of_record
SF:/usr/include/c++/4.8/bits/alloc_traits.h
FN:253,_ZNSt16allocator_traitsISaISt13_Rb_tree_nodeISt4pairIKSsSsEEEE12_S_constructIS4_IRKS3_EEENSt9enable_ifIXsrNS6_18__construct_helperIT_IDpT0_EEE5valueEvE4typeERS5_PSC_DpOSD_
FN:391,_ZNSt16allocator_traitsISaISt13_Rb_tree_nodeISt4pairIKSsSsEEEE9constructIS4_IRKS3_EEEDTcl12_S_constructfp_fp0_spcl7forwardIT0_Efp1_EEERS5_PT_DpOSA_
FNDA:0,_ZNSt16allocator_traitsISaISt13_Rb_tree_nodeISt4pairIKSsSsEEEE12_S_constructIS4_IRKS3_EEENSt9enable_ifIXsrNS6_18__construct_helperIT_IDpT0_EEE5valueEvE4typeERS5_PSC_DpOSD_
FNDA:0,_ZNSt16allocator_traitsISaISt13_Rb_tree_nodeISt4pairIKSsSsEEEE9constructIS4_IRKS3_EEEDTcl12_S_constructfp_fp0_spcl7forwardIT0_Efp1_EEERS5_PT_DpOSA_
FNF:2
FNH:0
DA:253,0
DA:254,0
DA:391,0
DA:393,0
LF:4
LH:0
end_of_record
SF:/usr/include/c++/4.8/bits/allocator.h
FN:115,_ZNSaISt13_Rb_tree_nodeISt4pairIKSsSsEEEC2ERKS4_
FN:121,_ZNSaISt13_Rb_tree_nodeISt4pairIKSsSsEEED2Ev
FNDA:0,_ZNSaISt13_Rb_tree_nodeISt4pairIKSsSsEEEC2ERKS4_
FNDA:0,_ZNSaISt13_Rb_tree_nodeISt4pairIKSsSsEEED2Ev
FNF:2
FNH:0
DA:115,0
DA:116,0
DA:121,0
LF:3
LH:0
end_of_record
SF:/usr/include/c++/4.8/bits/basic_string.h
FN:272,_ZNSs12_Alloc_hiderD2Ev
FNDA:0,_ZNSs12_Alloc_hiderD2Ev
FNF:1
FNH:0
DA:272,0
LF:1
LH:0
end_of_record
SF:/usr/include/c++/4.8/bits/move.h
FN:76,_ZSt7forwardIRKSt4pairIKSsSsEEOT_RNSt16remove_referenceIS5_E4typeE
FNDA:0,_ZSt7forwardIRKSt4pairIKSsSsEEOT_RNSt16remove_referenceIS5_E4typeE
FNF:1
FNH:0
DA:76,0
DA:77,0
LF:2
LH:0
end_of_record
SF:/usr/include/c++/4.8/bits/stl_map.h
FN:180,_ZNSt3mapISsSsSt4lessISsESaISt4pairIKSsSsEEEC2ERKS6_
FNDA:0,_ZNSt3mapISsSsSt4lessISsESaISt4pairIKSsSsEEEC2ERKS6_
FNF:1
FNH:0
DA:180,0
DA:181,0
LF:2
LH:0
end_of_record
SF:/usr/include/c++/4.8/bits/stl_pair.h
FN:96,_ZNSt4pairIKSsSsED2Ev
FN:127,_ZNSt4pairIKSsSsEC2ERKS1_
FNDA:0,_ZNSt4pairIKSsSsED2Ev
FNDA:0,_ZNSt4pairIKSsSsEC2ERKS1_
FNF:2
FNH:0
DA:96,0
DA:127,0
LF:2
LH:0
end_of_record
SF:/usr/include/c++/4.8/bits/stl_tree.h
FN:102,_ZNSt18_Rb_tree_node_base10_S_minimumEPS_
FN:116,_ZNSt18_Rb_tree_node_base10_S_maximumEPS_
FN:131,_ZNSt13_Rb_tree_nodeISt4pairIKSsSsEED2Ev
FN:138,_ZNSt13_Rb_tree_nodeISt4pairIKSsSsEEC2IIRKS2_EEEDpOT_
FN:356,_ZNSt8_Rb_treeISsSt4pairIKSsSsESt10_Select1stIS2_ESt4lessISsESaIS2_EE21_M_get_Node_allocatorEv
FN:360,_ZNKSt8_Rb_treeISsSt4pairIKSsSsESt10_Select1stIS2_ESt4lessISsESaIS2_EE21_M_get_Node_allocatorEv
FN:369,_ZNSt8_Rb_treeISsSt4pairIKSsSsESt10_Select1stIS2_ESt4lessISsESaIS2_EE11_M_get_nodeEv
FN:373,_ZNSt8_Rb_treeISsSt4pairIKSsSsESt10_Select1stIS2_ESt4lessISsESaIS2_EE11_M_put_nodeEPSt13_Rb_tree_nodeIS2_E
FN:401,_ZNSt8_Rb_treeISsSt4pairIKSsSsESt10_Select1stIS2_ESt4lessISsESaIS2_EE14_M_create_nodeIIRKS2_EEEPSt13_Rb_tree_nodeIS2_EDpOT_
FN:419,_ZNSt8_Rb_treeISsSt4pairIKSsSsESt10_Select1stIS2_ESt4lessISsESaIS2_EE15_M_destroy_nodeEPSt13_Rb_tree_nodeIS2_E
FN:427,_ZNSt8_Rb_treeISsSt4pairIKSsSsESt10_Select1stIS2_ESt4lessISsESaIS2_EE13_M_clone_nodeEPKSt13_Rb_tree_nodeIS2_E
FN:439,_ZNSt8_Rb_treeISsSt4pairIKSsSsESt10_Select1stIS2_ESt4lessISsESaIS2_EE13_Rb_tree_implIS6_Lb1EED2Ev
FN:450,_ZNSt8_Rb_treeISsSt4pairIKSsSsESt10_Select1stIS2_ESt4lessISsESaIS2_EE13_Rb_tree_implIS6_Lb1EEC2ERKS6_RKSaISt13_Rb_tree_nodeIS2_EE
FN:464,_ZNSt8_Rb_treeISsSt4pairIKSsSsESt10_Select1stIS2_ESt4lessISsESaIS2_EE13_Rb_tree_implIS6_Lb1EE13_M_initializeEv
FN:477,_ZNSt8_Rb_treeISsSt4pairIKSsSsESt10_Select1stIS2_ESt4lessISsESaIS2_EE7_M_rootEv
FN:481,_ZNKSt8_Rb_treeISsSt4pairIKSsSsESt10_Select1stIS2_ESt4lessISsESaIS2_EE7_M_rootEv
FN:485,_ZNSt8_Rb_treeISsSt4pairIKSsSsESt10_Select1stIS2_ESt4lessISsESaIS2_EE11_M_leftmostEv
FN:493,_ZNSt8_Rb_treeISsSt4pairIKSsSsESt10_Select1stIS2_ESt4lessISsESaIS2_EE12_M_rightmostEv
FN:505,_ZNKSt8_Rb_treeISsSt4pairIKSsSsESt10_Select1stIS2_ESt4lessISsESaIS2_EE8_M_beginEv
FN:512,_ZNSt8_Rb_treeISsSt4pairIKSsSsESt10_Select1stIS2_ESt4lessISsESaIS2_EE6_M_endEv
FN:528,_ZNSt8_Rb_treeISsSt4pairIKSsSsESt10_Select1stIS2_ESt4lessISsESaIS2_EE7_S_leftEPSt18_Rb_tree_node_base
FN:532,_ZNSt8_Rb_treeISsSt4pairIKSsSsESt10_Select1stIS2_ESt4lessISsESaIS2_EE7_S_leftEPKSt18_Rb_tree_node_base
FN:536,_ZNSt8_Rb_treeISsSt4pairIKSsSsESt10_Select1stIS2_ESt4lessISsESaIS2_EE8_S_rightEPSt18_Rb_tree_node_base
FN:540,_ZNSt8_Rb_treeISsSt4pairIKSsSsESt10_Select1stIS2_ESt4lessISsESaIS2_EE8_S_rightEPKSt18_Rb_tree_node_base
FN:552,_ZNSt8_Rb_treeISsSt4pairIKSsSsESt10_Select1stIS2_ESt4lessISsESaIS2_EE10_S_minimumEPSt18_Rb_tree_node_base
FN:560,_ZNSt8_Rb_treeISsSt4pairIKSsSsESt10_Select1stIS2_ESt4lessISsESaIS2_EE10_S_maximumEPSt18_Rb_tree_node_base
FN:654,_ZNSt8_Rb_treeISsSt4pairIKSsSsESt10_Select1stIS2_ESt4lessISsESaIS2_EEC2ERKS8_
FN:1083,_ZNSt8_Rb_treeISsSt4pairIKSsSsESt10_Select1stIS2_ESt4lessISsESaIS2_EE7_M_copyEPKSt13_Rb_tree_nodeIS2_EPSA_
FN:1119,_ZNSt8_Rb_treeISsSt4pairIKSsSsESt10_Select1stIS2_ESt4lessISsESaIS2_EE8_M_eraseEPSt13_Rb_tree_nodeIS2_E
FNDA:0,_ZNSt18_Rb_tree_node_base10_S_minimumEPS_
FNDA:0,_ZNSt18_Rb_tree_node_base10_S_maximumEPS_
FNDA:0,_ZNSt13_Rb_tree_nodeISt4pairIKSsSsEED2Ev
FNDA:0,_ZNSt13_Rb_tree_nodeISt4pairIKSsSsEEC2IIRKS2_EEEDpOT_
FNDA:0,_ZNSt8_Rb_treeISsSt4pairIKSsSsESt10_Select1stIS2_ESt4lessISsESaIS2_EE21_M_get_Node_allocatorEv
FNDA:0,_ZNKSt8_Rb_treeISsSt4pairIKSsSsESt10_Select1stIS2_ESt4lessISsESaIS2_EE21_M_get_Node_allocatorEv
FNDA:0,_ZNSt8_Rb_treeISsSt4pairIKSsSsESt10_Select1stIS2_ESt4lessISsESaIS2_EE11_M_get_nodeEv
FNDA:0,_ZNSt8_Rb_treeISsSt4pairIKSsSsESt10_Select1stIS2_ESt4lessISsESaIS2_EE11_M_put_nodeEPSt13_Rb_tree_nodeIS2_E
FNDA:0,_ZNSt8_Rb_treeISsSt4pairIKSsSsESt10_Select1stIS2_ESt4lessISsESaIS2_EE14_M_create_nodeIIRKS2_EEEPSt13_Rb_tree_nodeIS2_EDpOT_
FNDA:0,_ZNSt8_Rb_treeISsSt4pairIKSsSsESt10_Select1stIS2_ESt4lessISsESaIS2_EE15_M_destroy_nodeEPSt13_Rb_tree_nodeIS2_E
FNDA:0,_ZNSt8_Rb_treeISsSt4pairIKSsSsESt10_Select1stIS2_ESt4lessISsESaIS2_EE13_M_clone_nodeEPKSt13_Rb_tree_nodeIS2_E
FNDA:0,_ZNSt8_Rb_treeISsSt4pairIKSsSsESt10_Select1stIS2_ESt4lessISsESaIS2_EE13_Rb_tree_implIS6_Lb1EED2Ev
FNDA:0,_ZNSt8_Rb_treeISsSt4pairIKSsSsESt10_Select1stIS2_ESt4lessISsESaIS2_EE13_Rb_tree_implIS6_Lb1EEC2ERKS6_RKSaISt13_Rb_tree_nodeIS2_EE
FNDA:0,_ZNSt8_Rb_treeISsSt4pairIKSsSsESt10_Select1stIS2_ESt4lessISsESaIS2_EE13_Rb_tree_implIS6_Lb1EE13_M_initializeEv
FNDA:0,_ZNSt8_Rb_treeISsSt4pairIKSsSsESt10_Select1stIS2_ESt4lessISsESaIS2_EE7_M_rootEv
FNDA:0,_ZNKSt8_Rb_treeISsSt4pairIKSsSsESt10_Select1stIS2_ESt4lessISsESaIS2_EE7_M_rootEv
FNDA:0,_ZNSt8_Rb_treeISsSt4pairIKSsSsESt10_Select1stIS2_ESt4lessISsESaIS2_EE11_M_leftmostEv
FNDA:0,_ZNSt8_Rb_treeISsSt4pairIKSsSsESt10_Select1stIS2_ESt4lessISsESaIS2_EE12_M_rightmostEv
FNDA:0,_ZNKSt8_Rb_treeISsSt4pairIKSsSsESt10_Select1stIS2_ESt4lessISsESaIS2_EE8_M_beginEv
FNDA:0,_ZNSt8_Rb_treeISsSt4pairIKSsSsESt10_Select1stIS2_ESt4lessISsESaIS2_EE6_M_endEv
FNDA:0,_ZNSt8_Rb_treeISsSt4pairIKSsSsESt10_Select1stIS2_ESt4lessISsESaIS2_EE7_S_leftEPSt18_Rb_tree_node_base
FNDA:0,_ZNSt8_Rb_treeISsSt4pairIKSsSsESt10_Select1stIS2_ESt4lessISsESaIS2_EE7_S_leftEPKSt18_Rb_tree_node_base
FNDA:0,_ZNSt8_Rb_treeISsSt4pairIKSsSsESt10_Select1stIS2_ESt4lessISsESaIS2_EE8_S_rightEPSt18_Rb_tree_node_base
FNDA:0,_ZNSt8_Rb_treeISsSt4pairIKSsSsESt10_Select1stIS2_ESt4lessISsESaIS2_EE8_S_rightEPKSt18_Rb_tree_node_base
FNDA:0,_ZNSt8_Rb_treeISsSt4pairIKSsSsESt10_Select1stIS2_ESt4lessISsESaIS2_EE10_S_minimumEPSt18_Rb_tree_node_base
FNDA:0,_ZNSt8_Rb_treeISsSt4pairIKSsSsESt10_Select1stIS2_ESt4lessISsESaIS2_EE10_S_maximumEPSt18_Rb_tree_node_base
FNDA:0,_ZNSt8_Rb_treeISsSt4pairIKSsSsESt10_Select1stIS2_ESt4lessISsESaIS2_EEC2ERKS8_
FNDA:0,_ZNSt8_Rb_treeISsSt4pairIKSsSsESt10_Select1stIS2_ESt4lessISsESaIS2_EE7_M_copyEPKSt13_Rb_tree_nodeIS2_EPSA_
FNDA:0,_ZNSt8_Rb_treeISsSt4pairIKSsSsESt10_Select1stIS2_ESt4lessISsESaIS2_EE8_M_eraseEPSt13_Rb_tree_nodeIS2_E
FNF:29
FNH:0
DA:102,0
DA:104,0
DA:105,0
DA:116,0
DA:118,0
DA:119,0
DA:131,0
DA:138,0
DA:140,0
DA:356,0
DA:357,0
DA:360,0
DA:361,0
DA:369,0
DA:370,0
DA:373,0
DA:374,0
DA:401,0
DA:403,0
DA:406,0
DA:407,0
DA:408,0
DA:410,=====
DA:412,=====
DA:413,=====
DA:415,0
DA:419,0
DA:421,0
DA:422,0
DA:423,0
DA:427,0
DA:429,0
DA:430,0
DA:431,0
DA:432,0
DA:433,0
DA:439,0
DA:450,0
DA:452,0
DA:453,0
DA:464,0
DA:466,0
DA:467,0
DA:468,0
DA:469,0
DA:470,0
DA:477,0
DA:478,0
DA:481,0
DA:482,0
DA:485,0
DA:486,0
DA:493,0
DA:494,0
DA:505,0
DA:508,0
DA:512,0
DA:513,0
DA:528,0
DA:529,0
DA:532,0
DA:533,0
DA:536,0
DA:537,0
DA:540,0
DA:541,0
DA:552,0
DA:553,0
DA:560,0
DA:561,0
DA:654,0
DA:655,0
DA:657,0
DA:659,0
DA:660,0
DA:661,0
DA:662,0
DA:664,0
DA:1083,0
DA:1087,0
DA:1088,0
DA:1092,0
DA:1093,0
DA:1094,0
DA:1095,0
DA:1097,0
DA:1099,0
DA:1100,0
DA:1101,0
DA:1102,0
DA:1103,0
DA:1104,0
DA:1105,0
DA:1108,=====
DA:1110,=====
DA:1111,=====
DA:1113,0
DA:1119,0
DA:1123,0
DA:1125,0
DA:1126,0
DA:1127,0
DA:1128,0
DA:1130,0
LF:104
LH:0
end_of_record
SF:/usr/include/c++/4.8/ext/atomicity.h
FN:48,_ZN9__gnu_cxxL18__exchange_and_addEPVii
FN:65,_ZN9__gnu_cxxL25__exchange_and_add_singleEPii
FN:78,_ZN9__gnu_cxxL27__exchange_and_add_dispatchEPii
FNDA:0,_ZN9__gnu_cxxL18__exchange_and_addEPVii
FNDA:0,_ZN9__gnu_cxxL25__exchange_and_add_singleEPii
FNDA:0,_ZN9__gnu_cxxL27__exchange_and_add_dispatchEPii
FNF:3
FNH:0
DA:48,0
DA:49,0
DA:65,0
DA:67,0
DA:68,0
DA:69,0
DA:78,0
DA:81,0
DA:82,0
DA:84,0
LF:10
LH:0
end_of_record
SF:/usr/include/c++/4.8/ext/new_allocator.h
FN:79,_ZN9__gnu_cxx13new_allocatorIcEC2Ev
FN:81,_ZN9__gnu_cxx13new_allocatorISt13_Rb_tree_nodeISt4pairIKSsSsEEEC2ERKS6_
FN:81,_ZN9__gnu_cxx13new_allocatorIcEC2ERKS1_
FN:86,_ZN9__gnu_cxx13new_allocatorIcED2Ev
FN:86,_ZN9__gnu_cxx13new_allocatorISt13_Rb_tree_nodeISt4pairIKSsSsEEED2Ev
FN:99,_ZN9__gnu_cxx13new_allocatorISt13_Rb_tree_nodeISt4pairIKSsSsEEE8allocateEmPKv
FN:109,_ZN9__gnu_cxx13new_allocatorISt13_Rb_tree_nodeISt4pairIKSsSsEEE10deallocateEPS5_m
FN:113,_ZNK9__gnu_cxx13new_allocatorISt13_Rb_tree_nodeISt4pairIKSsSsEEE8max_sizeEv
FN:119,_ZN9__gnu_cxx13new_allocatorISt13_Rb_tree_nodeISt4pairIKSsSsEEE9constructIS5_IRKS4_EEEvPT_DpOT0_
FN:124,_ZN9__gnu_cxx13new_allocatorISt13_Rb_tree_nodeISt4pairIKSsSsEEE7destroyIS5_EEvPT_
FNDA:0,_ZN9__gnu_cxx13new_allocatorIcEC2Ev
FNDA:0,_ZN9__gnu_cxx13new_allocatorISt13_Rb_tree_nodeISt4pairIKSsSsEEEC2ERKS6_
FNDA:0,_ZN9__gnu_cxx13new_allocatorIcEC2ERKS1_
FNDA:0,_ZN9__gnu_cxx13new_allocatorISt13_Rb_tree_nodeISt4pairIKSsSsEEED2Ev
FNDA:0,_ZN9__gnu_cxx13new_allocatorIcED2Ev
FNDA:0,_ZN9__gnu_cxx13new_allocatorISt13_Rb_tree_nodeISt4pairIKSsSsEEE8allocateEmPKv
FNDA:0,_ZN9__gnu_cxx13new_allocatorISt13_Rb_tree_nodeISt4pairIKSsSsEEE10deallocateEPS5_m
FNDA:0,_ZNK9__gnu_cxx13new_allocatorISt13_Rb_tree_nodeISt4pairIKSsSsEEE8max_sizeEv
FNDA:0,_ZN9__gnu_cxx13new_allocatorISt13_Rb_tree_nodeISt4pairIKSsSsEEE9constructIS5_IRKS4_EEEvPT_DpOT0_
FNDA:0,_ZN9__gnu_cxx13new_allocatorISt13_Rb_tree_nodeISt4pairIKSsSsEEE7destroyIS5_EEvPT_
FNF:10
FNH:0
DA:79,0
DA:81,0
DA:86,0
DA:99,0
DA:101,0
DA:102,0
DA:104,0
DA:109,0
DA:110,0
DA:113,0
DA:114,0
DA:119,0
DA:120,0
DA:124,0
LF:14
LH:0
end_of_record
SF:/usr/include/c++/4.8/iostream
DA:74,4
LF:1
LH:1
end_of_record
SF:/usr/include/c++/4.8/new
FN:109,_ZnwmPv
FN:115,_ZdlPvS_
FNDA:0,_ZnwmPv
FNDA:0,_ZdlPvS_
FNF:2
FNH:0
DA:109,0
DA:110,0
DA:115,0
LF:3
LH:0
end_of_record
SF:/usr/include/x86_64-linux-gnu/c++/4.8/bits/gthr-default.h
FN:247,_ZL18__gthread_active_pv
FNDA:0,_ZL18__gthread_active_pv
FNF:1
FNH:0
DA:247,0
DA:251,0
LF:2
LH:0
end_of_record
TN:
SF:/home/taller2-appserver/Appserver/src/servicios/RespuestaDelLogin.cpp
FN:3,_ZN17RespuestaDelLoginC2Ev
FN:7,_ZN17RespuestaDelLoginD0Ev
FN:7,_ZN17RespuestaDelLoginD2Ev
FN:12,_ZN17RespuestaDelLogin25setRespuestaLoginCorrectoESs
FN:18,_ZN17RespuestaDelLogin27setRespuestaLoginIncorrectoEv
FN:21,_GLOBAL__sub_I__ZN17RespuestaDelLoginC2Ev
FN:21,_Z41__static_initialization_and_destruction_0ii
FNDA:9,_ZN17RespuestaDelLoginC2Ev
FNDA:9,_ZN17RespuestaDelLoginD0Ev
FNDA:9,_ZN17RespuestaDelLoginD2Ev
FNDA:6,_ZN17RespuestaDelLogin25setRespuestaLoginCorrectoESs
FNDA:3,_ZN17RespuestaDelLogin27setRespuestaLoginIncorrectoEv
FNDA:4,_GLOBAL__sub_I__ZN17RespuestaDelLoginC2Ev
FNDA:4,_Z41__static_initialization_and_destruction_0ii
FNF:7
FNH:7
DA:3,9
DA:5,9
DA:7,18
DA:9,18
DA:12,6
DA:13,6
DA:14,6
DA:15,6
DA:16,6
DA:18,3
DA:19,3
DA:20,3
DA:21,15
LF:13
LH:13
end_of_record
SF:/usr/include/c++/4.8/bits/basic_string.h
FN:272,_ZNSs12_Alloc_hiderD2Ev
FNDA:0,_ZNSs12_Alloc_hiderD2Ev
FNF:1
FNH:0
DA:272,0
LF:1
LH:0
end_of_record
SF:/usr/include/c++/4.8/ext/atomicity.h
FN:48,_ZN9__gnu_cxxL18__exchange_and_addEPVii
FN:65,_ZN9__gnu_cxxL25__exchange_and_add_singleEPii
FN:78,_ZN9__gnu_cxxL27__exchange_and_add_dispatchEPii
FNDA:0,_ZN9__gnu_cxxL18__exchange_and_addEPVii
FNDA:0,_ZN9__gnu_cxxL25__exchange_and_add_singleEPii
FNDA:0,_ZN9__gnu_cxxL27__exchange_and_add_dispatchEPii
FNF:3
FNH:0
DA:48,0
DA:49,0
DA:65,0
DA:67,0
DA:68,0
DA:69,0
DA:78,0
DA:81,0
DA:82,0
DA:84,0
LF:10
LH:0
end_of_record
SF:/usr/include/c++/4.8/ext/new_allocator.h
FN:79,_ZN9__gnu_cxx13new_allocatorIcEC2Ev
FN:81,_ZN9__gnu_cxx13new_allocatorIcEC2ERKS1_
FN:86,_ZN9__gnu_cxx13new_allocatorIcED2Ev
FNDA:0,_ZN9__gnu_cxx13new_allocatorIcEC2Ev
FNDA:0,_ZN9__gnu_cxx13new_allocatorIcEC2ERKS1_
FNDA:0,_ZN9__gnu_cxx13new_allocatorIcED2Ev
FNF:3
FNH:0
DA:79,0
DA:81,0
DA:86,0
LF:3
LH:0
end_of_record
SF:/usr/include/c++/4.8/iostream
DA:74,4
LF:1
LH:1
end_of_record
SF:/usr/include/x86_64-linux-gnu/c++/4.8/bits/gthr-default.h
FN:247,_ZL18__gthread_active_pv
FNDA:0,_ZL18__gthread_active_pv
FNF:1
FNH:0
DA:247,0
DA:251,0
LF:2
LH:0
end_of_record
TN:
SF:/home/taller2-appserver/Appserver/src/external/json/json.h
FN:1447,_ZN4Json6ReaderD2Ev
FN:1597,_ZN4Json6Reader9ErrorInfoD2Ev
FN:1993,_ZN4Json10FastWriterD2Ev
FN:1993,_ZN4Json10FastWriterD0Ev
FNDA:403,_ZN4Json6ReaderD2Ev
FNDA:0,_ZN4Json6Reader9ErrorInfoD2Ev
FNDA:0,_ZN4Json10FastWriterD0Ev
FNDA:0,_ZN4Json10FastWriterD2Ev
FNF:4
FNH:1
DA:1447,403
DA:1597,0
DA:1993,0
LF:3
LH:1
end_of_record
SF:/home/taller2-appserver/Appserver/src/servicios/JsonValor.cpp
FN:3,_ZN9JsonValorC2Ev
FN:7,_ZN9JsonValorC2ESs
FN:12,_ZN9JsonValorC2ERKN4Json5ValueE
FN:17,_ZN9JsonValor12getJsonValueEv
FN:21,_ZN9JsonValor4sizeEv
FN:25,_ZN9JsonValor8toStringEv
FN:30,_ZN9JsonValorD2Ev
FN:30,_ZN9JsonValorD0Ev
FNDA:1189,_ZN9JsonValorC2Ev
FNDA:403,_ZN9JsonValorC2ESs
FNDA:2240,_ZN9JsonValorC2ERKN4Json5ValueE
FNDA:575,_ZN9JsonValor12getJsonValueEv
FNDA:1261,_ZN9JsonValor4sizeEv
FNDA:1589,_ZN9JsonValor8toStringEv
FNDA:0,_ZN9JsonValorD0Ev
FNDA:3928,_ZN9JsonValorD2Ev
FNF:8
FNH:7
DA:3,1189
DA:5,1189
DA:7,403
DA:8,403
DA:9,403
DA:10,403
DA:12,2240
DA:13,2240
DA:14,2240
DA:17,575
DA:18,575
DA:21,1261
DA:22,1261
DA:25,1589
DA:26,1589
DA:27,1589
DA:30,3928
DA:33,3928
LF:18
LH:18
end_of_record
SF:/usr/include/c++/4.8/bits/allocator.h
FN:119,_ZNSaIPPN4Json5ValueEEC2IS1_EERKSaIT_E
FN:119,_ZNSaIPN4Json6Reader9ErrorInfoEEC2IS1_EERKSaIT_E
FN:121,_ZNSaIPN4Json5ValueEED2Ev
FN:121,_ZNSaIPPN4Json5ValueEED2Ev
FN:121,_ZNSaIN4Json6Reader9ErrorInfoEED2Ev
FN:121,_ZNSaIPN4Json6Reader9ErrorInfoEED2Ev
FNDA:0,_ZNSaIPN4Json6Reader9ErrorInfoEEC2IS1_EERKSaIT_E
FNDA:0,_ZNSaIPPN4Json5ValueEEC2IS1_EERKSaIT_E
FNDA:0,_ZNSaIPN4Json6Reader9ErrorInfoEED2Ev
FNDA:0,_ZNSaIPPN4Json5ValueEED2Ev
FNDA:0,_ZNSaIN4Json6Reader9ErrorInfoEED2Ev
FNDA:0,_ZNSaIPN4Json5ValueEED2Ev
FNF:6
FNH:0
DA:119,0
DA:121,0
LF:2
LH:0
end_of_record
SF:/usr/include/c++/4.8/bits/basic_string.h
FN:272,_ZNSs12_Alloc_hiderD2Ev
FNDA:0,_ZNSs12_Alloc_hiderD2Ev
FNF:1
FNH:0
DA:272,0
LF:1
LH:0
end_of_record
SF:/usr/include/c++/4.8/bits/deque.tcc
FN:801,_ZNSt5dequeIN4Json6Reader9ErrorInfoESaIS2_EE19_M_destroy_data_auxESt15_Deque_iteratorIS2_RS2_PS2_ES8_
FNDA:0,_ZNSt5dequeIN4Json6Reader9ErrorInfoESaIS2_EE19_M_destroy_data_auxESt15_Deque_iteratorIS2_RS2_PS2_ES8_
FNF:1
FNH:0
DA:801,0
DA:804,0
DA:806,0
DA:807,0
DA:809,0
DA:811,0
DA:812,0
DA:813,0
DA:814,0
DA:817,0
DA:818,0
DA:819,0
LF:12
LH:0
end_of_record
SF:/usr/include/c++/4.8/bits/move.h
FN:47,_ZSt11__addressofIN4Json6Reader9ErrorInfoEEPT_RS3_
FNDA:0,_ZSt11__addressofIN4Json6Reader9ErrorInfoEEPT_RS3_
FNF:1
FNH:0
DA:47,0
DA:50,0
LF:2
LH:0
end_of_record
SF:/usr/include/c++/4.8/bits/stl_construct.h
FN:92,_ZSt8_DestroyIN4Json6Reader9ErrorInfoEEvPT_
FN:100,_ZNSt12_Destroy_auxILb0EE9__destroyIPN4Json6Reader9ErrorInfoEEEvT_S6_
FN:122,_ZSt8_DestroyIPN4Json6Reader9ErrorInfoEEvT_S4_
FN:148,_ZSt8_DestroyIPN4Json6Reader9ErrorInfoES2_EvT_S4_RSaIT0_E
FNDA:0,_ZSt8_DestroyIN4Json6Reader9ErrorInfoEEvPT_
FNDA:0,_ZNSt12_Destroy_auxILb0EE9__destroyIPN4Json6Reader9ErrorInfoEEEvT_S6_
FNDA:0,_ZSt8_DestroyIPN4Json6Reader9ErrorInfoEEvT_S4_
FNDA:0,_ZSt8_DestroyIPN4Json6Reader9ErrorInfoES2_EvT_S4_RSaIT0_E
FNF:4
FNH:0
DA:92,0
DA:93,0
DA:100,0
DA:102,0
DA:103,0
DA:104,0
DA:122,0
DA:126,0
DA:128,0
DA:148,0
DA:151,0
DA:152,0
LF:12
LH:0
end_of_record
SF:/usr/include/c++/4.8/bits/stl_deque.h
FN:89,_ZSt16__deque_buf_sizem
FN:135,_ZNSt15_Deque_iteratorIN4Json6Reader9ErrorInfoERS2_PS2_EC2ERKS5_
FN:135,_ZNSt15_Deque_iteratorIPN4Json5ValueERS2_PS2_EC2ERKS5_
FN:492,_ZNSt11_Deque_baseIN4Json6Reader9ErrorInfoESaIS2_EE11_Deque_implD2Ev
FN:492,_ZNSt11_Deque_baseIPN4Json5ValueESaIS2_EE11_Deque_implD2Ev
FN:519,_ZNSt11_Deque_baseIN4Json6Reader9ErrorInfoESaIS2_EE19_M_get_Tp_allocatorEv
FN:519,_ZNSt11_Deque_baseIPN4Json5ValueESaIS2_EE19_M_get_Tp_allocatorEv
FN:523,_ZNKSt11_Deque_baseIPN4Json5ValueESaIS2_EE19_M_get_Tp_allocatorEv
FN:523,_ZNKSt11_Deque_baseIN4Json6Reader9ErrorInfoESaIS2_EE19_M_get_Tp_allocatorEv
FN:527,_ZNKSt11_Deque_baseIPN4Json5ValueESaIS2_EE20_M_get_map_allocatorEv
FN:527,_ZNKSt11_Deque_baseIN4Json6Reader9ErrorInfoESaIS2_EE20_M_get_map_allocatorEv
FN:537,_ZNSt11_Deque_baseIN4Json6Reader9ErrorInfoESaIS2_EE18_M_deallocate_nodeEPS2_
FN:537,_ZNSt11_Deque_baseIPN4Json5ValueESaIS2_EE18_M_deallocate_nodeEPS2_
FN:547,_ZNSt11_Deque_baseIPN4Json5ValueESaIS2_EE17_M_deallocate_mapEPPS2_m
FN:547,_ZNSt11_Deque_baseIN4Json6Reader9ErrorInfoESaIS2_EE17_M_deallocate_mapEPPS2_m
FN:560,_ZNSt11_Deque_baseIPN4Json5ValueESaIS2_EED2Ev
FN:560,_ZNSt11_Deque_baseIN4Json6Reader9ErrorInfoESaIS2_EED2Ev
FN:638,_ZNSt11_Deque_baseIN4Json6Reader9ErrorInfoESaIS2_EE16_M_destroy_nodesEPPS2_S6_
FN:638,_ZNSt11_Deque_baseIPN4Json5ValueESaIS2_EE16_M_destroy_nodesEPPS2_S6_
FN:757,_ZNSt5dequeIN4Json6Reader9ErrorInfoESaIS2_EE14_S_buffer_sizeEv
FN:917,_ZNSt5dequeIPN4Json5ValueESaIS2_EED2Ev
FN:917,_ZNSt5dequeIN4Json6Reader9ErrorInfoESaIS2_EED2Ev
FN:1037,_ZNSt5dequeIN4Json6Reader9ErrorInfoESaIS2_EE5beginEv
FN:1037,_ZNSt5dequeIPN4Json5ValueESaIS2_EE5beginEv
FN:1054,_ZNSt5dequeIN4Json6Reader9ErrorInfoESaIS2_EE3endEv
FN:1054,_ZNSt5dequeIPN4Json5ValueESaIS2_EE3endEv
FN:1849,_ZNSt5dequeIPN4Json5ValueESaIS2_EE15_M_destroy_dataESt15_Deque_iteratorIS2_RS2_PS2_ES8_RKS3_
FN:1849,_ZNSt5dequeIN4Json6Reader9ErrorInfoESaIS2_EE15_M_destroy_dataESt15_Deque_iteratorIS2_RS2_PS2_ES8_RKS3_
FNDA:0,_ZSt16__deque_buf_sizem
FNDA:0,_ZNSt15_Deque_iteratorIN4Json6Reader9ErrorInfoERS2_PS2_EC2ERKS5_
FNDA:0,_ZNSt15_Deque_iteratorIPN4Json5ValueERS2_PS2_EC2ERKS5_
FNDA:0,_ZNSt11_Deque_baseIN4Json6Reader9ErrorInfoESaIS2_EE11_Deque_implD2Ev
FNDA:0,_ZNSt11_Deque_baseIPN4Json5ValueESaIS2_EE11_Deque_implD2Ev
FNDA:0,_ZNSt11_Deque_baseIN4Json6Reader9ErrorInfoESaIS2_EE19_M_get_Tp_allocatorEv
FNDA:0,_ZNSt11_Deque_baseIPN4Json5ValueESaIS2_EE19_M_get_Tp_allocatorEv
FNDA:0,_ZNKSt11_Deque_baseIN4Json6Reader9ErrorInfoESaIS2_EE19_M_get_Tp_allocatorEv
FNDA:0,_ZNKSt11_Deque_baseIPN4Json5ValueESaIS2_EE19_M_get_Tp_allocatorEv
FNDA:0,_ZNKSt11_Deque_baseIN4Json6Reader9ErrorInfoESaIS2_EE20_M_get_map_allocatorEv
FNDA:0,_ZNKSt11_Deque_baseIPN4Json5ValueESaIS2_EE20_M_get_map_allocatorEv
FNDA:0,_ZNSt11_Deque_baseIN4Json6Reader9ErrorInfoESaIS2_EE18_M_deallocate_nodeEPS2_
FNDA:0,_ZNSt11_Deque_baseIPN4Json5ValueESaIS2_EE18_M_deallocate_nodeEPS2_
FNDA:0,_ZNSt11_Deque_baseIN4Json6Reader9ErrorInfoESaIS2_EE17_M_deallocate_mapEPPS2_m
FNDA:0,_ZNSt11_Deque_baseIPN4Json5ValueESaIS2_EE17_M_deallocate_mapEPPS2_m
FNDA:0,_ZNSt11_Deque_baseIN4Json6Reader9ErrorInfoESaIS2_EED2Ev
FNDA:0,_ZNSt11_Deque_baseIPN4Json5ValueESaIS2_EED2Ev
FNDA:0,_ZNSt11_Deque_baseIN4Json6Reader9ErrorInfoESaIS2_EE16_M_destroy_nodesEPPS2_S6_
FNDA:0,_ZNSt11_Deque_baseIPN4Json5ValueESaIS2_EE16_M_destroy_nodesEPPS2_S6_
FNDA:0,_ZNSt5dequeIN4Json6Reader9ErrorInfoESaIS2_EE14_S_buffer_sizeEv
FNDA:0,_ZNSt5dequeIN4Json6Reader9ErrorInfoESaIS2_EED2Ev
FNDA:0,_ZNSt5dequeIPN4Json5ValueESaIS2_EED2Ev
FNDA:0,_ZNSt5dequeIN4Json6Reader9ErrorInfoESaIS2_EE5beginEv
FNDA:0,_ZNSt5dequeIPN4Json5ValueESaIS2_EE5beginEv
FNDA:0,_ZNSt5dequeIN4Json6Reader9ErrorInfoESaIS2_EE3endEv
FNDA:0,_ZNSt5dequeIPN4Json5ValueESaIS2_EE3endEv
FNDA:0,_ZNSt5dequeIN4Json6Reader9ErrorInfoESaIS2_EE15_M_destroy_dataESt15_Deque_iteratorIS2_RS2_PS2_ES8_RKS3_
FNDA:0,_ZNSt5dequeIPN4Json5ValueESaIS2_EE15_M_destroy_dataESt15_Deque_iteratorIS2_RS2_PS2_ES8_RKS3_
FNF:28
FNH:0
DA:89,0
DA:91,0
DA:135,0
DA:137,0
DA:492,0
DA:519,0
DA:520,0
DA:523,0
DA:524,0
DA:527,0
DA:528,0
DA:537,0
DA:539,0
DA:540,0
DA:547,0
DA:548,0
DA:560,0
DA:563,0
DA:565,0
DA:566,0
DA:567,0
DA:569,0
DA:638,0
DA:641,0
DA:642,0
DA:643,0
DA:757,0
DA:758,0
DA:917,0
DA:918,0
DA:1037,0
DA:1038,0
DA:1054,0
DA:1055,0
DA:1849,0
DA:1853,0
DA:1854,0
LF:37
LH:0
end_of_record
SF:/usr/include/c++/4.8/bits/stl_stack.h
FN:96,_ZNSt5stackIPN4Json5ValueESt5dequeIS2_SaIS2_EEED2Ev
FNDA:0,_ZNSt5stackIPN4Json5ValueESt5dequeIS2_SaIS2_EEED2Ev
FNF:1
FNH:0
DA:96,0
LF:1
LH:0
end_of_record
SF:/usr/include/c++/4.8/ext/atomicity.h
FN:48,_ZN9__gnu_cxxL18__exchange_and_addEPVii
FN:65,_ZN9__gnu_cxxL25__exchange_and_add_singleEPii
FN:78,_ZN9__gnu_cxxL27__exchange_and_add_dispatchEPii
FNDA:0,_ZN9__gnu_cxxL18__exchange_and_addEPVii
FNDA:0,_ZN9__gnu_cxxL25__exchange_and_add_singleEPii
FNDA:0,_ZN9__gnu_cxxL27__exchange_and_add_dispatchEPii
FNF:3
FNH:0
DA:48,0
DA:49,0
DA:65,0
DA:67,0
DA:68,0
DA:69,0
DA:78,0
DA:81,0
DA:82,0
DA:84,0
LF:10
LH:0
end_of_record
SF:/usr/include/c++/4.8/ext/new_allocator.h
FN:79,_ZN9__gnu_cxx13new_allocatorIPN4Json6Reader9ErrorInfoEEC2Ev
FN:79,_ZN9__gnu_cxx13new_allocatorIPPN4Json5ValueEEC2Ev
FN:81,_ZN9__gnu_cxx13new_allocatorIcEC2ERKS1_
FN:86,_ZN9__gnu_cxx13new_allocatorIPN4Json5ValueEED2Ev
FN:86,_ZN9__gnu_cxx13new_allocatorIN4Json6Reader9ErrorInfoEED2Ev
FN:86,_ZN9__gnu_cxx13new_allocatorIcED2Ev
FN:86,_ZN9__gnu_cxx13new_allocatorIPPN4Json5ValueEED2Ev
FN:86,_ZN9__gnu_cxx13new_allocatorIPN4Json6Reader9ErrorInfoEED2Ev
FN:109,_ZN9__gnu_cxx13new_allocatorIN4Json6Reader9ErrorInfoEE10deallocateEPS3_m
FN:109,_ZN9__gnu_cxx13new_allocatorIPN4Json6Reader9ErrorInfoEE10deallocateEPS4_m
FN:109,_ZN9__gnu_cxx13new_allocatorIPPN4Json5ValueEE10deallocateEPS4_m
FN:109,_ZN9__gnu_cxx13new_allocatorIPN4Json5ValueEE10deallocateEPS3_m
FNDA:0,_ZN9__gnu_cxx13new_allocatorIPN4Json6Reader9ErrorInfoEEC2Ev
FNDA:0,_ZN9__gnu_cxx13new_allocatorIPPN4Json5ValueEEC2Ev
FNDA:0,_ZN9__gnu_cxx13new_allocatorIcEC2ERKS1_
FNDA:0,_ZN9__gnu_cxx13new_allocatorIPN4Json6Reader9ErrorInfoEED2Ev
FNDA:0,_ZN9__gnu_cxx13new_allocatorIPPN4Json5ValueEED2Ev
FNDA:0,_ZN9__gnu_cxx13new_allocatorIN4Json6Reader9ErrorInfoEED2Ev
FNDA:0,_ZN9__gnu_cxx13new_allocatorIPN4Json5ValueEED2Ev
FNDA:0,_ZN9__gnu_cxx13new_allocatorIcED2Ev
FNDA:0,_ZN9__gnu_cxx13new_allocatorIN4Json6Reader9ErrorInfoEE10deallocateEPS3_m
FNDA:0,_ZN9__gnu_cxx13new_allocatorIPN4Json5ValueEE10deallocateEPS3_m
FNDA:0,_ZN9__gnu_cxx13new_allocatorIPN4Json6Reader9ErrorInfoEE10deallocateEPS4_m
FNDA:0,_ZN9__gnu_cxx13new_allocatorIPPN4Json5ValueEE10deallocateEPS4_m
FNF:12
FNH:0
DA:79,0
DA:81,0
DA:86,0
DA:109,0
DA:110,0
LF:5
LH:0
end_of_record
SF:/usr/include/x86_64-linux-gnu/c++/4.8/bits/gthr-default.h
FN:247,_ZL18__gthread_active_pv
FNDA:0,_ZL18__gthread_active_pv
FNF:1
FNH:0
DA:247,0
DA:251,0
LF:2
LH:0
end_of_record
TN:
SF:/home/taller2-appserver/Appserver/src/servicios/MensajeHTTP.h
FN:11,_ZN11MensajeHTTPaSERKS_
FNDA:0,_ZN11MensajeHTTPaSERKS_
FNF:1
FNH:0
DA:11,0
LF:1
LH:0
end_of_record
SF:/home/taller2-appserver/Appserver/src/servicios/MensajeHTTPRequest.h
FN:9,_ZN18MensajeHTTPRequestaSERKS_
FNDA:11,_ZN18MensajeHTTPRequestaSERKS_
FNF:1
FNH:1
DA:9,11
LF:1
LH:1
end_of_record
SF:/home/taller2-appserver/Appserver/src/servicios/servicioLogin.cpp
FN:7,_ZN13servicioLoginC2EP18SesionesDeUsuarios18MensajeHTTPRequestP22CredencialesDeUsuarios
FN:15,_ZN13servicioLogin12atenderLoginEv
FN:29,_ZN13servicioLogin19validarCredencialesEv
FN:40,_ZN13servicioLogin13realizarLoginEv
FN:54,_ZN13servicioLogin12generarTokenEv
FN:67,_ZN13servicioLoginD0Ev
FN:67,_ZN13servicioLoginD2Ev
FN:69,_GLOBAL__sub_I__ZN13servicioLoginC2EP18SesionesDeUsuarios18MensajeHTTPRequestP22CredencialesDeUsuarios
FN:69,_Z41__static_initialization_and_destruction_0ii
FNDA:9,_ZN13servicioLoginC2EP18SesionesDeUsuarios18MensajeHTTPRequestP22CredencialesDeUsuarios
FNDA:9,_ZN13servicioLogin12atenderLoginEv
FNDA:9,_ZN13servicioLogin19validarCredencialesEv
FNDA:6,_ZN13servicioLogin13realizarLoginEv
FNDA:6,_ZN13servicioLogin12generarTokenEv
FNDA:9,_ZN13servicioLoginD0Ev
FNDA:9,_ZN13servicioLoginD2Ev
FNDA:4,_GLOBAL__sub_I__ZN13servicioLoginC2EP18SesionesDeUsuarios18MensajeHTTPRequestP22CredencialesDeUsuarios
FNDA:4,_Z41__static_initialization_and_destruction_0ii
FNF:9
FNH:9
DA:7,9
DA:8,9
DA:9,9
DA:10,9
DA:11,9
DA:12,9
DA:15,9
DA:16,9
DA:17,6
DA:22,3
DA:23,3
DA:24,3
DA:27,9
DA:29,9
DA:33,9
DA:34,18
DA:35,18
DA:40,6
DA:41,6
DA:42,6
DA:43,12
DA:44,12
DA:46,6
DA:48,6
DA:49,6
DA:50,12
DA:52,6
DA:54,6
DA:56,6
DA:67,18
DA:69,30
LF:31
LH:31
end_of_record
SF:/usr/include/c++/4.8/bits/alloc_traits.h
FN:253,_ZNSt16allocator_traitsISaISt13_Rb_tree_nodeISt4pairIKSsSsEEEE12_S_constructIS4_IRKS3_EEENSt9enable_ifIXsrNS6_18__construct_helperIT_IDpT0_EEE5valueEvE4typeERS5_PSC_DpOSD_
FN:391,_ZNSt16allocator_traitsISaISt13_Rb_tree_nodeISt4pairIKSsSsEEEE9constructIS4_IRKS3_EEEDTcl12_S_constructfp_fp0_spcl7forwardIT0_Efp1_EEERS5_PT_DpOSA_
FNDA:0,_ZNSt16allocator_traitsISaISt13_Rb_tree_nodeISt4pairIKSsSsEEEE12_S_constructIS4_IRKS3_EEENSt9enable_ifIXsrNS6_18__construct_helperIT_IDpT0_EEE5valueEvE4typeERS5_PSC_DpOSD_
FNDA:0,_ZNSt16allocator_traitsISaISt13_Rb_tree_nodeISt4pairIKSsSsEEEE9constructIS4_IRKS3_EEEDTcl12_S_constructfp_fp0_spcl7forwardIT0_Efp1_EEERS5_PT_DpOSA_
FNF:2
FNH:0
DA:253,0
DA:254,0
DA:391,0
DA:393,0
LF:4
LH:0
end_of_record
SF:/usr/include/c++/4.8/bits/basic_string.h
FN:272,_ZNSs12_Alloc_hiderD2Ev
FNDA:0,_ZNSs12_Alloc_hiderD2Ev
FNF:1
FNH:0
DA:272,0
LF:1
LH:0
end_of_record
SF:/usr/include/c++/4.8/bits/move.h
FN:76,_ZSt7forwardIRKSt4pairIKSsSsEEOT_RNSt16remove_referenceIS5_E4typeE
FNDA:0,_ZSt7forwardIRKSt4pairIKSsSsEEOT_RNSt16remove_referenceIS5_E4typeE
FNF:1
FNH:0
DA:76,0
DA:77,0
LF:2
LH:0
end_of_record
SF:/usr/include/c++/4.8/bits/stl_map.h
FN:264,_ZNSt3mapISsSsSt4lessISsESaISt4pairIKSsSsEEEaSERKS6_
FNDA:0,_ZNSt3mapISsSsSt4lessISsESaISt4pairIKSsSsEEEaSERKS6_
FNF:1
FNH:0
DA:264,0
DA:266,0
DA:267,0
LF:3
LH:0
end_of_record
SF:/usr/include/c++/4.8/bits/stl_pair.h
FN:96,_ZNSt4pairIKSsSsED2Ev
FN:127,_ZNSt4pairIKSsSsEC2ERKS1_
FNDA:0,_ZNSt4pairIKSsSsED2Ev
FNDA:0,_ZNSt4pairIKSsSsEC2ERKS1_
FNF:2
FNH:0
DA:96,0
DA:127,0
LF:2
LH:0
end_of_record
SF:/usr/include/c++/4.8/bits/stl_tree.h
FN:102,_ZNSt18_Rb_tree_node_base10_S_minimumEPS_
FN:116,_ZNSt18_Rb_tree_node_base10_S_maximumEPS_
FN:131,_ZNSt13_Rb_tree_nodeISt4pairIKSsSsEED2Ev
FN:138,_ZNSt13_Rb_tree_nodeISt4pairIKSsSsEEC2IIRKS2_EEEDpOT_
FN:356,_ZNSt8_Rb_treeISsSt4pairIKSsSsESt10_Select1stIS2_ESt4lessISsESaIS2_EE21_M_get_Node_allocatorEv
FN:369,_ZNSt8_Rb_treeISsSt4pairIKSsSsESt10_Select1stIS2_ESt4lessISsESaIS2_EE11_M_get_nodeEv
FN:373,_ZNSt8_Rb_treeISsSt4pairIKSsSsESt10_Select1stIS2_ESt4lessISsESaIS2_EE11_M_put_nodeEPSt13_Rb_tree_nodeIS2_E
FN:401,_ZNSt8_Rb_treeISsSt4pairIKSsSsESt10_Select1stIS2_ESt4lessISsESaIS2_EE14_M_create_nodeIIRKS2_EEEPSt13_Rb_tree_nodeIS2_EDpOT_
FN:419,_ZNSt8_Rb_treeISsSt4pairIKSsSsESt10_Select1stIS2_ESt4lessISsESaIS2_EE15_M_destroy_nodeEPSt13_Rb_tree_nodeIS2_E
FN:427,_ZNSt8_Rb_treeISsSt4pairIKSsSsESt10_Select1stIS2_ESt4lessISsESaIS2_EE13_M_clone_nodeEPKSt13_Rb_tree_nodeIS2_E
FN:477,_ZNSt8_Rb_treeISsSt4pairIKSsSsESt10_Select1stIS2_ESt4lessISsESaIS2_EE7_M_rootEv
FN:481,_ZNKSt8_Rb_treeISsSt4pairIKSsSsESt10_Select1stIS2_ESt4lessISsESaIS2_EE7_M_rootEv
FN:485,_ZNSt8_Rb_treeISsSt4pairIKSsSsESt10_Select1stIS2_ESt4lessISsESaIS2_EE11_M_leftmostEv
FN:493,_ZNSt8_Rb_treeISsSt4pairIKSsSsESt10_Select1stIS2_ESt4lessISsESaIS2_EE12_M_rightmostEv
FN:501,_ZNSt8_Rb_treeISsSt4pairIKSsSsESt10_Select1stIS2_ESt4lessISsESaIS2_EE8_M_beginEv
FN:505,_ZNKSt8_Rb_treeISsSt4pairIKSsSsESt10_Select1stIS2_ESt4lessISsESaIS2_EE8_M_beginEv
FN:512,_ZNSt8_Rb_treeISsSt4pairIKSsSsESt10_Select1stIS2_ESt4lessISsESaIS2_EE6_M_endEv
FN:528,_ZNSt8_Rb_treeISsSt4pairIKSsSsESt10_Select1stIS2_ESt4lessISsESaIS2_EE7_S_leftEPSt18_Rb_tree_node_base
FN:532,_ZNSt8_Rb_treeISsSt4pairIKSsSsESt10_Select1stIS2_ESt4lessISsESaIS2_EE7_S_leftEPKSt18_Rb_tree_node_base
FN:536,_ZNSt8_Rb_treeISsSt4pairIKSsSsESt10_Select1stIS2_ESt4lessISsESaIS2_EE8_S_rightEPSt18_Rb_tree_node_base
FN:540,_ZNSt8_Rb_treeISsSt4pairIKSsSsESt10_Select1stIS2_ESt4lessISsESaIS2_EE8_S_rightEPKSt18_Rb_tree_node_base
FN:552,_ZNSt8_Rb_treeISsSt4pairIKSsSsESt10_Select1stIS2_ESt4lessISsESaIS2_EE10_S_minimumEPSt18_Rb_tree_node_base
FN:560,_ZNSt8_Rb_treeISsSt4pairIKSsSsESt10_Select1stIS2_ESt4lessISsESaIS2_EE10_S_maximumEPSt18_Rb_tree_node_base
FN:858,_ZNSt8_Rb_treeISsSt4pairIKSsSsESt10_Select1stIS2_ESt4lessISsESaIS2_EE5clearEv
FN:987,_ZNSt8_Rb_treeISsSt4pairIKSsSsESt10_Select1stIS2_ESt4lessISsESaIS2_EEaSERKS8_
FN:1083,_ZNSt8_Rb_treeISsSt4pairIKSsSsESt10_Select1stIS2_ESt4lessISsESaIS2_EE7_M_copyEPKSt13_Rb_tree_nodeIS2_EPSA_
FN:1119,_ZNSt8_Rb_treeISsSt4pairIKSsSsESt10_Select1stIS2_ESt4lessISsESaIS2_EE8_M_eraseEPSt13_Rb_tree_nodeIS2_E
FNDA:0,_ZNSt18_Rb_tree_node_base10_S_minimumEPS_
FNDA:0,_ZNSt18_Rb_tree_node_base10_S_maximumEPS_
FNDA:0,_ZNSt13_Rb_tree_nodeISt4pairIKSsSsEED2Ev
FNDA:0,_ZNSt13_Rb_tree_nodeISt4pairIKSsSsEEC2IIRKS2_EEEDpOT_
FNDA:0,_ZNSt8_Rb_treeISsSt4pairIKSsSsESt10_Select1stIS2_ESt4lessISsESaIS2_EE21_M_get_Node_allocatorEv
FNDA:0,_ZNSt8_Rb_treeISsSt4pairIKSsSsESt10_Select1stIS2_ESt4lessISsESaIS2_EE11_M_get_nodeEv
FNDA:0,_ZNSt8_Rb_treeISsSt4pairIKSsSsESt10_Select1stIS2_ESt4lessISsESaIS2_EE11_M_put_nodeEPSt13_Rb_tree_nodeIS2_E
FNDA:0,_ZNSt8_Rb_treeISsSt4pairIKSsSsESt10_Select1stIS2_ESt4lessISsESaIS2_EE14_M_create_nodeIIRKS2_EEEPSt13_Rb_tree_nodeIS2_EDpOT_
FNDA:0,_ZNSt8_Rb_treeISsSt4pairIKSsSsESt10_Select1stIS2_ESt4lessISsESaIS2_EE15_M_destroy_nodeEPSt13_Rb_tree_nodeIS2_E
FNDA:0,_ZNSt8_Rb_treeISsSt4pairIKSsSsESt10_Select1stIS2_ESt4lessISsESaIS2_EE13_M_clone_nodeEPKSt13_Rb_tree_nodeIS2_E
FNDA:0,_ZNSt8_Rb_treeISsSt4pairIKSsSsESt10_Select1stIS2_ESt4lessISsESaIS2_EE7_M_rootEv
FNDA:0,_ZNKSt8_Rb_treeISsSt4pairIKSsSsESt10_Select1stIS2_ESt4lessISsESaIS2_EE7_M_rootEv
FNDA:0,_ZNSt8_Rb_treeISsSt4pairIKSsSsESt10_Select1stIS2_ESt4lessISsESaIS2_EE11_M_leftmostEv
FNDA:0,_ZNSt8_Rb_treeISsSt4pairIKSsSsESt10_Select1stIS2_ESt4lessISsESaIS2_EE12_M_rightmostEv
FNDA:0,_ZNSt8_Rb_treeISsSt4pairIKSsSsESt10_Select1stIS2_ESt4lessISsESaIS2_EE8_M_beginEv
FNDA:0,_ZNKSt8_Rb_treeISsSt4pairIKSsSsESt10_Select1stIS2_ESt4lessISsESaIS2_EE8_M_beginEv
FNDA:0,_ZNSt8_Rb_treeISsSt4pairIKSsSsESt10_Select1stIS2_ESt4lessISsESaIS2_EE6_M_endEv
FNDA:0,_ZNSt8_Rb_treeISsSt4pairIKSsSsESt10_Select1stIS2_ESt4lessISsESaIS2_EE7_S_leftEPSt18_Rb_tree_node_base
FNDA:0,_ZNSt8_Rb_treeISsSt4pairIKSsSsESt10_Select1stIS2_ESt4lessISsESaIS2_EE7_S_leftEPKSt18_Rb_tree_node_base
FNDA:0,_ZNSt8_Rb_treeISsSt4pairIKSsSsESt10_Select1stIS2_ESt4lessISsESaIS2_EE8_S_rightEPSt18_Rb_tree_node_base
FNDA:0,_ZNSt8_Rb_treeISsSt4pairIKSsSsESt10_Select1stIS2_ESt4lessISsESaIS2_EE8_S_rightEPKSt18_Rb_tree_node_base
FNDA:0,_ZNSt8_Rb_treeISsSt4pairIKSsSsESt10_Select1stIS2_ESt4lessISsESaIS2_EE10_S_minimumEPSt18_Rb_tree_node_base
FNDA:0,_ZNSt8_Rb_treeISsSt4pairIKSsSsESt10_Select1stIS2_ESt4lessISsESaIS2_EE10_S_maximumEPSt18_Rb_tree_node_base
FNDA:0,_ZNSt8_Rb_treeISsSt4pairIKSsSsESt10_Select1stIS2_ESt4lessISsESaIS2_EE5clearEv
FNDA:0,_ZNSt8_Rb_treeISsSt4pairIKSsSsESt10_Select1stIS2_ESt4lessISsESaIS2_EEaSERKS8_
FNDA:0,_ZNSt8_Rb_treeISsSt4pairIKSsSsESt10_Select1stIS2_ESt4lessISsESaIS2_EE7_M_copyEPKSt13_Rb_tree_nodeIS2_EPSA_
FNDA:0,_ZNSt8_Rb_treeISsSt4pairIKSsSsESt10_Select1stIS2_ESt4lessISsESaIS2_EE8_M_eraseEPSt13_Rb_tree_nodeIS2_E
FNF:27
FNH:0
DA:102,0
DA:104,0
DA:105,0
DA:116,0
DA:118,0
DA:119,0
DA:131,0
DA:138,0
DA:140,0
DA:356,0
DA:357,0
DA:369,0
DA:370,0
DA:373,0
DA:374,0
DA:401,0
DA:403,0
DA:406,0
DA:407,0
DA:408,0
DA:410,=====
DA:412,=====
DA:413,=====
DA:415,0
DA:419,0
DA:421,0
DA:422,0
DA:423,0
DA:427,0
DA:429,0
DA:430,0
DA:431,0
DA:432,0
DA:433,0
DA:477,0
DA:478,0
DA:481,0
DA:482,0
DA:485,0
DA:486,0
DA:493,0
DA:494,0
DA:501,0
DA:502,0
DA:505,0
DA:508,0
DA:512,0
DA:513,0
DA:528,0
DA:529,0
DA:532,0
DA:533,0
DA:536,0
DA:537,0
DA:540,0
DA:541,0
DA:552,0
DA:553,0
DA:560,0
DA:561,0
DA:858,0
DA:860,0
DA:861,0
DA:862,0
DA:863,0
DA:864,0
DA:865,0
DA:987,0
DA:990,0
DA:993,0
DA:995,0
DA:997,0
DA:998,0
DA:999,0
DA:1000,0
DA:1003,0
DA:1083,0
DA:1087,0
DA:1088,0
DA:1092,0
DA:1093,0
DA:1094,0
DA:1095,0
DA:1097,0
DA:1099,0
DA:1100,0
DA:1101,0
DA:1102,0
DA:1103,0
DA:1104,0
DA:1105,0
DA:1108,=====
DA:1110,=====
DA:1111,=====
DA:1113,0
DA:1119,0
DA:1123,0
DA:1125,0
DA:1126,0
DA:1127,0
DA:1128,0
DA:1130,0
LF:102
LH:0
end_of_record
SF:/usr/include/c++/4.8/ext/atomicity.h
FN:48,_ZN9__gnu_cxxL18__exchange_and_addEPVii
FN:65,_ZN9__gnu_cxxL25__exchange_and_add_singleEPii
FN:78,_ZN9__gnu_cxxL27__exchange_and_add_dispatchEPii
FNDA:0,_ZN9__gnu_cxxL18__exchange_and_addEPVii
FNDA:0,_ZN9__gnu_cxxL25__exchange_and_add_singleEPii
FNDA:0,_ZN9__gnu_cxxL27__exchange_and_add_dispatchEPii
FNF:3
FNH:0
DA:48,0
DA:49,0
DA:65,0
DA:67,0
DA:68,0
DA:69,0
DA:78,0
DA:81,0
DA:82,0
DA:84,0
LF:10
LH:0
end_of_record
SF:/usr/include/c++/4.8/ext/new_allocator.h
FN:79,_ZN9__gnu_cxx13new_allocatorIcEC2Ev
FN:81,_ZN9__gnu_cxx13new_allocatorIcEC2ERKS1_
FN:86,_ZN9__gnu_cxx13new_allocatorIcED2Ev
FN:99,_ZN9__gnu_cxx13new_allocatorISt13_Rb_tree_nodeISt4pairIKSsSsEEE8allocateEmPKv
FN:109,_ZN9__gnu_cxx13new_allocatorISt13_Rb_tree_nodeISt4pairIKSsSsEEE10deallocateEPS5_m
FN:113,_ZNK9__gnu_cxx13new_allocatorISt13_Rb_tree_nodeISt4pairIKSsSsEEE8max_sizeEv
FN:119,_ZN9__gnu_cxx13new_allocatorISt13_Rb_tree_nodeISt4pairIKSsSsEEE9constructIS5_IRKS4_EEEvPT_DpOT0_
FN:124,_ZN9__gnu_cxx13new_allocatorISt13_Rb_tree_nodeISt4pairIKSsSsEEE7destroyIS5_EEvPT_
FNDA:0,_ZN9__gnu_cxx13new_allocatorIcEC2Ev
FNDA:0,_ZN9__gnu_cxx13new_allocatorIcEC2ERKS1_
FNDA:0,_ZN9__gnu_cxx13new_allocatorIcED2Ev
FNDA:0,_ZN9__gnu_cxx13new_allocatorISt13_Rb_tree_nodeISt4pairIKSsSsEEE8allocateEmPKv
FNDA:0,_ZN9__gnu_cxx13new_allocatorISt13_Rb_tree_nodeISt4pairIKSsSsEEE10deallocateEPS5_m
FNDA:0,_ZNK9__gnu_cxx13new_allocatorISt13_Rb_tree_nodeISt4pairIKSsSsEEE8max_sizeEv
FNDA:0,_ZN9__gnu_cxx13new_allocatorISt13_Rb_tree_nodeISt4pairIKSsSsEEE9constructIS5_IRKS4_EEEvPT_DpOT0_
FNDA:0,_ZN9__gnu_cxx13new_allocatorISt13_Rb_tree_nodeISt4pairIKSsSsEEE7destroyIS5_EEvPT_
FNF:8
FNH:0
DA:79,0
DA:81,0
DA:86,0
DA:99,0
DA:101,0
DA:102,0
DA:104,0
DA:109,0
DA:110,0
DA:113,0
DA:114,0
DA:119,0
DA:120,0
DA:124,0
LF:14
LH:0
end_of_record
SF:/usr/include/c++/4.8/iostream
DA:74,4
LF:1
LH:1
end_of_record
SF:/usr/include/c++/4.8/new
FN:109,_ZnwmPv
FN:115,_ZdlPvS_
FNDA:0,_ZnwmPv
FNDA:0,_ZdlPvS_
FNF:2
FNH:0
DA:109,0
DA:110,0
DA:115,0
LF:3
LH:0
end_of_record
SF:/usr/include/x86_64-linux-gnu/c++/4.8/bits/gthr-default.h
FN:247,_ZL18__gthread_active_pv
FNDA:0,_ZL18__gthread_active_pv
FNF:1
FNH:0
DA:247,0
DA:251,0
LF:2
LH:0
end_of_record
TN:
SF:/home/taller2-appserver/Appserver/src/servicios/RespuestaMensajes.cpp
FN:3,_ZN17RespuestaMensajesC2Ev
FN:8,_ZN17RespuestaMensajesD2Ev
FN:8,_ZN17RespuestaMensajesD0Ev
FN:13,_ZN17RespuestaMensajes24setMensajesComoRespuestaER8Mensajes
FN:17,_Z41__static_initialization_and_destruction_0ii
FN:17,_GLOBAL__sub_I__ZN17RespuestaMensajesC2Ev
FNDA:1,_ZN17RespuestaMensajesC2Ev
FNDA:1,_ZN17RespuestaMensajesD0Ev
FNDA:1,_ZN17RespuestaMensajesD2Ev
FNDA:1,_ZN17RespuestaMensajes24setMensajesComoRespuestaER8Mensajes
FNDA:4,_GLOBAL__sub_I__ZN17RespuestaMensajesC2Ev
FNDA:4,_Z41__static_initialization_and_destruction_0ii
FNF:6
FNH:6
DA:3,1
DA:6,1
DA:8,2
DA:11,2
DA:13,1
DA:14,1
DA:15,1
DA:16,1
DA:17,13
LF:9
LH:9
end_of_record
SF:/usr/include/c++/4.8/bits/basic_string.h
FN:272,_ZNSs12_Alloc_hiderD2Ev
FNDA:0,_ZNSs12_Alloc_hiderD2Ev
FNF:1
FNH:0
DA:272,0
LF:1
LH:0
end_of_record
SF:/usr/include/c++/4.8/ext/atomicity.h
FN:48,_ZN9__gnu_cxxL18__exchange_and_addEPVii
FN:65,_ZN9__gnu_cxxL25__exchange_and_add_singleEPii
FN:78,_ZN9__gnu_cxxL27__exchange_and_add_dispatchEPii
FNDA:0,_ZN9__gnu_cxxL18__exchange_and_addEPVii
FNDA:0,_ZN9__gnu_cxxL25__exchange_and_add_singleEPii
FNDA:0,_ZN9__gnu_cxxL27__exchange_and_add_dispatchEPii
FNF:3
FNH:0
DA:48,0
DA:49,0
DA:65,0
DA:67,0
DA:68,0
DA:69,0
DA:78,0
DA:81,0
DA:82,0
DA:84,0
LF:10
LH:0
end_of_record
SF:/usr/include/c++/4.8/ext/new_allocator.h
FN:79,_ZN9__gnu_cxx13new_allocatorIcEC2Ev
FN:81,_ZN9__gnu_cxx13new_allocatorIcEC2ERKS1_
FN:86,_ZN9__gnu_cxx13new_allocatorIcED2Ev
FNDA:0,_ZN9__gnu_cxx13new_allocatorIcEC2Ev
FNDA:0,_ZN9__gnu_cxx13new_allocatorIcEC2ERKS1_
FNDA:0,_ZN9__gnu_cxx13new_allocatorIcED2Ev
FNF:3
FNH:0
DA:79,0
DA:81,0
DA:86,0
LF:3
LH:0
end_of_record
SF:/usr/include/c++/4.8/iostream
DA:74,4
LF:1
LH:1
end_of_record
SF:/usr/include/x86_64-linux-gnu/c++/4.8/bits/gthr-default.h
FN:247,_ZL18__gthread_active_pv
FNDA:0,_ZL18__gthread_active_pv
FNF:1
FNH:0
DA:247,0
DA:251,0
LF:2
LH:0
end_of_record
TN:
SF:/home/taller2-appserver/Appserver/src/servicios/ClienteDelSharedServer.cpp
FN:3,_ZN22ClienteDelSharedServerC2Ev
FN:8,_ZN22ClienteDelSharedServerD0Ev
FN:8,_ZN22ClienteDelSharedServerD2Ev
FN:13,_ZN22ClienteDelSharedServer16esperarRespuestaEv
FN:23,_ZN22ClienteDelSharedServer12setRespuestaE16MensajeHTTPReply
FN:28,_ZN22ClienteDelSharedServer16terminarConexionEv
FN:37,_ZN22ClienteDelSharedServer12getRespuestaEv
FN:39,_GLOBAL__sub_I__ZN22ClienteDelSharedServerC2Ev
FN:39,_Z41__static_initialization_and_destruction_0ii
FNDA:2,_ZN22ClienteDelSharedServerC2Ev
FNDA:0,_ZN22ClienteDelSharedServerD0Ev
FNDA:2,_ZN22ClienteDelSharedServerD2Ev
FNDA:2,_ZN22ClienteDelSharedServer16esperarRespuestaEv
FNDA:2,_ZN22ClienteDelSharedServer12setRespuestaE16MensajeHTTPReply
FNDA:2,_ZN22ClienteDelSharedServer16terminarConexionEv
FNDA:2,_ZN22ClienteDelSharedServer12getRespuestaEv
FNDA:4,_GLOBAL__sub_I__ZN22ClienteDelSharedServerC2Ev
FNDA:4,_Z41__static_initialization_and_destruction_0ii
FNF:9
FNH:8
DA:3,2
DA:5,2
DA:6,2
DA:8,2
DA:11,2
DA:13,2
DA:16,8
DA:17,4
DA:21,2
DA:23,2
DA:24,2
DA:26,2
DA:28,2
DA:29,2
DA:30,2
DA:37,2
DA:38,2
DA:39,12
LF:18
LH:18
end_of_record
SF:/home/taller2-appserver/Appserver/src/servicios/MensajeHTTP.h
FN:11,_ZN11MensajeHTTPC2ERKS_
FN:11,_ZN11MensajeHTTPaSERKS_
FNDA:0,_ZN11MensajeHTTPC2ERKS_
FNDA:13,_ZN11MensajeHTTPaSERKS_
FNF:2
FNH:1
DA:11,13
LF:1
LH:1
end_of_record
SF:/home/taller2-appserver/Appserver/src/servicios/MensajeHTTPReply.h
FN:9,_ZN16MensajeHTTPReplyC2ERKS_
FN:9,_ZN16MensajeHTTPReplyaSERKS_
FNDA:2,_ZN16MensajeHTTPReplyC2ERKS_
FNDA:2,_ZN16MensajeHTTPReplyaSERKS_
FNF:2
FNH:2
DA:9,4
LF:1
LH:1
end_of_record
SF:/usr/include/c++/4.8/bits/alloc_traits.h
FN:253,_ZNSt16allocator_traitsISaISt13_Rb_tree_nodeISt4pairIKSsSsEEEE12_S_constructIS4_IRKS3_EEENSt9enable_ifIXsrNS6_18__construct_helperIT_IDpT0_EEE5valueEvE4typeERS5_PSC_DpOSD_
FN:391,_ZNSt16allocator_traitsISaISt13_Rb_tree_nodeISt4pairIKSsSsEEEE9constructIS4_IRKS3_EEEDTcl12_S_constructfp_fp0_spcl7forwardIT0_Efp1_EEERS5_PT_DpOSA_
FNDA:0,_ZNSt16allocator_traitsISaISt13_Rb_tree_nodeISt4pairIKSsSsEEEE12_S_constructIS4_IRKS3_EEENSt9enable_ifIXsrNS6_18__construct_helperIT_IDpT0_EEE5valueEvE4typeERS5_PSC_DpOSD_
FNDA:0,_ZNSt16allocator_traitsISaISt13_Rb_tree_nodeISt4pairIKSsSsEEEE9constructIS4_IRKS3_EEEDTcl12_S_constructfp_fp0_spcl7forwardIT0_Efp1_EEERS5_PT_DpOSA_
FNF:2
FNH:0
DA:253,0
DA:254,0
DA:391,0
DA:393,0
LF:4
LH:0
end_of_record
SF:/usr/include/c++/4.8/bits/allocator.h
FN:115,_ZNSaISt13_Rb_tree_nodeISt4pairIKSsSsEEEC2ERKS4_
FN:121,_ZNSaISt13_Rb_tree_nodeISt4pairIKSsSsEEED2Ev
FNDA:0,_ZNSaISt13_Rb_tree_nodeISt4pairIKSsSsEEEC2ERKS4_
FNDA:0,_ZNSaISt13_Rb_tree_nodeISt4pairIKSsSsEEED2Ev
FNF:2
FNH:0
DA:115,0
DA:116,0
DA:121,0
LF:3
LH:0
end_of_record
SF:/usr/include/c++/4.8/bits/basic_string.h
FN:272,_ZNSs12_Alloc_hiderD2Ev
FNDA:0,_ZNSs12_Alloc_hiderD2Ev
FNF:1
FNH:0
DA:272,0
LF:1
LH:0
end_of_record
SF:/usr/include/c++/4.8/bits/move.h
FN:76,_ZSt7forwardIRKSt4pairIKSsSsEEOT_RNSt16remove_referenceIS5_E4typeE
FNDA:0,_ZSt7forwardIRKSt4pairIKSsSsEEOT_RNSt16remove_referenceIS5_E4typeE
FNF:1
FNH:0
DA:76,0
DA:77,0
LF:2
LH:0
end_of_record
SF:/usr/include/c++/4.8/bits/stl_map.h
FN:180,_ZNSt3mapISsSsSt4lessISsESaISt4pairIKSsSsEEEC2ERKS6_
FN:264,_ZNSt3mapISsSsSt4lessISsESaISt4pairIKSsSsEEEaSERKS6_
FNDA:0,_ZNSt3mapISsSsSt4lessISsESaISt4pairIKSsSsEEEC2ERKS6_
FNDA:13,_ZNSt3mapISsSsSt4lessISsESaISt4pairIKSsSsEEEaSERKS6_
FNF:2
FNH:1
DA:180,0
DA:181,0
DA:264,13
DA:266,13
DA:267,13
LF:5
LH:3
end_of_record
SF:/usr/include/c++/4.8/bits/stl_pair.h
FN:96,_ZNSt4pairIKSsSsED2Ev
FN:127,_ZNSt4pairIKSsSsEC2ERKS1_
FNDA:0,_ZNSt4pairIKSsSsED2Ev
FNDA:0,_ZNSt4pairIKSsSsEC2ERKS1_
FNF:2
FNH:0
DA:96,0
DA:127,0
LF:2
LH:0
end_of_record
SF:/usr/include/c++/4.8/bits/stl_tree.h
FN:102,_ZNSt18_Rb_tree_node_base10_S_minimumEPS_
FN:116,_ZNSt18_Rb_tree_node_base10_S_maximumEPS_
FN:131,_ZNSt13_Rb_tree_nodeISt4pairIKSsSsEED2Ev
FN:138,_ZNSt13_Rb_tree_nodeISt4pairIKSsSsEEC2IIRKS2_EEEDpOT_
FN:356,_ZNSt8_Rb_treeISsSt4pairIKSsSsESt10_Select1stIS2_ESt4lessISsESaIS2_EE21_M_get_Node_allocatorEv
FN:360,_ZNKSt8_Rb_treeISsSt4pairIKSsSsESt10_Select1stIS2_ESt4lessISsESaIS2_EE21_M_get_Node_allocatorEv
FN:369,_ZNSt8_Rb_treeISsSt4pairIKSsSsESt10_Select1stIS2_ESt4lessISsESaIS2_EE11_M_get_nodeEv
FN:373,_ZNSt8_Rb_treeISsSt4pairIKSsSsESt10_Select1stIS2_ESt4lessISsESaIS2_EE11_M_put_nodeEPSt13_Rb_tree_nodeIS2_E
FN:401,_ZNSt8_Rb_treeISsSt4pairIKSsSsESt10_Select1stIS2_ESt4lessISsESaIS2_EE14_M_create_nodeIIRKS2_EEEPSt13_Rb_tree_nodeIS2_EDpOT_
FN:419,_ZNSt8_Rb_treeISsSt4pairIKSsSsESt10_Select1stIS2_ESt4lessISsESaIS2_EE15_M_destroy_nodeEPSt13_Rb_tree_nodeIS2_E
FN:427,_ZNSt8_Rb_treeISsSt4pairIKSsSsESt10_Select1stIS2_ESt4lessISsESaIS2_EE13_M_clone_nodeEPKSt13_Rb_tree_nodeIS2_E
FN:439,_ZNSt8_Rb_treeISsSt4pairIKSsSsESt10_Select1stIS2_ESt4lessISsESaIS2_EE13_Rb_tree_implIS6_Lb1EED2Ev
FN:450,_ZNSt8_Rb_treeISsSt4pairIKSsSsESt10_Select1stIS2_ESt4lessISsESaIS2_EE13_Rb_tree_implIS6_Lb1EEC2ERKS6_RKSaISt13_Rb_tree_nodeIS2_EE
FN:464,_ZNSt8_Rb_treeISsSt4pairIKSsSsESt10_Select1stIS2_ESt4lessISsESaIS2_EE13_Rb_tree_implIS6_Lb1EE13_M_initializeEv
FN:477,_ZNSt8_Rb_treeISsSt4pairIKSsSsESt10_Select1stIS2_ESt4lessISsESaIS2_EE7_M_rootEv
FN:481,_ZNKSt8_Rb_treeISsSt4pairIKSsSsESt10_Select1stIS2_ESt4lessISsESaIS2_EE7_M_rootEv
FN:485,_ZNSt8_Rb_treeISsSt4pairIKSsSsESt10_Select1stIS2_ESt4lessISsESaIS2_EE11_M_leftmostEv
FN:493,_ZNSt8_Rb_treeISsSt4pairIKSsSsESt10_Select1stIS2_ESt4lessISsESaIS2_EE12_M_rightmostEv
FN:501,_ZNSt8_Rb_treeISsSt4pairIKSsSsESt10_Select1stIS2_ESt4lessISsESaIS2_EE8_M_beginEv
FN:505,_ZNKSt8_Rb_treeISsSt4pairIKSsSsESt10_Select1stIS2_ESt4lessISsESaIS2_EE8_M_beginEv
FN:512,_ZNSt8_Rb_treeISsSt4pairIKSsSsESt10_Select1stIS2_ESt4lessISsESaIS2_EE6_M_endEv
FN:528,_ZNSt8_Rb_treeISsSt4pairIKSsSsESt10_Select1stIS2_ESt4lessISsESaIS2_EE7_S_leftEPSt18_Rb_tree_node_base
FN:532,_ZNSt8_Rb_treeISsSt4pairIKSsSsESt10_Select1stIS2_ESt4lessISsESaIS2_EE7_S_leftEPKSt18_Rb_tree_node_base
FN:536,_ZNSt8_Rb_treeISsSt4pairIKSsSsESt10_Select1stIS2_ESt4lessISsESaIS2_EE8_S_rightEPSt18_Rb_tree_node_base
FN:540,_ZNSt8_Rb_treeISsSt4pairIKSsSsESt10_Select1stIS2_ESt4lessISsESaIS2_EE8_S_rightEPKSt18_Rb_tree_node_base
FN:552,_ZNSt8_Rb_treeISsSt4pairIKSsSsESt10_Select1stIS2_ESt4lessISsESaIS2_EE10_S_minimumEPSt18_Rb_tree_node_base
FN:560,_ZNSt8_Rb_treeISsSt4pairIKSsSsESt10_Select1stIS2_ESt4lessISsESaIS2_EE10_S_maximumEPSt18_Rb_tree_node_base
FN:654,_ZNSt8_Rb_treeISsSt4pairIKSsSsESt10_Select1stIS2_ESt4lessISsESaIS2_EEC2ERKS8_
FN:858,_ZNSt8_Rb_treeISsSt4pairIKSsSsESt10_Select1stIS2_ESt4lessISsESaIS2_EE5clearEv
FN:987,_ZNSt8_Rb_treeISsSt4pairIKSsSsESt10_Select1stIS2_ESt4lessISsESaIS2_EEaSERKS8_
FN:1083,_ZNSt8_Rb_treeISsSt4pairIKSsSsESt10_Select1stIS2_ESt4lessISsESaIS2_EE7_M_copyEPKSt13_Rb_tree_nodeIS2_EPSA_
FN:1119,_ZNSt8_Rb_treeISsSt4pairIKSsSsESt10_Select1stIS2_ESt4lessISsESaIS2_EE8_M_eraseEPSt13_Rb_tree_nodeIS2_E
FNDA:0,_ZNSt18_Rb_tree_node_base10_S_minimumEPS_
FNDA:0,_ZNSt18_Rb_tree_node_base10_S_maximumEPS_
FNDA:0,_ZNSt13_Rb_tree_nodeISt4pairIKSsSsEED2Ev
FNDA:0,_ZNSt13_Rb_tree_nodeISt4pairIKSsSsEEC2IIRKS2_EEEDpOT_
FNDA:0,_ZNSt8_Rb_treeISsSt4pairIKSsSsESt10_Select1stIS2_ESt4lessISsESaIS2_EE21_M_get_Node_allocatorEv
FNDA:0,_ZNKSt8_Rb_treeISsSt4pairIKSsSsESt10_Select1stIS2_ESt4lessISsESaIS2_EE21_M_get_Node_allocatorEv
FNDA:0,_ZNSt8_Rb_treeISsSt4pairIKSsSsESt10_Select1stIS2_ESt4lessISsESaIS2_EE11_M_get_nodeEv
FNDA:0,_ZNSt8_Rb_treeISsSt4pairIKSsSsESt10_Select1stIS2_ESt4lessISsESaIS2_EE11_M_put_nodeEPSt13_Rb_tree_nodeIS2_E
FNDA:0,_ZNSt8_Rb_treeISsSt4pairIKSsSsESt10_Select1stIS2_ESt4lessISsESaIS2_EE14_M_create_nodeIIRKS2_EEEPSt13_Rb_tree_nodeIS2_EDpOT_
FNDA:0,_ZNSt8_Rb_treeISsSt4pairIKSsSsESt10_Select1stIS2_ESt4lessISsESaIS2_EE15_M_destroy_nodeEPSt13_Rb_tree_nodeIS2_E
FNDA:0,_ZNSt8_Rb_treeISsSt4pairIKSsSsESt10_Select1stIS2_ESt4lessISsESaIS2_EE13_M_clone_nodeEPKSt13_Rb_tree_nodeIS2_E
FNDA:0,_ZNSt8_Rb_treeISsSt4pairIKSsSsESt10_Select1stIS2_ESt4lessISsESaIS2_EE13_Rb_tree_implIS6_Lb1EED2Ev
FNDA:0,_ZNSt8_Rb_treeISsSt4pairIKSsSsESt10_Select1stIS2_ESt4lessISsESaIS2_EE13_Rb_tree_implIS6_Lb1EEC2ERKS6_RKSaISt13_Rb_tree_nodeIS2_EE
FNDA:0,_ZNSt8_Rb_treeISsSt4pairIKSsSsESt10_Select1stIS2_ESt4lessISsESaIS2_EE13_Rb_tree_implIS6_Lb1EE13_M_initializeEv
FNDA:0,_ZNSt8_Rb_treeISsSt4pairIKSsSsESt10_Select1stIS2_ESt4lessISsESaIS2_EE7_M_rootEv
FNDA:0,_ZNKSt8_Rb_treeISsSt4pairIKSsSsESt10_Select1stIS2_ESt4lessISsESaIS2_EE7_M_rootEv
FNDA:0,_ZNSt8_Rb_treeISsSt4pairIKSsSsESt10_Select1stIS2_ESt4lessISsESaIS2_EE11_M_leftmostEv
FNDA:0,_ZNSt8_Rb_treeISsSt4pairIKSsSsESt10_Select1stIS2_ESt4lessISsESaIS2_EE12_M_rightmostEv
FNDA:0,_ZNSt8_Rb_treeISsSt4pairIKSsSsESt10_Select1stIS2_ESt4lessISsESaIS2_EE8_M_beginEv
FNDA:0,_ZNKSt8_Rb_treeISsSt4pairIKSsSsESt10_Select1stIS2_ESt4lessISsESaIS2_EE8_M_beginEv
FNDA:0,_ZNSt8_Rb_treeISsSt4pairIKSsSsESt10_Select1stIS2_ESt4lessISsESaIS2_EE6_M_endEv
FNDA:0,_ZNSt8_Rb_treeISsSt4pairIKSsSsESt10_Select1stIS2_ESt4lessISsESaIS2_EE7_S_leftEPSt18_Rb_tree_node_base
FNDA:0,_ZNSt8_Rb_treeISsSt4pairIKSsSsESt10_Select1stIS2_ESt4lessISsESaIS2_EE7_S_leftEPKSt18_Rb_tree_node_base
FNDA:0,_ZNSt8_Rb_treeISsSt4pairIKSsSsESt10_Select1stIS2_ESt4lessISsESaIS2_EE8_S_rightEPSt18_Rb_tree_node_base
FNDA:0,_ZNSt8_Rb_treeISsSt4pairIKSsSsESt10_Select1stIS2_ESt4lessISsESaIS2_EE8_S_rightEPKSt18_Rb_tree_node_base
FNDA:0,_ZNSt8_Rb_treeISsSt4pairIKSsSsESt10_Select1stIS2_ESt4lessISsESaIS2_EE10_S_minimumEPSt18_Rb_tree_node_base
FNDA:0,_ZNSt8_Rb_treeISsSt4pairIKSsSsESt10_Select1stIS2_ESt4lessISsESaIS2_EE10_S_maximumEPSt18_Rb_tree_node_base
FNDA:0,_ZNSt8_Rb_treeISsSt4pairIKSsSsESt10_Select1stIS2_ESt4lessISsESaIS2_EEC2ERKS8_
FNDA:13,_ZNSt8_Rb_treeISsSt4pairIKSsSsESt10_Select1stIS2_ESt4lessISsESaIS2_EE5clearEv
FNDA:13,_ZNSt8_Rb_treeISsSt4pairIKSsSsESt10_Select1stIS2_ESt4lessISsESaIS2_EEaSERKS8_
FNDA:0,_ZNSt8_Rb_treeISsSt4pairIKSsSsESt10_Select1stIS2_ESt4lessISsESaIS2_EE7_M_copyEPKSt13_Rb_tree_nodeIS2_EPSA_
FNDA:0,_ZNSt8_Rb_treeISsSt4pairIKSsSsESt10_Select1stIS2_ESt4lessISsESaIS2_EE8_M_eraseEPSt13_Rb_tree_nodeIS2_E
FNF:32
FNH:2
DA:102,0
DA:104,0
DA:105,0
DA:116,0
DA:118,0
DA:119,0
DA:131,0
DA:138,0
DA:140,0
DA:356,0
DA:357,0
DA:360,0
DA:361,0
DA:369,0
DA:370,0
DA:373,0
DA:374,0
DA:401,0
DA:403,0
DA:406,0
DA:407,0
DA:408,0
DA:410,=====
DA:412,=====
DA:413,=====
DA:415,0
DA:419,0
DA:421,0
DA:422,0
DA:423,0
DA:427,0
DA:429,0
DA:430,0
DA:431,0
DA:432,0
DA:433,0
DA:439,0
DA:450,0
DA:452,0
DA:453,0
DA:464,0
DA:466,0
DA:467,0
DA:468,0
DA:469,0
DA:470,0
DA:477,0
DA:478,0
DA:481,0
DA:482,0
DA:485,0
DA:486,0
DA:493,0
DA:494,0
DA:501,0
DA:502,0
DA:505,0
DA:508,0
DA:512,0
DA:513,0
DA:528,0
DA:529,0
DA:532,0
DA:533,0
DA:536,0
DA:537,0
DA:540,0
DA:541,0
DA:552,0
DA:553,0
DA:560,0
DA:561,0
DA:654,0
DA:655,0
DA:657,0
DA:659,0
DA:660,0
DA:661,0
DA:662,0
DA:664,0
DA:858,13
DA:860,13
DA:861,13
DA:862,13
DA:863,13
DA:864,13
DA:865,13
DA:987,13
DA:990,13
DA:993,13
DA:995,13
DA:997,13
DA:998,13
DA:999,13
DA:1000,13
DA:1003,13
DA:1083,0
DA:1087,0
DA:1088,0
DA:1092,0
DA:1093,0
DA:1094,0
DA:1095,0
DA:1097,0
DA:1099,0
DA:1100,0
DA:1101,0
DA:1102,0
DA:1103,0
DA:1104,0
DA:1105,0
DA:1108,=====
DA:1110,=====
DA:1111,=====
DA:1113,0
DA:1119,0
DA:1123,0
DA:1125,0
DA:1126,0
DA:1127,0
DA:1128,0
DA:1130,0
LF:122
LH:16
end_of_record
SF:/usr/include/c++/4.8/ext/atomicity.h
FN:48,_ZN9__gnu_cxxL18__exchange_and_addEPVii
FN:65,_ZN9__gnu_cxxL25__exchange_and_add_singleEPii
FN:78,_ZN9__gnu_cxxL27__exchange_and_add_dispatchEPii
FNDA:0,_ZN9__gnu_cxxL18__exchange_and_addEPVii
FNDA:0,_ZN9__gnu_cxxL25__exchange_and_add_singleEPii
FNDA:0,_ZN9__gnu_cxxL27__exchange_and_add_dispatchEPii
FNF:3
FNH:0
DA:48,0
DA:49,0
DA:65,0
DA:67,0
DA:68,0
DA:69,0
DA:78,0
DA:81,0
DA:82,0
DA:84,0
LF:10
LH:0
end_of_record
SF:/usr/include/c++/4.8/ext/new_allocator.h
FN:81,_ZN9__gnu_cxx13new_allocatorIcEC2ERKS1_
FN:81,_ZN9__gnu_cxx13new_allocatorISt13_Rb_tree_nodeISt4pairIKSsSsEEEC2ERKS6_
FN:86,_ZN9__gnu_cxx13new_allocatorIcED2Ev
FN:86,_ZN9__gnu_cxx13new_allocatorISt13_Rb_tree_nodeISt4pairIKSsSsEEED2Ev
FN:99,_ZN9__gnu_cxx13new_allocatorISt13_Rb_tree_nodeISt4pairIKSsSsEEE8allocateEmPKv
FN:109,_ZN9__gnu_cxx13new_allocatorISt13_Rb_tree_nodeISt4pairIKSsSsEEE10deallocateEPS5_m
FN:113,_ZNK9__gnu_cxx13new_allocatorISt13_Rb_tree_nodeISt4pairIKSsSsEEE8max_sizeEv
FN:119,_ZN9__gnu_cxx13new_allocatorISt13_Rb_tree_nodeISt4pairIKSsSsEEE9constructIS5_IRKS4_EEEvPT_DpOT0_
FN:124,_ZN9__gnu_cxx13new_allocatorISt13_Rb_tree_nodeISt4pairIKSsSsEEE7destroyIS5_EEvPT_
FNDA:0,_ZN9__gnu_cxx13new_allocatorISt13_Rb_tree_nodeISt4pairIKSsSsEEEC2ERKS6_
FNDA:0,_ZN9__gnu_cxx13new_allocatorIcEC2ERKS1_
FNDA:0,_ZN9__gnu_cxx13new_allocatorISt13_Rb_tree_nodeISt4pairIKSsSsEEED2Ev
FNDA:0,_ZN9__gnu_cxx13new_allocatorIcED2Ev
FNDA:0,_ZN9__gnu_cxx13new_allocatorISt13_Rb_tree_nodeISt4pairIKSsSsEEE8allocateEmPKv
FNDA:0,_ZN9__gnu_cxx13new_allocatorISt13_Rb_tree_nodeISt4pairIKSsSsEEE10deallocateEPS5_m
FNDA:0,_ZNK9__gnu_cxx13new_allocatorISt13_Rb_tree_nodeISt4pairIKSsSsEEE8max_sizeEv
FNDA:0,_ZN9__gnu_cxx13new_allocatorISt13_Rb_tree_nodeISt4pairIKSsSsEEE9constructIS5_IRKS4_EEEvPT_DpOT0_
FNDA:0,_ZN9__gnu_cxx13new_allocatorISt13_Rb_tree_nodeISt4pairIKSsSsEEE7destroyIS5_EEvPT_
FNF:9
FNH:0
DA:81,0
DA:86,0
DA:99,0
DA:101,0
DA:102,0
DA:104,0
DA:109,0
DA:110,0
DA:113,0
DA:114,0
DA:119,0
DA:120,0
DA:124,0
LF:13
LH:0
end_of_record
SF:/usr/include/c++/4.8/iostream
DA:74,4
LF:1
LH:1
end_of_record
SF:/usr/include/c++/4.8/new
FN:109,_ZnwmPv
FN:115,_ZdlPvS_
FNDA:0,_ZnwmPv
FNDA:0,_ZdlPvS_
FNF:2
FNH:0
DA:109,0
DA:110,0
DA:115,0
LF:3
LH:0
end_of_record
SF:/usr/include/x86_64-linux-gnu/c++/4.8/bits/gthr-default.h
FN:247,_ZL18__gthread_active_pv
FNDA:0,_ZL18__gthread_active_pv
FNF:1
FNH:0
DA:247,0
DA:251,0
LF:2
LH:0
end_of_record
TN:
SF:/home/taller2-appserver/Appserver/src/servicios/JsonObject.cpp
FN:3,_ZN10JsonObjectC2Ev
FN:7,_ZN10JsonObjectixESs
FN:11,_ZN10JsonObject17agregarClaveValorESsSs
FN:15,_ZN10JsonObject17agregarClaveValorESsR9JsonValor
FN:21,_ZN10JsonObjectD0Ev
FN:21,_ZN10JsonObjectD2Ev
FNDA:561,_ZN10JsonObjectC2Ev
FNDA:1040,_ZN10JsonObjectixESs
FNDA:1120,_ZN10JsonObject17agregarClaveValorESsSs
FNDA:2,_ZN10JsonObject17agregarClaveValorESsR9JsonValor
FNDA:0,_ZN10JsonObjectD0Ev
FNDA:561,_ZN10JsonObjectD2Ev
FNF:6
FNH:5
DA:3,561
DA:4,561
DA:5,561
DA:7,1040
DA:8,1040
DA:11,1120
DA:12,1120
DA:13,1120
DA:15,2
DA:16,2
DA:17,2
DA:21,561
DA:24,561
LF:13
LH:13
end_of_record
TN:
SF:/home/taller2-appserver/Appserver/src/servicios/MensajeHTTP.h
FN:11,_ZN11MensajeHTTPC2ERKS_
FNDA:42,_ZN11MensajeHTTPC2ERKS_
FNF:1
FNH:1
DA:11,42
LF:1
LH:1
end_of_record
SF:/home/taller2-appserver/Appserver/src/servicios/MensajeHTTPRequest.h
FN:9,_ZN18MensajeHTTPRequestC2ERKS_
FNDA:40,_ZN18MensajeHTTPRequestC2ERKS_
FNF:1
FNH:1
DA:9,40
LF:1
LH:1
end_of_record
SF:/home/taller2-appserver/Appserver/src/servidor/Servidor.cpp
FN:3,_ZN8ServidorC2Ev
FN:27,_ZN8Servidor15iniciarServidorEv
FN:32,_ZN8Servidor18iniciarBaseDeDatosEv
FN:41,_ZN8Servidor23getRespuestaDelServicioE18MensajeHTTPRequest
FN:116,_ZN8ServidorD0Ev
FN:116,_ZN8ServidorD2Ev
FN:119,_GLOBAL__sub_I__ZN8ServidorC2Ev
FN:119,_Z41__static_initialization_and_destruction_0ii
FNDA:4,_ZN8ServidorC2Ev
FNDA:4,_ZN8Servidor15iniciarServidorEv
FNDA:4,_ZN8Servidor18iniciarBaseDeDatosEv
FNDA:18,_ZN8Servidor23getRespuestaDelServicioE18MensajeHTTPRequest
FNDA:0,_ZN8ServidorD0Ev
FNDA:4,_ZN8ServidorD2Ev
FNDA:4,_GLOBAL__sub_I__ZN8ServidorC2Ev
FNDA:4,_Z41__static_initialization_and_destruction_0ii
FNF:8
FNH:7
DA:3,4
DA:24,4
DA:25,4
DA:27,4
DA:28,4
DA:29,4
DA:32,4
DA:35,4
DA:41,18
DA:101,18
DA:102,18
DA:103,18
DA:104,14
DA:105,14
DA:106,14
DA:110,4
DA:111,4
DA:113,18
DA:116,4
DA:119,16
LF:20
LH:20
end_of_record
SF:/usr/include/c++/4.8/bits/alloc_traits.h
FN:253,_ZNSt16allocator_traitsISaISt13_Rb_tree_nodeISt4pairIKSsSsEEEE12_S_constructIS4_IRKS3_EEENSt9enable_ifIXsrNS6_18__construct_helperIT_IDpT0_EEE5valueEvE4typeERS5_PSC_DpOSD_
FN:391,_ZNSt16allocator_traitsISaISt13_Rb_tree_nodeISt4pairIKSsSsEEEE9constructIS4_IRKS3_EEEDTcl12_S_constructfp_fp0_spcl7forwardIT0_Efp1_EEERS5_PT_DpOSA_
FNDA:357,_ZNSt16allocator_traitsISaISt13_Rb_tree_nodeISt4pairIKSsSsEEEE12_S_constructIS4_IRKS3_EEENSt9enable_ifIXsrNS6_18__construct_helperIT_IDpT0_EEE5valueEvE4typeERS5_PSC_DpOSD_
FNDA:357,_ZNSt16allocator_traitsISaISt13_Rb_tree_nodeISt4pairIKSsSsEEEE9constructIS4_IRKS3_EEEDTcl12_S_constructfp_fp0_spcl7forwardIT0_Efp1_EEERS5_PT_DpOSA_
FNF:2
FNH:2
DA:253,357
DA:254,357
DA:391,357
DA:393,357
LF:4
LH:4
end_of_record
SF:/usr/include/c++/4.8/bits/allocator.h
FN:115,_ZNSaISt13_Rb_tree_nodeISt4pairIKSsSsEEEC2ERKS4_
FN:121,_ZNSaISt13_Rb_tree_nodeISt4pairIKSsSsEEED2Ev
FNDA:42,_ZNSaISt13_Rb_tree_nodeISt4pairIKSsSsEEEC2ERKS4_
FNDA:91,_ZNSaISt13_Rb_tree_nodeISt4pairIKSsSsEEED2Ev
FNF:2
FNH:2
DA:115,42
DA:116,42
DA:121,91
LF:3
LH:3
end_of_record
SF:/usr/include/c++/4.8/bits/basic_string.h
FN:272,_ZNSs12_Alloc_hiderD2Ev
FNDA:0,_ZNSs12_Alloc_hiderD2Ev
FNF:1
FNH:0
DA:272,0
LF:1
LH:0
end_of_record
SF:/usr/include/c++/4.8/bits/char_traits.h
FN:258,_ZNSt11char_traitsIcE6lengthEPKc
FNDA:0,_ZNSt11char_traitsIcE6lengthEPKc
FNF:1
FNH:0
DA:258,0
DA:259,0
LF:2
LH:0
end_of_record
SF:/usr/include/c++/4.8/bits/move.h
FN:76,_ZSt7forwardIRKSt4pairIKSsSsEEOT_RNSt16remove_referenceIS5_E4typeE
FNDA:1785,_ZSt7forwardIRKSt4pairIKSsSsEEOT_RNSt16remove_referenceIS5_E4typeE
FNF:1
FNH:1
DA:76,1785
DA:77,1785
LF:2
LH:2
end_of_record
SF:/usr/include/c++/4.8/bits/stl_map.h
FN:180,_ZNSt3mapISsSsSt4lessISsESaISt4pairIKSsSsEEEC2ERKS6_
FNDA:42,_ZNSt3mapISsSsSt4lessISsESaISt4pairIKSsSsEEEC2ERKS6_
FNF:1
FNH:1
DA:180,42
DA:181,42
LF:2
LH:2
end_of_record
SF:/usr/include/c++/4.8/bits/stl_pair.h
FN:96,_ZNSt4pairIKSsSsED2Ev
FN:127,_ZNSt4pairIKSsSsEC2ERKS1_
FNDA:581,_ZNSt4pairIKSsSsED2Ev
FNDA:357,_ZNSt4pairIKSsSsEC2ERKS1_
FNF:2
FNH:2
DA:96,581
DA:127,357
LF:2
LH:2
end_of_record
SF:/usr/include/c++/4.8/bits/stl_tree.h
FN:102,_ZNSt18_Rb_tree_node_base10_S_minimumEPS_
FN:116,_ZNSt18_Rb_tree_node_base10_S_maximumEPS_
FN:131,_ZNSt13_Rb_tree_nodeISt4pairIKSsSsEED2Ev
FN:138,_ZNSt13_Rb_tree_nodeISt4pairIKSsSsEEC2IIRKS2_EEEDpOT_
FN:356,_ZNSt8_Rb_treeISsSt4pairIKSsSsESt10_Select1stIS2_ESt4lessISsESaIS2_EE21_M_get_Node_allocatorEv
FN:360,_ZNKSt8_Rb_treeISsSt4pairIKSsSsESt10_Select1stIS2_ESt4lessISsESaIS2_EE21_M_get_Node_allocatorEv
FN:369,_ZNSt8_Rb_treeISsSt4pairIKSsSsESt10_Select1stIS2_ESt4lessISsESaIS2_EE11_M_get_nodeEv
FN:373,_ZNSt8_Rb_treeISsSt4pairIKSsSsESt10_Select1stIS2_ESt4lessISsESaIS2_EE11_M_put_nodeEPSt13_Rb_tree_nodeIS2_E
FN:401,_ZNSt8_Rb_treeISsSt4pairIKSsSsESt10_Select1stIS2_ESt4lessISsESaIS2_EE14_M_create_nodeIIRKS2_EEEPSt13_Rb_tree_nodeIS2_EDpOT_
FN:419,_ZNSt8_Rb_treeISsSt4pairIKSsSsESt10_Select1stIS2_ESt4lessISsESaIS2_EE15_M_destroy_nodeEPSt13_Rb_tree_nodeIS2_E
FN:427,_ZNSt8_Rb_treeISsSt4pairIKSsSsESt10_Select1stIS2_ESt4lessISsESaIS2_EE13_M_clone_nodeEPKSt13_Rb_tree_nodeIS2_E
FN:439,_ZNSt8_Rb_treeISsSt4pairIKSsSsESt10_Select1stIS2_ESt4lessISsESaIS2_EE13_Rb_tree_implIS6_Lb1EED2Ev
FN:450,_ZNSt8_Rb_treeISsSt4pairIKSsSsESt10_Select1stIS2_ESt4lessISsESaIS2_EE13_Rb_tree_implIS6_Lb1EEC2ERKS6_RKSaISt13_Rb_tree_nodeIS2_EE
FN:464,_ZNSt8_Rb_treeISsSt4pairIKSsSsESt10_Select1stIS2_ESt4lessISsESaIS2_EE13_Rb_tree_implIS6_Lb1EE13_M_initializeEv
FN:477,_ZNSt8_Rb_treeISsSt4pairIKSsSsESt10_Select1stIS2_ESt4lessISsESaIS2_EE7_M_rootEv
FN:481,_ZNKSt8_Rb_treeISsSt4pairIKSsSsESt10_Select1stIS2_ESt4lessISsESaIS2_EE7_M_rootEv
FN:485,_ZNSt8_Rb_treeISsSt4pairIKSsSsESt10_Select1stIS2_ESt4lessISsESaIS2_EE11_M_leftmostEv
FN:493,_ZNSt8_Rb_treeISsSt4pairIKSsSsESt10_Select1stIS2_ESt4lessISsESaIS2_EE12_M_rightmostEv
FN:505,_ZNKSt8_Rb_treeISsSt4pairIKSsSsESt10_Select1stIS2_ESt4lessISsESaIS2_EE8_M_beginEv
FN:512,_ZNSt8_Rb_treeISsSt4pairIKSsSsESt10_Select1stIS2_ESt4lessISsESaIS2_EE6_M_endEv
FN:528,_ZNSt8_Rb_treeISsSt4pairIKSsSsESt10_Select1stIS2_ESt4lessISsESaIS2_EE7_S_leftEPSt18_Rb_tree_node_base
FN:532,_ZNSt8_Rb_treeISsSt4pairIKSsSsESt10_Select1stIS2_ESt4lessISsESaIS2_EE7_S_leftEPKSt18_Rb_tree_node_base
FN:536,_ZNSt8_Rb_treeISsSt4pairIKSsSsESt10_Select1stIS2_ESt4lessISsESaIS2_EE8_S_rightEPSt18_Rb_tree_node_base
FN:540,_ZNSt8_Rb_treeISsSt4pairIKSsSsESt10_Select1stIS2_ESt4lessISsESaIS2_EE8_S_rightEPKSt18_Rb_tree_node_base
FN:552,_ZNSt8_Rb_treeISsSt4pairIKSsSsESt10_Select1stIS2_ESt4lessISsESaIS2_EE10_S_minimumEPSt18_Rb_tree_node_base
FN:560,_ZNSt8_Rb_treeISsSt4pairIKSsSsESt10_Select1stIS2_ESt4lessISsESaIS2_EE10_S_maximumEPSt18_Rb_tree_node_base
FN:654,_ZNSt8_Rb_treeISsSt4pairIKSsSsESt10_Select1stIS2_ESt4lessISsESaIS2_EEC2ERKS8_
FN:1083,_ZNSt8_Rb_treeISsSt4pairIKSsSsESt10_Select1stIS2_ESt4lessISsESaIS2_EE7_M_copyEPKSt13_Rb_tree_nodeIS2_EPSA_
FN:1119,_ZNSt8_Rb_treeISsSt4pairIKSsSsESt10_Select1stIS2_ESt4lessISsESaIS2_EE8_M_eraseEPSt13_Rb_tree_nodeIS2_E
FNDA:70,_ZNSt18_Rb_tree_node_base10_S_minimumEPS_
FNDA:70,_ZNSt18_Rb_tree_node_base10_S_maximumEPS_
FNDA:581,_ZNSt13_Rb_tree_nodeISt4pairIKSsSsEED2Ev
FNDA:357,_ZNSt13_Rb_tree_nodeISt4pairIKSsSsEEC2IIRKS2_EEEDpOT_
FNDA:1072,_ZNSt8_Rb_treeISsSt4pairIKSsSsESt10_Select1stIS2_ESt4lessISsESaIS2_EE21_M_get_Node_allocatorEv
FNDA:42,_ZNKSt8_Rb_treeISsSt4pairIKSsSsESt10_Select1stIS2_ESt4lessISsESaIS2_EE21_M_get_Node_allocatorEv
FNDA:491,_ZNSt8_Rb_treeISsSt4pairIKSsSsESt10_Select1stIS2_ESt4lessISsESaIS2_EE11_M_get_nodeEv
FNDA:581,_ZNSt8_Rb_treeISsSt4pairIKSsSsESt10_Select1stIS2_ESt4lessISsESaIS2_EE11_M_put_nodeEPSt13_Rb_tree_nodeIS2_E
FNDA:357,_ZNSt8_Rb_treeISsSt4pairIKSsSsESt10_Select1stIS2_ESt4lessISsESaIS2_EE14_M_create_nodeIIRKS2_EEEPSt13_Rb_tree_nodeIS2_EDpOT_
FNDA:581,_ZNSt8_Rb_treeISsSt4pairIKSsSsESt10_Select1stIS2_ESt4lessISsESaIS2_EE15_M_destroy_nodeEPSt13_Rb_tree_nodeIS2_E
FNDA:357,_ZNSt8_Rb_treeISsSt4pairIKSsSsESt10_Select1stIS2_ESt4lessISsESaIS2_EE13_M_clone_nodeEPKSt13_Rb_tree_nodeIS2_E
FNDA:91,_ZNSt8_Rb_treeISsSt4pairIKSsSsESt10_Select1stIS2_ESt4lessISsESaIS2_EE13_Rb_tree_implIS6_Lb1EED2Ev
FNDA:42,_ZNSt8_Rb_treeISsSt4pairIKSsSsESt10_Select1stIS2_ESt4lessISsESaIS2_EE13_Rb_tree_implIS6_Lb1EEC2ERKS6_RKSaISt13_Rb_tree_nodeIS2_EE
FNDA:91,_ZNSt8_Rb_treeISsSt4pairIKSsSsESt10_Select1stIS2_ESt4lessISsESaIS2_EE13_Rb_tree_implIS6_Lb1EE13_M_initializeEv
FNDA:166,_ZNSt8_Rb_treeISsSt4pairIKSsSsESt10_Select1stIS2_ESt4lessISsESaIS2_EE7_M_rootEv
FNDA:55,_ZNKSt8_Rb_treeISsSt4pairIKSsSsESt10_Select1stIS2_ESt4lessISsESaIS2_EE7_M_rootEv
FNDA:222,_ZNSt8_Rb_treeISsSt4pairIKSsSsESt10_Select1stIS2_ESt4lessISsESaIS2_EE11_M_leftmostEv
FNDA:126,_ZNSt8_Rb_treeISsSt4pairIKSsSsESt10_Select1stIS2_ESt4lessISsESaIS2_EE12_M_rightmostEv
FNDA:51,_ZNKSt8_Rb_treeISsSt4pairIKSsSsESt10_Select1stIS2_ESt4lessISsESaIS2_EE8_M_beginEv
FNDA:593,_ZNSt8_Rb_treeISsSt4pairIKSsSsESt10_Select1stIS2_ESt4lessISsESaIS2_EE6_M_endEv
FNDA:894,_ZNSt8_Rb_treeISsSt4pairIKSsSsESt10_Select1stIS2_ESt4lessISsESaIS2_EE7_S_leftEPSt18_Rb_tree_node_base
FNDA:357,_ZNSt8_Rb_treeISsSt4pairIKSsSsESt10_Select1stIS2_ESt4lessISsESaIS2_EE7_S_leftEPKSt18_Rb_tree_node_base
FNDA:984,_ZNSt8_Rb_treeISsSt4pairIKSsSsESt10_Select1stIS2_ESt4lessISsESaIS2_EE8_S_rightEPSt18_Rb_tree_node_base
FNDA:145,_ZNSt8_Rb_treeISsSt4pairIKSsSsESt10_Select1stIS2_ESt4lessISsESaIS2_EE8_S_rightEPKSt18_Rb_tree_node_base
FNDA:51,_ZNSt8_Rb_treeISsSt4pairIKSsSsESt10_Select1stIS2_ESt4lessISsESaIS2_EE10_S_minimumEPSt18_Rb_tree_node_base
FNDA:51,_ZNSt8_Rb_treeISsSt4pairIKSsSsESt10_Select1stIS2_ESt4lessISsESaIS2_EE10_S_maximumEPSt18_Rb_tree_node_base
FNDA:42,_ZNSt8_Rb_treeISsSt4pairIKSsSsESt10_Select1stIS2_ESt4lessISsESaIS2_EEC2ERKS8_
FNDA:196,_ZNSt8_Rb_treeISsSt4pairIKSsSsESt10_Select1stIS2_ESt4lessISsESaIS2_EE7_M_copyEPKSt13_Rb_tree_nodeIS2_EPSA_
FNDA:783,_ZNSt8_Rb_treeISsSt4pairIKSsSsESt10_Select1stIS2_ESt4lessISsESaIS2_EE8_M_eraseEPSt13_Rb_tree_nodeIS2_E
FNF:29
FNH:29
DA:102,70
DA:104,70
DA:105,70
DA:116,70
DA:118,70
DA:119,70
DA:131,581
DA:138,357
DA:140,357
DA:356,1072
DA:357,1072
DA:360,42
DA:361,42
DA:369,491
DA:370,491
DA:373,581
DA:374,581
DA:401,357
DA:403,357
DA:406,357
DA:407,357
DA:408,357
DA:410,=====
DA:412,=====
DA:413,=====
DA:415,357
DA:419,581
DA:421,581
DA:422,581
DA:423,581
DA:427,357
DA:429,357
DA:430,357
DA:431,357
DA:432,357
DA:433,357
DA:439,91
DA:450,42
DA:452,42
DA:453,42
DA:464,91
DA:466,91
DA:467,91
DA:468,91
DA:469,91
DA:470,91
DA:477,166
DA:478,166
DA:481,55
DA:482,55
DA:485,222
DA:486,222
DA:493,126
DA:494,126
DA:505,51
DA:508,51
DA:512,593
DA:513,593
DA:528,894
DA:529,894
DA:532,357
DA:533,357
DA:536,984
DA:537,984
DA:540,145
DA:541,145
DA:552,51
DA:553,51
DA:560,51
DA:561,51
DA:654,42
DA:655,42
DA:657,42
DA:659,38
DA:660,38
DA:661,38
DA:662,38
DA:664,42
DA:1083,196
DA:1087,196
DA:1088,196
DA:1092,196
DA:1093,107
DA:1094,196
DA:1095,196
DA:1097,553
DA:1099,161
DA:1100,161
DA:1101,161
DA:1102,161
DA:1103,38
DA:1104,161
DA:1105,161
DA:1108,=====
DA:1110,=====
DA:1111,=====
DA:1113,196
DA:1119,783
DA:1123,2147
DA:1125,581
DA:1126,581
DA:1127,581
DA:1128,581
DA:1130,783
LF:104
LH:98
end_of_record
SF:/usr/include/c++/4.8/ext/atomicity.h
FN:48,_ZN9__gnu_cxxL18__exchange_and_addEPVii
FN:65,_ZN9__gnu_cxxL25__exchange_and_add_singleEPii
FN:78,_ZN9__gnu_cxxL27__exchange_and_add_dispatchEPii
FNDA:0,_ZN9__gnu_cxxL18__exchange_and_addEPVii
FNDA:0,_ZN9__gnu_cxxL25__exchange_and_add_singleEPii
FNDA:0,_ZN9__gnu_cxxL27__exchange_and_add_dispatchEPii
FNF:3
FNH:0
DA:48,0
DA:49,0
DA:65,0
DA:67,0
DA:68,0
DA:69,0
DA:78,0
DA:81,0
DA:82,0
DA:84,0
LF:10
LH:0
end_of_record
SF:/usr/include/c++/4.8/ext/new_allocator.h
FN:79,_ZN9__gnu_cxx13new_allocatorIcEC2Ev
FN:81,_ZN9__gnu_cxx13new_allocatorISt13_Rb_tree_nodeISt4pairIKSsSsEEEC2ERKS6_
FN:81,_ZN9__gnu_cxx13new_allocatorIcEC2ERKS1_
FN:86,_ZN9__gnu_cxx13new_allocatorIcED2Ev
FN:86,_ZN9__gnu_cxx13new_allocatorISt13_Rb_tree_nodeISt4pairIKSsSsEEED2Ev
FN:99,_ZN9__gnu_cxx13new_allocatorISt13_Rb_tree_nodeISt4pairIKSsSsEEE8allocateEmPKv
FN:109,_ZN9__gnu_cxx13new_allocatorISt13_Rb_tree_nodeISt4pairIKSsSsEEE10deallocateEPS5_m
FN:113,_ZNK9__gnu_cxx13new_allocatorISt13_Rb_tree_nodeISt4pairIKSsSsEEE8max_sizeEv
FN:119,_ZN9__gnu_cxx13new_allocatorISt13_Rb_tree_nodeISt4pairIKSsSsEEE9constructIS5_IRKS4_EEEvPT_DpOT0_
FN:124,_ZN9__gnu_cxx13new_allocatorISt13_Rb_tree_nodeISt4pairIKSsSsEEE7destroyIS5_EEvPT_
FNDA:0,_ZN9__gnu_cxx13new_allocatorIcEC2Ev
FNDA:42,_ZN9__gnu_cxx13new_allocatorISt13_Rb_tree_nodeISt4pairIKSsSsEEEC2ERKS6_
FNDA:0,_ZN9__gnu_cxx13new_allocatorIcEC2ERKS1_
FNDA:91,_ZN9__gnu_cxx13new_allocatorISt13_Rb_tree_nodeISt4pairIKSsSsEEED2Ev
FNDA:0,_ZN9__gnu_cxx13new_allocatorIcED2Ev
FNDA:491,_ZN9__gnu_cxx13new_allocatorISt13_Rb_tree_nodeISt4pairIKSsSsEEE8allocateEmPKv
FNDA:581,_ZN9__gnu_cxx13new_allocatorISt13_Rb_tree_nodeISt4pairIKSsSsEEE10deallocateEPS5_m
FNDA:491,_ZNK9__gnu_cxx13new_allocatorISt13_Rb_tree_nodeISt4pairIKSsSsEEE8max_sizeEv
FNDA:357,_ZN9__gnu_cxx13new_allocatorISt13_Rb_tree_nodeISt4pairIKSsSsEEE9constructIS5_IRKS4_EEEvPT_DpOT0_
FNDA:581,_ZN9__gnu_cxx13new_allocatorISt13_Rb_tree_nodeISt4pairIKSsSsEEE7destroyIS5_EEvPT_
FNF:10
FNH:7
DA:79,0
DA:81,42
DA:86,91
DA:99,491
DA:101,491
DA:102,0
DA:104,491
DA:109,581
DA:110,581
DA:113,491
DA:114,491
DA:119,357
DA:120,357
DA:124,581
LF:14
LH:12
end_of_record
SF:/usr/include/c++/4.8/iostream
DA:74,4
LF:1
LH:1
end_of_record
SF:/usr/include/c++/4.8/new
FN:109,_ZnwmPv
FN:115,_ZdlPvS_
FNDA:1799,_ZnwmPv
FNDA:0,_ZdlPvS_
FNF:2
FNH:1
DA:109,1799
DA:110,1799
DA:115,0
LF:3
LH:2
end_of_record
SF:/usr/include/x86_64-linux-gnu/c++/4.8/bits/gthr-default.h
FN:247,_ZL18__gthread_active_pv
FNDA:0,_ZL18__gthread_active_pv
FNF:1
FNH:0
DA:247,0
DA:251,0
LF:2
LH:0
end_of_record
